
test：     文件格式 elf64-littleriscv


Disassembly of section .text:

0000000010010000 <reset_vector>:
    10010000:	a009                	j	10010002 <do_reset>

0000000010010002 <do_reset>:
    10010002:	4081                	li	ra,0
    10010004:	4101                	li	sp,0
    10010006:	4181                	li	gp,0
    10010008:	4201                	li	tp,0
    1001000a:	4281                	li	t0,0
    1001000c:	4301                	li	t1,0
    1001000e:	4381                	li	t2,0
    10010010:	4401                	li	s0,0
    10010012:	4481                	li	s1,0
    10010014:	4601                	li	a2,0
    10010016:	4681                	li	a3,0
    10010018:	4701                	li	a4,0
    1001001a:	4781                	li	a5,0
    1001001c:	4801                	li	a6,0
    1001001e:	4881                	li	a7,0
    10010020:	4901                	li	s2,0
    10010022:	4981                	li	s3,0
    10010024:	4a01                	li	s4,0
    10010026:	4a81                	li	s5,0
    10010028:	4b01                	li	s6,0
    1001002a:	4b81                	li	s7,0
    1001002c:	4c01                	li	s8,0
    1001002e:	4c81                	li	s9,0
    10010030:	4d01                	li	s10,0
    10010032:	4d81                	li	s11,0
    10010034:	4e01                	li	t3,0
    10010036:	4e81                	li	t4,0
    10010038:	4f01                	li	t5,0
    1001003a:	4f81                	li	t6,0
    1001003c:	00000297          	auipc	t0,0x0
    10010040:	01a28293          	addi	t0,t0,26 # 10010056 <error>
    10010044:	30529073          	csrw	mtvec,t0
    10010048:	00003117          	auipc	sp,0x3
    1001004c:	fb810113          	addi	sp,sp,-72 # 10013000 <stacks+0x1000>
    10010050:	9132                	add	sp,sp,a2
    10010052:	0f00006f          	j	10010142 <zzy>

0000000010010056 <error>:
    10010056:	34011173          	csrrw	sp,mscratch,sp
    1001005a:	00010863          	beqz	sp,1001006a <error+0x14>
    1001005e:	d42a                	sw	a0,40(sp)
    10010060:	d62e                	sw	a1,44(sp)
    10010062:	342025f3          	csrr	a1,mcause
    10010066:	0005d863          	bgez	a1,10010076 <error+0x20>
    1001006a:	34002173          	csrr	sp,mscratch
    1001006e:	7119                	addi	sp,sp,-128
    10010070:	d62e                	sw	a1,44(sp)
    10010072:	45b5                	li	a1,13
    10010074:	a009                	j	10010076 <error+0x20>
    10010076:	c206                	sw	ra,4(sp)
    10010078:	c60e                	sw	gp,12(sp)
    1001007a:	c812                	sw	tp,16(sp)
    1001007c:	ca16                	sw	t0,20(sp)
    1001007e:	00001297          	auipc	t0,0x1
    10010082:	cc1a                	sw	t1,24(sp)
    10010084:	00459313          	slli	t1,a1,0x4
    10010088:	ce1e                	sw	t2,28(sp)
    1001008a:	9316                	add	t1,t1,t0
    1001008c:	d022                	sw	s0,32(sp)
    1001008e:	f8232303          	lw	t1,-126(t1)
    10010092:	d226                	sw	s1,36(sp)
    10010094:	850a                	mv	a0,sp
    10010096:	d832                	sw	a2,48(sp)
    10010098:	34102673          	csrr	a2,mepc
    1001009c:	da36                	sw	a3,52(sp)
    1001009e:	340012f3          	csrrw	t0,mscratch,zero
    100100a2:	dc3a                	sw	a4,56(sp)
    100100a4:	de3e                	sw	a5,60(sp)
    100100a6:	c0c2                	sw	a6,64(sp)
    100100a8:	c2c6                	sw	a7,68(sp)
    100100aa:	c4ca                	sw	s2,72(sp)
    100100ac:	c6ce                	sw	s3,76(sp)
    100100ae:	c8d2                	sw	s4,80(sp)
    100100b0:	cad6                	sw	s5,84(sp)
    100100b2:	ccda                	sw	s6,88(sp)
    100100b4:	cede                	sw	s7,92(sp)
    100100b6:	d0e2                	sw	s8,96(sp)
    100100b8:	d2e6                	sw	s9,100(sp)
    100100ba:	d4ea                	sw	s10,104(sp)
    100100bc:	d6ee                	sw	s11,108(sp)
    100100be:	d8f2                	sw	t3,112(sp)
    100100c0:	daf6                	sw	t4,116(sp)
    100100c2:	dcfa                	sw	t5,120(sp)
    100100c4:	defe                	sw	t6,124(sp)
    100100c6:	c416                	sw	t0,8(sp)
    100100c8:	c002                	sw	zero,0(sp)
    100100ca:	9302                	jalr	t1
    100100cc:	34011073          	csrw	mscratch,sp
    100100d0:	4092                	lw	ra,4(sp)
    100100d2:	41b2                	lw	gp,12(sp)
    100100d4:	4242                	lw	tp,16(sp)
    100100d6:	42d2                	lw	t0,20(sp)
    100100d8:	4362                	lw	t1,24(sp)
    100100da:	43f2                	lw	t2,28(sp)
    100100dc:	5402                	lw	s0,32(sp)
    100100de:	5492                	lw	s1,36(sp)
    100100e0:	5522                	lw	a0,40(sp)
    100100e2:	55b2                	lw	a1,44(sp)
    100100e4:	5642                	lw	a2,48(sp)
    100100e6:	56d2                	lw	a3,52(sp)
    100100e8:	5762                	lw	a4,56(sp)
    100100ea:	57f2                	lw	a5,60(sp)
    100100ec:	4806                	lw	a6,64(sp)
    100100ee:	4896                	lw	a7,68(sp)
    100100f0:	4926                	lw	s2,72(sp)
    100100f2:	49b6                	lw	s3,76(sp)
    100100f4:	4a46                	lw	s4,80(sp)
    100100f6:	4ad6                	lw	s5,84(sp)
    100100f8:	4b66                	lw	s6,88(sp)
    100100fa:	4bf6                	lw	s7,92(sp)
    100100fc:	5c06                	lw	s8,96(sp)
    100100fe:	5c96                	lw	s9,100(sp)
    10010100:	5d26                	lw	s10,104(sp)
    10010102:	5db6                	lw	s11,108(sp)
    10010104:	5e46                	lw	t3,112(sp)
    10010106:	5ed6                	lw	t4,116(sp)
    10010108:	5f66                	lw	t5,120(sp)
    1001010a:	5ff6                	lw	t6,124(sp)
    1001010c:	4122                	lw	sp,8(sp)
    1001010e:	30200073          	mret
	...

0000000010010142 <zzy>:
    10010142:	1101                	addi	sp,sp,-32
    10010144:	ec22                	sd	s0,24(sp)
    10010146:	1000                	addi	s0,sp,32
    10010148:	4785                	li	a5,1
    1001014a:	fef42623          	sw	a5,-20(s0)
    1001014e:	4781                	li	a5,0
    10010150:	853e                	mv	a0,a5
    10010152:	6462                	ld	s0,24(sp)
    10010154:	6105                	addi	sp,sp,32
    10010156:	8082                	ret

0000000010010158 <error>:
    10010158:	1101                	addi	sp,sp,-32
    1001015a:	ec22                	sd	s0,24(sp)
    1001015c:	1000                	addi	s0,sp,32
    1001015e:	4785                	li	a5,1
    10010160:	fef42623          	sw	a5,-20(s0)
    10010164:	4781                	li	a5,0
    10010166:	853e                	mv	a0,a5
    10010168:	6462                	ld	s0,24(sp)
    1001016a:	6105                	addi	sp,sp,32
    1001016c:	8082                	ret

000000001001016e <bad_trap>:
    1001016e:	1101                	addi	sp,sp,-32
    10010170:	ec22                	sd	s0,24(sp)
    10010172:	1000                	addi	s0,sp,32
    10010174:	4785                	li	a5,1
    10010176:	fef42623          	sw	a5,-20(s0)
    1001017a:	0001                	nop
    1001017c:	6462                	ld	s0,24(sp)
    1001017e:	6105                	addi	sp,sp,32
    10010180:	8082                	ret

0000000010010182 <pmp_trap>:
    10010182:	1101                	addi	sp,sp,-32
    10010184:	ec22                	sd	s0,24(sp)
    10010186:	1000                	addi	s0,sp,32
    10010188:	4785                	li	a5,1
    1001018a:	fef42623          	sw	a5,-20(s0)
    1001018e:	0001                	nop
    10010190:	6462                	ld	s0,24(sp)
    10010192:	6105                	addi	sp,sp,32
    10010194:	8082                	ret
