
test:     file format elf64-littleriscv


Disassembly of section .text:

0000000010010000 <reset_vector>:
    10010000:	a009                	j	10010002 <do_reset>

0000000010010002 <do_reset>:
    10010002:	4081                	li	ra,0
    10010004:	4101                	li	sp,0
    10010006:	4181                	li	gp,0
    10010008:	4201                	li	tp,0
    1001000a:	4281                	li	t0,0
    1001000c:	4301                	li	t1,0
    1001000e:	4381                	li	t2,0
    10010010:	4401                	li	s0,0
    10010012:	4481                	li	s1,0
    10010014:	4601                	li	a2,0
    10010016:	4681                	li	a3,0
    10010018:	4701                	li	a4,0
    1001001a:	4781                	li	a5,0
    1001001c:	4801                	li	a6,0
    1001001e:	4881                	li	a7,0
    10010020:	4901                	li	s2,0
    10010022:	4981                	li	s3,0
    10010024:	4a01                	li	s4,0
    10010026:	4a81                	li	s5,0
    10010028:	4b01                	li	s6,0
    1001002a:	4b81                	li	s7,0
    1001002c:	4c01                	li	s8,0
    1001002e:	4c81                	li	s9,0
    10010030:	4d01                	li	s10,0
    10010032:	4d81                	li	s11,0
    10010034:	4e01                	li	t3,0
    10010036:	4e81                	li	t4,0
    10010038:	4f01                	li	t5,0
    1001003a:	4f81                	li	t6,0
    1001003c:	00000297          	auipc	t0,0x0
    10010040:	05c28293          	addi	t0,t0,92 # 10010098 <error>
    10010044:	30529073          	csrw	mtvec,t0
    10010048:	00001117          	auipc	sp,0x1
    1001004c:	07810113          	addi	sp,sp,120 # 100110c0 <stacks+0x1000>
    10010050:	9132                	add	sp,sp,a2
    10010052:	0300006f          	j	10010082 <zzy>
	...

0000000010010082 <zzy>:
    10010082:	1101                	addi	sp,sp,-32
    10010084:	ec22                	sd	s0,24(sp)
    10010086:	1000                	addi	s0,sp,32
    10010088:	4785                	li	a5,1
    1001008a:	fef42623          	sw	a5,-20(s0)
    1001008e:	4781                	li	a5,0
    10010090:	853e                	mv	a0,a5
    10010092:	6462                	ld	s0,24(sp)
    10010094:	6105                	addi	sp,sp,32
    10010096:	8082                	ret

0000000010010098 <error>:
    10010098:	1101                	addi	sp,sp,-32
    1001009a:	ec22                	sd	s0,24(sp)
    1001009c:	1000                	addi	s0,sp,32
    1001009e:	4785                	li	a5,1
    100100a0:	fef42623          	sw	a5,-20(s0)
    100100a4:	4781                	li	a5,0
    100100a6:	853e                	mv	a0,a5
    100100a8:	6462                	ld	s0,24(sp)
    100100aa:	6105                	addi	sp,sp,32
    100100ac:	8082                	ret
