
test2：     文件格式 elf64-littleriscv


Disassembly of section .text:

00000000000100b0 <_start>:
   100b0:	00002197          	auipc	gp,0x2
   100b4:	bd018193          	addi	gp,gp,-1072 # 11c80 <__global_pointer$>
   100b8:	f6018513          	addi	a0,gp,-160 # 11be0 <_edata>
   100bc:	f9818613          	addi	a2,gp,-104 # 11c18 <__BSS_END__>
   100c0:	8e09                	sub	a2,a2,a0
   100c2:	4581                	li	a1,0
   100c4:	194000ef          	jal	ra,10258 <memset>
   100c8:	00000517          	auipc	a0,0x0
   100cc:	0f250513          	addi	a0,a0,242 # 101ba <__libc_fini_array>
   100d0:	0c2000ef          	jal	ra,10192 <atexit>
   100d4:	11a000ef          	jal	ra,101ee <__libc_init_array>
   100d8:	4502                	lw	a0,0(sp)
   100da:	002c                	addi	a1,sp,8
   100dc:	4601                	li	a2,0
   100de:	0a0000ef          	jal	ra,1017e <main>
   100e2:	a86d                	j	1019c <exit>

00000000000100e4 <deregister_tm_clones>:
   100e4:	f4818793          	addi	a5,gp,-184 # 11bc8 <_global_impure_ptr>
   100e8:	f4818713          	addi	a4,gp,-184 # 11bc8 <_global_impure_ptr>
   100ec:	00f70963          	beq	a4,a5,100fe <deregister_tm_clones+0x1a>
   100f0:	00000313          	li	t1,0
   100f4:	00030563          	beqz	t1,100fe <deregister_tm_clones+0x1a>
   100f8:	f4818513          	addi	a0,gp,-184 # 11bc8 <_global_impure_ptr>
   100fc:	8302                	jr	t1
   100fe:	8082                	ret

0000000000010100 <register_tm_clones>:
   10100:	f4818593          	addi	a1,gp,-184 # 11bc8 <_global_impure_ptr>
   10104:	f4818793          	addi	a5,gp,-184 # 11bc8 <_global_impure_ptr>
   10108:	8f8d                	sub	a5,a5,a1
   1010a:	4037d713          	srai	a4,a5,0x3
   1010e:	03f7d593          	srli	a1,a5,0x3f
   10112:	95ba                	add	a1,a1,a4
   10114:	8585                	srai	a1,a1,0x1
   10116:	c981                	beqz	a1,10126 <register_tm_clones+0x26>
   10118:	00000313          	li	t1,0
   1011c:	00030563          	beqz	t1,10126 <register_tm_clones+0x26>
   10120:	f4818513          	addi	a0,gp,-184 # 11bc8 <_global_impure_ptr>
   10124:	8302                	jr	t1
   10126:	8082                	ret

0000000000010128 <__do_global_dtors_aux>:
   10128:	1141                	addi	sp,sp,-16
   1012a:	e022                	sd	s0,0(sp)
   1012c:	f601c783          	lbu	a5,-160(gp) # 11be0 <_edata>
   10130:	e406                	sd	ra,8(sp)
   10132:	e385                	bnez	a5,10152 <__do_global_dtors_aux+0x2a>
   10134:	fb1ff0ef          	jal	ra,100e4 <deregister_tm_clones>
   10138:	00000793          	li	a5,0
   1013c:	cb81                	beqz	a5,1014c <__do_global_dtors_aux+0x24>
   1013e:	6545                	lui	a0,0x11
   10140:	46c50513          	addi	a0,a0,1132 # 1146c <__FRAME_END__>
   10144:	00000097          	auipc	ra,0x0
   10148:	000000e7          	jalr	zero # 0 <_start-0x100b0>
   1014c:	4785                	li	a5,1
   1014e:	f6f18023          	sb	a5,-160(gp) # 11be0 <_edata>
   10152:	60a2                	ld	ra,8(sp)
   10154:	6402                	ld	s0,0(sp)
   10156:	0141                	addi	sp,sp,16
   10158:	8082                	ret

000000000001015a <frame_dummy>:
   1015a:	00000793          	li	a5,0
   1015e:	cf99                	beqz	a5,1017c <frame_dummy+0x22>
   10160:	6545                	lui	a0,0x11
   10162:	1141                	addi	sp,sp,-16
   10164:	f6818593          	addi	a1,gp,-152 # 11be8 <object.3369>
   10168:	46c50513          	addi	a0,a0,1132 # 1146c <__FRAME_END__>
   1016c:	e406                	sd	ra,8(sp)
   1016e:	00000097          	auipc	ra,0x0
   10172:	000000e7          	jalr	zero # 0 <_start-0x100b0>
   10176:	60a2                	ld	ra,8(sp)
   10178:	0141                	addi	sp,sp,16
   1017a:	b759                	j	10100 <register_tm_clones>
   1017c:	b751                	j	10100 <register_tm_clones>

000000000001017e <main>:
   1017e:	1101                	addi	sp,sp,-32
   10180:	ec22                	sd	s0,24(sp)
   10182:	1000                	addi	s0,sp,32
   10184:	4789                	li	a5,2
   10186:	fef42623          	sw	a5,-20(s0)
   1018a:	0001                	nop
   1018c:	6462                	ld	s0,24(sp)
   1018e:	6105                	addi	sp,sp,32
   10190:	8082                	ret

0000000000010192 <atexit>:
   10192:	85aa                	mv	a1,a0
   10194:	4681                	li	a3,0
   10196:	4601                	li	a2,0
   10198:	4501                	li	a0,0
   1019a:	a2a5                	j	10302 <__register_exitproc>

000000000001019c <exit>:
   1019c:	1141                	addi	sp,sp,-16
   1019e:	4581                	li	a1,0
   101a0:	e022                	sd	s0,0(sp)
   101a2:	e406                	sd	ra,8(sp)
   101a4:	842a                	mv	s0,a0
   101a6:	1d2000ef          	jal	ra,10378 <__call_exitprocs>
   101aa:	f481b503          	ld	a0,-184(gp) # 11bc8 <_global_impure_ptr>
   101ae:	6d3c                	ld	a5,88(a0)
   101b0:	c391                	beqz	a5,101b4 <exit+0x18>
   101b2:	9782                	jalr	a5
   101b4:	8522                	mv	a0,s0
   101b6:	284000ef          	jal	ra,1043a <_exit>

00000000000101ba <__libc_fini_array>:
   101ba:	1101                	addi	sp,sp,-32
   101bc:	e822                	sd	s0,16(sp)
   101be:	67c5                	lui	a5,0x11
   101c0:	6445                	lui	s0,0x11
   101c2:	47840413          	addi	s0,s0,1144 # 11478 <__init_array_end>
   101c6:	48078793          	addi	a5,a5,1152 # 11480 <__fini_array_end>
   101ca:	8f81                	sub	a5,a5,s0
   101cc:	e426                	sd	s1,8(sp)
   101ce:	ec06                	sd	ra,24(sp)
   101d0:	4037d493          	srai	s1,a5,0x3
   101d4:	c881                	beqz	s1,101e4 <__libc_fini_array+0x2a>
   101d6:	17e1                	addi	a5,a5,-8
   101d8:	943e                	add	s0,s0,a5
   101da:	601c                	ld	a5,0(s0)
   101dc:	14fd                	addi	s1,s1,-1
   101de:	1461                	addi	s0,s0,-8
   101e0:	9782                	jalr	a5
   101e2:	fce5                	bnez	s1,101da <__libc_fini_array+0x20>
   101e4:	60e2                	ld	ra,24(sp)
   101e6:	6442                	ld	s0,16(sp)
   101e8:	64a2                	ld	s1,8(sp)
   101ea:	6105                	addi	sp,sp,32
   101ec:	8082                	ret

00000000000101ee <__libc_init_array>:
   101ee:	1101                	addi	sp,sp,-32
   101f0:	e822                	sd	s0,16(sp)
   101f2:	e04a                	sd	s2,0(sp)
   101f4:	6445                	lui	s0,0x11
   101f6:	6945                	lui	s2,0x11
   101f8:	47040793          	addi	a5,s0,1136 # 11470 <__frame_dummy_init_array_entry>
   101fc:	47090913          	addi	s2,s2,1136 # 11470 <__frame_dummy_init_array_entry>
   10200:	40f90933          	sub	s2,s2,a5
   10204:	ec06                	sd	ra,24(sp)
   10206:	e426                	sd	s1,8(sp)
   10208:	40395913          	srai	s2,s2,0x3
   1020c:	00090b63          	beqz	s2,10222 <__libc_init_array+0x34>
   10210:	47040413          	addi	s0,s0,1136
   10214:	4481                	li	s1,0
   10216:	601c                	ld	a5,0(s0)
   10218:	0485                	addi	s1,s1,1
   1021a:	0421                	addi	s0,s0,8
   1021c:	9782                	jalr	a5
   1021e:	fe991ce3          	bne	s2,s1,10216 <__libc_init_array+0x28>
   10222:	6445                	lui	s0,0x11
   10224:	6945                	lui	s2,0x11
   10226:	47040793          	addi	a5,s0,1136 # 11470 <__frame_dummy_init_array_entry>
   1022a:	47890913          	addi	s2,s2,1144 # 11478 <__init_array_end>
   1022e:	40f90933          	sub	s2,s2,a5
   10232:	40395913          	srai	s2,s2,0x3
   10236:	00090b63          	beqz	s2,1024c <__libc_init_array+0x5e>
   1023a:	47040413          	addi	s0,s0,1136
   1023e:	4481                	li	s1,0
   10240:	601c                	ld	a5,0(s0)
   10242:	0485                	addi	s1,s1,1
   10244:	0421                	addi	s0,s0,8
   10246:	9782                	jalr	a5
   10248:	fe991ce3          	bne	s2,s1,10240 <__libc_init_array+0x52>
   1024c:	60e2                	ld	ra,24(sp)
   1024e:	6442                	ld	s0,16(sp)
   10250:	64a2                	ld	s1,8(sp)
   10252:	6902                	ld	s2,0(sp)
   10254:	6105                	addi	sp,sp,32
   10256:	8082                	ret

0000000000010258 <memset>:
   10258:	433d                	li	t1,15
   1025a:	872a                	mv	a4,a0
   1025c:	02c37163          	bgeu	t1,a2,1027e <memset+0x26>
   10260:	00f77793          	andi	a5,a4,15
   10264:	e3c1                	bnez	a5,102e4 <memset+0x8c>
   10266:	e1bd                	bnez	a1,102cc <memset+0x74>
   10268:	ff067693          	andi	a3,a2,-16
   1026c:	8a3d                	andi	a2,a2,15
   1026e:	96ba                	add	a3,a3,a4
   10270:	e30c                	sd	a1,0(a4)
   10272:	e70c                	sd	a1,8(a4)
   10274:	0741                	addi	a4,a4,16
   10276:	fed76de3          	bltu	a4,a3,10270 <memset+0x18>
   1027a:	e211                	bnez	a2,1027e <memset+0x26>
   1027c:	8082                	ret
   1027e:	40c306b3          	sub	a3,t1,a2
   10282:	068a                	slli	a3,a3,0x2
   10284:	00000297          	auipc	t0,0x0
   10288:	9696                	add	a3,a3,t0
   1028a:	00a68067          	jr	10(a3)
   1028e:	00b70723          	sb	a1,14(a4)
   10292:	00b706a3          	sb	a1,13(a4)
   10296:	00b70623          	sb	a1,12(a4)
   1029a:	00b705a3          	sb	a1,11(a4)
   1029e:	00b70523          	sb	a1,10(a4)
   102a2:	00b704a3          	sb	a1,9(a4)
   102a6:	00b70423          	sb	a1,8(a4)
   102aa:	00b703a3          	sb	a1,7(a4)
   102ae:	00b70323          	sb	a1,6(a4)
   102b2:	00b702a3          	sb	a1,5(a4)
   102b6:	00b70223          	sb	a1,4(a4)
   102ba:	00b701a3          	sb	a1,3(a4)
   102be:	00b70123          	sb	a1,2(a4)
   102c2:	00b700a3          	sb	a1,1(a4)
   102c6:	00b70023          	sb	a1,0(a4)
   102ca:	8082                	ret
   102cc:	0ff5f593          	andi	a1,a1,255
   102d0:	00859693          	slli	a3,a1,0x8
   102d4:	8dd5                	or	a1,a1,a3
   102d6:	01059693          	slli	a3,a1,0x10
   102da:	8dd5                	or	a1,a1,a3
   102dc:	02059693          	slli	a3,a1,0x20
   102e0:	8dd5                	or	a1,a1,a3
   102e2:	b759                	j	10268 <memset+0x10>
   102e4:	00279693          	slli	a3,a5,0x2
   102e8:	00000297          	auipc	t0,0x0
   102ec:	9696                	add	a3,a3,t0
   102ee:	8286                	mv	t0,ra
   102f0:	fa2680e7          	jalr	-94(a3)
   102f4:	8096                	mv	ra,t0
   102f6:	17c1                	addi	a5,a5,-16
   102f8:	8f1d                	sub	a4,a4,a5
   102fa:	963e                	add	a2,a2,a5
   102fc:	f8c371e3          	bgeu	t1,a2,1027e <memset+0x26>
   10300:	b79d                	j	10266 <memset+0xe>

0000000000010302 <__register_exitproc>:
   10302:	f481b703          	ld	a4,-184(gp) # 11bc8 <_global_impure_ptr>
   10306:	1f873783          	ld	a5,504(a4)
   1030a:	c3b1                	beqz	a5,1034e <__register_exitproc+0x4c>
   1030c:	4798                	lw	a4,8(a5)
   1030e:	487d                	li	a6,31
   10310:	06e84263          	blt	a6,a4,10374 <__register_exitproc+0x72>
   10314:	c505                	beqz	a0,1033c <__register_exitproc+0x3a>
   10316:	00371813          	slli	a6,a4,0x3
   1031a:	983e                	add	a6,a6,a5
   1031c:	10c83823          	sd	a2,272(a6)
   10320:	3107a883          	lw	a7,784(a5)
   10324:	4605                	li	a2,1
   10326:	00e6163b          	sllw	a2,a2,a4
   1032a:	00c8e8b3          	or	a7,a7,a2
   1032e:	3117a823          	sw	a7,784(a5)
   10332:	20d83823          	sd	a3,528(a6)
   10336:	4689                	li	a3,2
   10338:	02d50063          	beq	a0,a3,10358 <__register_exitproc+0x56>
   1033c:	00270693          	addi	a3,a4,2
   10340:	068e                	slli	a3,a3,0x3
   10342:	2705                	addiw	a4,a4,1
   10344:	c798                	sw	a4,8(a5)
   10346:	97b6                	add	a5,a5,a3
   10348:	e38c                	sd	a1,0(a5)
   1034a:	4501                	li	a0,0
   1034c:	8082                	ret
   1034e:	20070793          	addi	a5,a4,512
   10352:	1ef73c23          	sd	a5,504(a4)
   10356:	bf5d                	j	1030c <__register_exitproc+0xa>
   10358:	3147a683          	lw	a3,788(a5)
   1035c:	4501                	li	a0,0
   1035e:	8e55                	or	a2,a2,a3
   10360:	00270693          	addi	a3,a4,2
   10364:	068e                	slli	a3,a3,0x3
   10366:	2705                	addiw	a4,a4,1
   10368:	30c7aa23          	sw	a2,788(a5)
   1036c:	c798                	sw	a4,8(a5)
   1036e:	97b6                	add	a5,a5,a3
   10370:	e38c                	sd	a1,0(a5)
   10372:	8082                	ret
   10374:	557d                	li	a0,-1
   10376:	8082                	ret

0000000000010378 <__call_exitprocs>:
   10378:	715d                	addi	sp,sp,-80
   1037a:	f052                	sd	s4,32(sp)
   1037c:	f481ba03          	ld	s4,-184(gp) # 11bc8 <_global_impure_ptr>
   10380:	f84a                	sd	s2,48(sp)
   10382:	e486                	sd	ra,72(sp)
   10384:	1f8a3903          	ld	s2,504(s4)
   10388:	e0a2                	sd	s0,64(sp)
   1038a:	fc26                	sd	s1,56(sp)
   1038c:	f44e                	sd	s3,40(sp)
   1038e:	ec56                	sd	s5,24(sp)
   10390:	e85a                	sd	s6,16(sp)
   10392:	e45e                	sd	s7,8(sp)
   10394:	e062                	sd	s8,0(sp)
   10396:	02090863          	beqz	s2,103c6 <__call_exitprocs+0x4e>
   1039a:	8b2a                	mv	s6,a0
   1039c:	8bae                	mv	s7,a1
   1039e:	4a85                	li	s5,1
   103a0:	59fd                	li	s3,-1
   103a2:	00892483          	lw	s1,8(s2)
   103a6:	fff4841b          	addiw	s0,s1,-1
   103aa:	00044e63          	bltz	s0,103c6 <__call_exitprocs+0x4e>
   103ae:	048e                	slli	s1,s1,0x3
   103b0:	94ca                	add	s1,s1,s2
   103b2:	020b8663          	beqz	s7,103de <__call_exitprocs+0x66>
   103b6:	2084b783          	ld	a5,520(s1)
   103ba:	03778263          	beq	a5,s7,103de <__call_exitprocs+0x66>
   103be:	347d                	addiw	s0,s0,-1
   103c0:	14e1                	addi	s1,s1,-8
   103c2:	ff3418e3          	bne	s0,s3,103b2 <__call_exitprocs+0x3a>
   103c6:	60a6                	ld	ra,72(sp)
   103c8:	6406                	ld	s0,64(sp)
   103ca:	74e2                	ld	s1,56(sp)
   103cc:	7942                	ld	s2,48(sp)
   103ce:	79a2                	ld	s3,40(sp)
   103d0:	7a02                	ld	s4,32(sp)
   103d2:	6ae2                	ld	s5,24(sp)
   103d4:	6b42                	ld	s6,16(sp)
   103d6:	6ba2                	ld	s7,8(sp)
   103d8:	6c02                	ld	s8,0(sp)
   103da:	6161                	addi	sp,sp,80
   103dc:	8082                	ret
   103de:	00892783          	lw	a5,8(s2)
   103e2:	6498                	ld	a4,8(s1)
   103e4:	37fd                	addiw	a5,a5,-1
   103e6:	04878463          	beq	a5,s0,1042e <__call_exitprocs+0xb6>
   103ea:	0004b423          	sd	zero,8(s1)
   103ee:	db61                	beqz	a4,103be <__call_exitprocs+0x46>
   103f0:	31092783          	lw	a5,784(s2)
   103f4:	008a96bb          	sllw	a3,s5,s0
   103f8:	00892c03          	lw	s8,8(s2)
   103fc:	8ff5                	and	a5,a5,a3
   103fe:	2781                	sext.w	a5,a5
   10400:	ef89                	bnez	a5,1041a <__call_exitprocs+0xa2>
   10402:	9702                	jalr	a4
   10404:	00892703          	lw	a4,8(s2)
   10408:	1f8a3783          	ld	a5,504(s4)
   1040c:	01871463          	bne	a4,s8,10414 <__call_exitprocs+0x9c>
   10410:	faf907e3          	beq	s2,a5,103be <__call_exitprocs+0x46>
   10414:	dbcd                	beqz	a5,103c6 <__call_exitprocs+0x4e>
   10416:	893e                	mv	s2,a5
   10418:	b769                	j	103a2 <__call_exitprocs+0x2a>
   1041a:	31492783          	lw	a5,788(s2)
   1041e:	1084b583          	ld	a1,264(s1)
   10422:	8ff5                	and	a5,a5,a3
   10424:	2781                	sext.w	a5,a5
   10426:	e799                	bnez	a5,10434 <__call_exitprocs+0xbc>
   10428:	855a                	mv	a0,s6
   1042a:	9702                	jalr	a4
   1042c:	bfe1                	j	10404 <__call_exitprocs+0x8c>
   1042e:	00892423          	sw	s0,8(s2)
   10432:	bf75                	j	103ee <__call_exitprocs+0x76>
   10434:	852e                	mv	a0,a1
   10436:	9702                	jalr	a4
   10438:	b7f1                	j	10404 <__call_exitprocs+0x8c>

000000000001043a <_exit>:
   1043a:	4581                	li	a1,0
   1043c:	4601                	li	a2,0
   1043e:	4681                	li	a3,0
   10440:	4701                	li	a4,0
   10442:	4781                	li	a5,0
   10444:	05d00893          	li	a7,93
   10448:	00000073          	ecall
   1044c:	00054363          	bltz	a0,10452 <_exit+0x18>
   10450:	a001                	j	10450 <_exit+0x16>
   10452:	1141                	addi	sp,sp,-16
   10454:	e022                	sd	s0,0(sp)
   10456:	842a                	mv	s0,a0
   10458:	e406                	sd	ra,8(sp)
   1045a:	4080043b          	negw	s0,s0
   1045e:	008000ef          	jal	ra,10466 <__errno>
   10462:	c100                	sw	s0,0(a0)
   10464:	a001                	j	10464 <_exit+0x2a>

0000000000010466 <__errno>:
   10466:	f581b503          	ld	a0,-168(gp) # 11bd8 <_impure_ptr>
   1046a:	8082                	ret

Disassembly of section .eh_frame:

000000000001146c <__FRAME_END__>:
   1146c:	0000                	unimp
	...

Disassembly of section .init_array:

0000000000011470 <__frame_dummy_init_array_entry>:
   11470:	015a                	slli	sp,sp,0x16
   11472:	0001                	nop
   11474:	0000                	unimp
	...

Disassembly of section .fini_array:

0000000000011478 <__do_global_dtors_aux_fini_array_entry>:
   11478:	0128                	addi	a0,sp,136
   1147a:	0001                	nop
   1147c:	0000                	unimp
	...

Disassembly of section .data:

0000000000011480 <__DATA_BEGIN__>:
	...
   11488:	19b8                	addi	a4,sp,248
   1148a:	0001                	nop
   1148c:	0000                	unimp
   1148e:	0000                	unimp
   11490:	1a68                	addi	a0,sp,316
   11492:	0001                	nop
   11494:	0000                	unimp
   11496:	0000                	unimp
   11498:	1b18                	addi	a4,sp,432
   1149a:	0001                	nop
	...
   11568:	0001                	nop
   1156a:	0000                	unimp
   1156c:	0000                	unimp
   1156e:	0000                	unimp
   11570:	330e                	fld	ft6,224(sp)
   11572:	abcd                	j	11b64 <__DATA_BEGIN__+0x6e4>
   11574:	1234                	addi	a3,sp,296
   11576:	e66d                	bnez	a2,11660 <__DATA_BEGIN__+0x1e0>
   11578:	deec                	sw	a1,124(a3)
   1157a:	0005                	c.nop	1
   1157c:	0000000b          	0xb
	...

Disassembly of section .sdata:

0000000000011bc8 <_global_impure_ptr>:
   11bc8:	1480                	addi	s0,sp,608
   11bca:	0001                	nop
   11bcc:	0000                	unimp
	...

0000000000011bd0 <__dso_handle>:
	...

0000000000011bd8 <_impure_ptr>:
   11bd8:	1480                	addi	s0,sp,608
   11bda:	0001                	nop
   11bdc:	0000                	unimp
	...

Disassembly of section .bss:

0000000000011be0 <__bss_start>:
	...

0000000000011be8 <object.3369>:
	...

Disassembly of section .comment:

0000000000000000 <.comment>:
   0:	3a434347          	fmsub.d	ft6,ft6,ft4,ft7,rmm
   4:	2820                	fld	fs0,80(s0)
   6:	29554e47          	fmsub.s	ft8,fa0,fs5,ft5,rmm
   a:	3920                	fld	fs0,112(a0)
   c:	322e                	fld	ft4,232(sp)
   e:	302e                	fld	ft0,232(sp)
	...

Disassembly of section .riscv.attributes:

0000000000000000 <.riscv.attributes>:
   0:	3441                	addiw	s0,s0,-16
   2:	0000                	unimp
   4:	7200                	ld	s0,32(a2)
   6:	7369                	lui	t1,0xffffa
   8:	01007663          	bgeu	zero,a6,14 <_start-0x1009c>
   c:	002a                	c.slli	zero,0xa
   e:	0000                	unimp
  10:	1004                	addi	s1,sp,32
  12:	7205                	lui	tp,0xfffe1
  14:	3676                	fld	fa2,376(sp)
  16:	6934                	ld	a3,80(a0)
  18:	7032                	0x7032
  1a:	5f30                	lw	a2,120(a4)
  1c:	326d                	addiw	tp,tp,-5
  1e:	3070                	fld	fa2,224(s0)
  20:	615f 7032 5f30      	0x5f307032615f
  26:	3266                	fld	ft4,120(sp)
  28:	3070                	fld	fa2,224(s0)
  2a:	645f 7032 5f30      	0x5f307032645f
  30:	30703263          	0x30703263
	...

Disassembly of section .debug_aranges:

0000000000000000 <.debug_aranges>:
   0:	002c                	addi	a1,sp,8
   2:	0000                	unimp
   4:	0002                	c.slli64	zero
   6:	0000                	unimp
   8:	0000                	unimp
   a:	0008                	0x8
   c:	0000                	unimp
   e:	0000                	unimp
  10:	00b0                	addi	a2,sp,72
  12:	0001                	nop
  14:	0000                	unimp
  16:	0000                	unimp
  18:	0034                	addi	a3,sp,8
	...
  2e:	0000                	unimp
  30:	002c                	addi	a1,sp,8
  32:	0000                	unimp
  34:	0002                	c.slli64	zero
  36:	002e                	c.slli	zero,0xb
  38:	0000                	unimp
  3a:	0008                	0x8
  3c:	0000                	unimp
  3e:	0000                	unimp
  40:	0192                	slli	gp,gp,0x4
  42:	0001                	nop
  44:	0000                	unimp
  46:	0000                	unimp
  48:	000a                	c.slli	zero,0x2
	...
  5e:	0000                	unimp
  60:	002c                	addi	a1,sp,8
  62:	0000                	unimp
  64:	0002                	c.slli64	zero
  66:	000009e3          	beqz	zero,878 <_start-0xf838>
  6a:	0008                	0x8
  6c:	0000                	unimp
  6e:	0000                	unimp
  70:	019c                	addi	a5,sp,192
  72:	0001                	nop
  74:	0000                	unimp
  76:	0000                	unimp
  78:	001e                	c.slli	zero,0x7
	...
  8e:	0000                	unimp
  90:	002c                	addi	a1,sp,8
  92:	0000                	unimp
  94:	0002                	c.slli64	zero
  96:	000013d7          	0x13d7
  9a:	0008                	0x8
  9c:	0000                	unimp
  9e:	0000                	unimp
  a0:	01ba                	slli	gp,gp,0xe
  a2:	0001                	nop
  a4:	0000                	unimp
  a6:	0000                	unimp
  a8:	0034                	addi	a3,sp,8
	...
  be:	0000                	unimp
  c0:	001c                	0x1c
  c2:	0000                	unimp
  c4:	0002                	c.slli64	zero
  c6:	14c1                	addi	s1,s1,-16
  c8:	0000                	unimp
  ca:	0008                	0x8
	...
  e0:	002c                	addi	a1,sp,8
  e2:	0000                	unimp
  e4:	0002                	c.slli64	zero
  e6:	00001e07          	0x1e07
  ea:	0008                	0x8
  ec:	0000                	unimp
  ee:	0000                	unimp
  f0:	01ee                	slli	gp,gp,0x1b
  f2:	0001                	nop
  f4:	0000                	unimp
  f6:	0000                	unimp
  f8:	006a                	c.slli	zero,0x1a
	...
 10e:	0000                	unimp
 110:	002c                	addi	a1,sp,8
 112:	0000                	unimp
 114:	0002                	c.slli64	zero
 116:	1f09                	addi	t5,t5,-30
 118:	0000                	unimp
 11a:	0008                	0x8
 11c:	0000                	unimp
 11e:	0000                	unimp
 120:	0258                	addi	a4,sp,260
 122:	0001                	nop
 124:	0000                	unimp
 126:	0000                	unimp
 128:	00aa                	slli	ra,ra,0xa
	...
 13e:	0000                	unimp
 140:	002c                	addi	a1,sp,8
 142:	0000                	unimp
 144:	0002                	c.slli64	zero
 146:	00001f37          	lui	t5,0x1
 14a:	0008                	0x8
 14c:	0000                	unimp
 14e:	0000                	unimp
 150:	0302                	c.slli64	t1
 152:	0001                	nop
 154:	0000                	unimp
 156:	0000                	unimp
 158:	0076                	c.slli	zero,0x1d
	...
 16e:	0000                	unimp
 170:	002c                	addi	a1,sp,8
 172:	0000                	unimp
 174:	0002                	c.slli64	zero
 176:	2918                	fld	fa4,16(a0)
 178:	0000                	unimp
 17a:	0008                	0x8
 17c:	0000                	unimp
 17e:	0000                	unimp
 180:	0378                	addi	a4,sp,396
 182:	0001                	nop
 184:	0000                	unimp
 186:	0000                	unimp
 188:	00c2                	slli	ra,ra,0x10
	...
 19e:	0000                	unimp
 1a0:	002c                	addi	a1,sp,8
 1a2:	0000                	unimp
 1a4:	0002                	c.slli64	zero
 1a6:	00003323          	sd	zero,6(zero) # 6 <_start-0x100aa>
 1aa:	0008                	0x8
 1ac:	0000                	unimp
 1ae:	0000                	unimp
 1b0:	043a                	slli	s0,s0,0xe
 1b2:	0001                	nop
 1b4:	0000                	unimp
 1b6:	0000                	unimp
 1b8:	002c                	addi	a1,sp,8
	...
 1ce:	0000                	unimp
 1d0:	002c                	addi	a1,sp,8
 1d2:	0000                	unimp
 1d4:	0002                	c.slli64	zero
 1d6:	3f06                	fld	ft10,96(sp)
 1d8:	0000                	unimp
 1da:	0008                	0x8
 1dc:	0000                	unimp
 1de:	0000                	unimp
 1e0:	0466                	slli	s0,s0,0x19
 1e2:	0001                	nop
 1e4:	0000                	unimp
 1e6:	0000                	unimp
 1e8:	0006                	c.slli	zero,0x1
	...

Disassembly of section .debug_info:

0000000000000000 <.debug_info>:
       0:	002a                	c.slli	zero,0xa
       2:	0000                	unimp
       4:	0002                	c.slli64	zero
       6:	0000                	unimp
       8:	0000                	unimp
       a:	0108                	addi	a0,sp,128
       c:	0000                	unimp
       e:	0000                	unimp
      10:	00b0                	addi	a2,sp,72
      12:	0001                	nop
      14:	0000                	unimp
      16:	0000                	unimp
      18:	00e4                	addi	s1,sp,76
      1a:	0001                	nop
	...
      24:	0000003b          	addw	zero,zero,zero
      28:	00a1                	addi	ra,ra,8
      2a:	0000                	unimp
      2c:	8001                	c.srli64	s0
      2e:	09b1                	addi	s3,s3,12
      30:	0000                	unimp
      32:	0004                	0x4
      34:	0014                	0x14
      36:	0000                	unimp
      38:	0108                	addi	a0,sp,128
      3a:	0000019b          	sext.w	gp,zero
      3e:	c20c                	sw	a1,0(a2)
      40:	0000                	unimp
      42:	8700                	0x8700
      44:	92000003          	lb	zero,-1760(zero) # fffffffffffff920 <__global_pointer$+0xfffffffffffedca0>
      48:	0101                	addi	sp,sp,0
      4a:	0000                	unimp
      4c:	0000                	unimp
      4e:	0a00                	addi	s0,sp,272
      50:	0000                	unimp
      52:	0000                	unimp
      54:	0000                	unimp
      56:	c300                	sw	s0,0(a4)
      58:	0000                	unimp
      5a:	0200                	addi	s0,sp,256
      5c:	0708                	addi	a0,sp,896
      5e:	0000013b          	addw	sp,zero,zero
      62:	69050403          	lb	s0,1680(a0)
      66:	746e                	ld	s0,248(sp)
      68:	0200                	addi	s0,sp,256
      6a:	0508                	addi	a0,sp,640
      6c:	018c                	addi	a1,sp,192
      6e:	0000                	unimp
      70:	0802                	c.slli64	a6
      72:	8705                	srai	a4,a4,0x1
      74:	0001                	nop
      76:	0200                	addi	s0,sp,256
      78:	0410                	addi	a2,sp,512
      7a:	0374                	addi	a3,sp,396
      7c:	0000                	unimp
      7e:	4504                	lw	s1,8(a0)
      80:	02000003          	lb	zero,32(zero) # 20 <_start-0x10090>
      84:	015e                	slli	sp,sp,0x17
      86:	00005d17          	auipc	s10,0x5
      8a:	0200                	addi	s0,sp,256
      8c:	0704                	addi	s1,sp,896
      8e:	0140                	addi	s0,sp,132
      90:	0000                	unimp
      92:	0102                	c.slli64	sp
      94:	3d06                	fld	fs10,96(sp)
      96:	0004                	0x4
      98:	0200                	addi	s0,sp,256
      9a:	0801                	addi	a6,a6,0
      9c:	0000043b          	addw	s0,zero,zero
      a0:	0202                	c.slli64	tp
      a2:	5705                	li	a4,-31
      a4:	0004                	0x4
      a6:	0200                	addi	s0,sp,256
      a8:	0702                	c.slli64	a4
      aa:	0302                	c.slli64	t1
      ac:	0000                	unimp
      ae:	0f05                	addi	t5,t5,1
      b0:	0004                	0x4
      b2:	0300                	addi	s0,sp,384
      b4:	0e2e                	slli	t3,t3,0xb
      b6:	0000003b          	addw	zero,zero,zero
      ba:	1305                	addi	t1,t1,-31
      bc:	0005                	c.nop	1
      be:	0300                	addi	s0,sp,384
      c0:	0e74                	addi	a3,sp,796
      c2:	0000003b          	addw	zero,zero,zero
      c6:	a705                	j	7e6 <_start-0xf8ca>
      c8:	0005                	c.nop	1
      ca:	0300                	addi	s0,sp,384
      cc:	003b1793          	slli	a5,s6,0x3
      d0:	0000                	unimp
      d2:	0406                	slli	s0,s0,0x1
      d4:	c603a503          	lw	a0,-928(t2)
      d8:	0000                	unimp
      da:	0700                	addi	s0,sp,896
      dc:	0000033f 500ca703 	0x500ca7030000033f
      e4:	0000                	unimp
      e6:	0700                	addi	s0,sp,896
      e8:	02de                	slli	t0,t0,0x17
      ea:	0000                	unimp
      ec:	c613a803          	lw	a6,-927(t2)
      f0:	0000                	unimp
      f2:	0000                	unimp
      f4:	6b08                	ld	a0,16(a4)
      f6:	0000                	unimp
      f8:	d600                	sw	s0,40(a2)
      fa:	0000                	unimp
      fc:	0900                	addi	s0,sp,144
      fe:	002d                	c.nop	11
     100:	0000                	unimp
     102:	080a0003          	lb	zero,128(s4)
     106:	fa09a203          	lw	tp,-96(s3)
     10a:	0000                	unimp
     10c:	0b00                	addi	s0,sp,400
     10e:	04fd                	addi	s1,s1,31
     110:	0000                	unimp
     112:	3407a403          	lw	s0,832(a5)
     116:	0000                	unimp
     118:	0000                	unimp
     11a:	0005050b          	0x5050b
     11e:	0300                	addi	s0,sp,384
     120:	05a9                	addi	a1,a1,10
     122:	00a4                	addi	s1,sp,72
     124:	0000                	unimp
     126:	0004                	0x4
     128:	7f05                	lui	t5,0xfffe1
     12a:	0004                	0x4
     12c:	0300                	addi	s0,sp,384
     12e:	03aa                	slli	t2,t2,0xa
     130:	00d6                	slli	ra,ra,0x15
     132:	0000                	unimp
     134:	080c                	addi	a1,sp,16
     136:	5d05                	li	s10,-31
     138:	0005                	c.nop	1
     13a:	0400                	addi	s0,sp,512
     13c:	1919                	addi	s2,s2,-26
     13e:	005d                	c.nop	23
     140:	0000                	unimp
     142:	2905                	addiw	s2,s2,1
     144:	0004                	0x4
     146:	0500                	addi	s0,sp,640
     148:	0d0c                	addi	a1,sp,656
     14a:	0034                	addi	a3,sp,8
     14c:	0000                	unimp
     14e:	a105                	j	56e <_start-0xfb42>
     150:	0002                	c.slli64	zero
     152:	0400                	addi	s0,sp,512
     154:	01141b23          	sh	a7,22(s0)
     158:	0000                	unimp
     15a:	b20d                	j	fffffffffffffa7c <__global_pointer$+0xfffffffffffeddfc>
     15c:	0002                	c.slli64	zero
     15e:	2000                	fld	fs0,0(s0)
     160:	3404                	fld	fs1,40(s0)
     162:	8608                	0x8608
     164:	0001                	nop
     166:	0b00                	addi	s0,sp,400
     168:	04a0                	addi	s0,sp,584
     16a:	0000                	unimp
     16c:	3604                	fld	fs1,40(a2)
     16e:	00018613          	mv	a2,gp
     172:	0000                	unimp
     174:	5f0e                	lw	t5,224(sp)
     176:	3704006b          	0x3704006b
     17a:	00003407          	fld	fs0,0(zero) # 0 <_start-0x100b0>
     17e:	0800                	addi	s0,sp,16
     180:	0004e80b          	0x4e80b
     184:	0400                	addi	s0,sp,512
     186:	00340b37          	lui	s6,0x340
     18a:	0000                	unimp
     18c:	0b0c                	addi	a1,sp,400
     18e:	0000029b          	sext.w	t0,zero
     192:	3704                	fld	fs1,40(a4)
     194:	3414                	fld	fa3,40(s0)
     196:	0000                	unimp
     198:	1000                	addi	s0,sp,32
     19a:	0005920b          	0x5920b
     19e:	0400                	addi	s0,sp,512
     1a0:	00341b37          	lui	s6,0x341
     1a4:	0000                	unimp
     1a6:	0e14                	addi	a3,sp,784
     1a8:	785f 0400 0b38      	0xb380400785f
     1ae:	018c                	addi	a1,sp,192
     1b0:	0000                	unimp
     1b2:	0018                	0x18
     1b4:	012c080f          	0x12c080f
     1b8:	0000                	unimp
     1ba:	0808                	addi	a0,sp,16
     1bc:	0001                	nop
     1be:	9c00                	0x9c00
     1c0:	0001                	nop
     1c2:	0900                	addi	s0,sp,144
     1c4:	002d                	c.nop	11
     1c6:	0000                	unimp
     1c8:	0000                	unimp
     1ca:	d90d                	beqz	a0,fc <_start-0xffb4>
     1cc:	0002                	c.slli64	zero
     1ce:	2400                	fld	fs0,8(s0)
     1d0:	3c04                	fld	fs1,56(s0)
     1d2:	1f08                	addi	a0,sp,944
     1d4:	0002                	c.slli64	zero
     1d6:	0b00                	addi	s0,sp,400
     1d8:	017e                	slli	sp,sp,0x1f
     1da:	0000                	unimp
     1dc:	3e04                	fld	fs1,56(a2)
     1de:	3409                	addiw	s0,s0,-30
     1e0:	0000                	unimp
     1e2:	0000                	unimp
     1e4:	00051b0b          	0x51b0b
     1e8:	0400                	addi	s0,sp,512
     1ea:	0034093f 0b040000 	0xb0400000034093f
     1f2:	01ff                	0x1ff
     1f4:	0000                	unimp
     1f6:	4004                	lw	s1,0(s0)
     1f8:	3409                	addiw	s0,s0,-30
     1fa:	0000                	unimp
     1fc:	0800                	addi	s0,sp,16
     1fe:	00061a0b          	0x61a0b
     202:	0400                	addi	s0,sp,512
     204:	0941                	addi	s2,s2,16
     206:	0034                	addi	a3,sp,8
     208:	0000                	unimp
     20a:	0b0c                	addi	a1,sp,400
     20c:	03f1                	addi	t2,t2,28
     20e:	0000                	unimp
     210:	4204                	lw	s1,0(a2)
     212:	3409                	addiw	s0,s0,-30
     214:	0000                	unimp
     216:	1000                	addi	s0,sp,32
     218:	0003610b          	0x3610b
     21c:	0400                	addi	s0,sp,512
     21e:	00340943          	fmadd.s	fs2,fs0,ft3,ft0,rne
     222:	0000                	unimp
     224:	0b14                	addi	a3,sp,400
     226:	00000597          	auipc	a1,0x0
     22a:	4404                	lw	s1,8(s0)
     22c:	3409                	addiw	s0,s0,-30
     22e:	0000                	unimp
     230:	1800                	addi	s0,sp,48
     232:	0004610b          	0x4610b
     236:	0400                	addi	s0,sp,512
     238:	0945                	addi	s2,s2,17
     23a:	0034                	addi	a3,sp,8
     23c:	0000                	unimp
     23e:	0b1c                	addi	a5,sp,400
     240:	05d2                	slli	a1,a1,0x14
     242:	0000                	unimp
     244:	4604                	lw	s1,8(a2)
     246:	3409                	addiw	s0,s0,-30
     248:	0000                	unimp
     24a:	2000                	fld	fs0,0(s0)
     24c:	1000                	addi	s0,sp,32
     24e:	020e                	slli	tp,tp,0x3
     250:	0000                	unimp
     252:	0208                	addi	a0,sp,256
     254:	4f04                	lw	s1,24(a4)
     256:	6508                	ld	a0,8(a0)
     258:	0002                	c.slli64	zero
     25a:	0b00                	addi	s0,sp,400
     25c:	028e                	slli	t0,t0,0x3
     25e:	0000                	unimp
     260:	5004                	lw	s1,32(s0)
     262:	650a                	ld	a0,128(sp)
     264:	0002                	c.slli64	zero
     266:	0000                	unimp
     268:	b011                	j	fffffffffffffa6c <__global_pointer$+0xfffffffffffeddec>
     26a:	0000                	unimp
     26c:	0400                	addi	s0,sp,512
     26e:	0951                	addi	s2,s2,20
     270:	0265                	addi	tp,tp,25
     272:	0000                	unimp
     274:	0100                	addi	s0,sp,128
     276:	4311                	li	t1,4
     278:	0005                	c.nop	1
     27a:	0400                	addi	s0,sp,512
     27c:	01080a53          	fadd.s	fs4,fa6,fa6,rne
     280:	0000                	unimp
     282:	0200                	addi	s0,sp,256
     284:	3311                	addiw	t1,t1,-28
     286:	0002                	c.slli64	zero
     288:	0400                	addi	s0,sp,512
     28a:	0a56                	slli	s4,s4,0x15
     28c:	0108                	addi	a0,sp,128
     28e:	0000                	unimp
     290:	0204                	addi	s1,sp,256
     292:	0800                	addi	s0,sp,16
     294:	0106                	slli	sp,sp,0x1
     296:	0000                	unimp
     298:	0275                	addi	tp,tp,29
     29a:	0000                	unimp
     29c:	2d09                	addiw	s10,s10,2
     29e:	0000                	unimp
     2a0:	1f00                	addi	s0,sp,944
     2a2:	1000                	addi	s0,sp,32
     2a4:	0550                	addi	a2,sp,644
     2a6:	0000                	unimp
     2a8:	0318                	addi	a4,sp,384
     2aa:	6204                	ld	s1,0(a2)
     2ac:	b908                	fsd	fa0,48(a0)
     2ae:	0002                	c.slli64	zero
     2b0:	0b00                	addi	s0,sp,400
     2b2:	04a0                	addi	s0,sp,584
     2b4:	0000                	unimp
     2b6:	6304                	ld	s1,0(a4)
     2b8:	b912                	fsd	ft4,176(sp)
     2ba:	0002                	c.slli64	zero
     2bc:	0000                	unimp
     2be:	0004b80b          	0x4b80b
     2c2:	0400                	addi	s0,sp,512
     2c4:	0664                	addi	s1,sp,780
     2c6:	0034                	addi	a3,sp,8
     2c8:	0000                	unimp
     2ca:	0b08                	addi	a0,sp,400
     2cc:	0296                	slli	t0,t0,0x5
     2ce:	0000                	unimp
     2d0:	6604                	ld	s1,8(a2)
     2d2:	bf09                	j	1e4 <_start-0xfecc>
     2d4:	0002                	c.slli64	zero
     2d6:	1000                	addi	s0,sp,32
     2d8:	0e11                	addi	t3,t3,4
     2da:	0002                	c.slli64	zero
     2dc:	0400                	addi	s0,sp,512
     2de:	021f1e67          	0x21f1e67
     2e2:	0000                	unimp
     2e4:	0110                	addi	a2,sp,128
     2e6:	0f00                	addi	s0,sp,912
     2e8:	7508                	ld	a0,40(a0)
     2ea:	0002                	c.slli64	zero
     2ec:	0800                	addi	s0,sp,16
     2ee:	000002cf          	fnmadd.s	ft5,ft0,ft0,ft0,rne
     2f2:	000002cf          	fnmadd.s	ft5,ft0,ft0,ft0,rne
     2f6:	2d09                	addiw	s10,s10,2
     2f8:	0000                	unimp
     2fa:	1f00                	addi	s0,sp,944
     2fc:	0f00                	addi	s0,sp,912
     2fe:	d508                	sw	a0,40(a0)
     300:	0002                	c.slli64	zero
     302:	1200                	addi	s0,sp,288
     304:	6b0d                	lui	s6,0x3
     306:	0004                	0x4
     308:	1000                	addi	s0,sp,32
     30a:	7a04                	ld	s1,48(a2)
     30c:	fe08                	sd	a0,56(a2)
     30e:	0002                	c.slli64	zero
     310:	0b00                	addi	s0,sp,400
     312:	01f9                	addi	gp,gp,30
     314:	0000                	unimp
     316:	7b04                	ld	s1,48(a4)
     318:	fe11                	bnez	a2,234 <_start-0xfe7c>
     31a:	0002                	c.slli64	zero
     31c:	0000                	unimp
     31e:	0000bc0b          	0xbc0b
     322:	0400                	addi	s0,sp,512
     324:	067c                	addi	a5,sp,780
     326:	0034                	addi	a3,sp,8
     328:	0000                	unimp
     32a:	0008                	0x8
     32c:	006b080f          	0x6b080f
     330:	0000                	unimp
     332:	8a0d                	andi	a2,a2,3
     334:	0004                	0x4
     336:	b000                	fsd	fs0,32(s0)
     338:	ba04                	fsd	fs1,48(a2)
     33a:	4708                	lw	a0,8(a4)
     33c:	0004                	0x4
     33e:	0e00                	addi	s0,sp,784
     340:	705f 0400 12bb      	0x12bb0400705f
     346:	02fe                	slli	t0,t0,0x1f
     348:	0000                	unimp
     34a:	0e00                	addi	s0,sp,784
     34c:	725f 0400 07bc      	0x7bc0400725f
     352:	0034                	addi	a3,sp,8
     354:	0000                	unimp
     356:	0e08                	addi	a0,sp,784
     358:	775f 0400 07bd      	0x7bd0400775f
     35e:	0034                	addi	a3,sp,8
     360:	0000                	unimp
     362:	0b0c                	addi	a1,sp,400
     364:	022c                	addi	a1,sp,264
     366:	0000                	unimp
     368:	be04                	fsd	fs1,56(a2)
     36a:	7209                	lui	tp,0xfffe2
     36c:	0000                	unimp
     36e:	1000                	addi	s0,sp,32
     370:	0002f50b          	0x2f50b
     374:	0400                	addi	s0,sp,512
     376:	007209bf 0e120000 	0xe120000007209bf
     37e:	625f 0066 c004      	0xc0040066625f
     384:	d611                	beqz	a2,290 <_start-0xfe20>
     386:	0002                	c.slli64	zero
     388:	1800                	addi	s0,sp,48
     38a:	00014d0b          	0x14d0b
     38e:	0400                	addi	s0,sp,512
     390:	07c1                	addi	a5,a5,16
     392:	0034                	addi	a3,sp,8
     394:	0000                	unimp
     396:	0b28                	addi	a0,sp,408
     398:	021c                	addi	a5,sp,256
     39a:	0000                	unimp
     39c:	c804                	sw	s1,16(s0)
     39e:	060a                	slli	a2,a2,0x2
     3a0:	0001                	nop
     3a2:	3000                	fld	fs0,32(s0)
     3a4:	0002c90b          	0x2c90b
     3a8:	0400                	addi	s0,sp,512
     3aa:	1dca                	slli	s11,s11,0x32
     3ac:	000005cb          	fnmsub.s	fa1,ft0,ft0,ft0,rne
     3b0:	0b38                	addi	a4,sp,408
     3b2:	035a                	slli	t1,t1,0x16
     3b4:	0000                	unimp
     3b6:	cc04                	sw	s1,24(s0)
     3b8:	f51d                	bnez	a0,2e6 <_start-0xfdca>
     3ba:	0005                	c.nop	1
     3bc:	4000                	lw	s0,0(s0)
     3be:	00050d0b          	0x50d0b
     3c2:	0400                	addi	s0,sp,512
     3c4:	06190dcf          	fnmadd.q	fs11,fs2,ft1,ft0,rne
     3c8:	0000                	unimp
     3ca:	0b48                	addi	a0,sp,404
     3cc:	05ec                	addi	a1,sp,716
     3ce:	0000                	unimp
     3d0:	d004                	sw	s1,32(s0)
     3d2:	3309                	addiw	t1,t1,-30
     3d4:	0006                	c.slli	zero,0x1
     3d6:	5000                	lw	s0,32(s0)
     3d8:	5f0e                	lw	t5,224(sp)
     3da:	6275                	lui	tp,0x1d
     3dc:	0400                	addi	s0,sp,512
     3de:	02d611d3          	fadd.d	ft3,fa2,fa3,rtz
     3e2:	0000                	unimp
     3e4:	0e58                	addi	a4,sp,788
     3e6:	755f 0070 d404      	0xd4040070755f
     3ec:	fe12                	sd	tp,312(sp)
     3ee:	0002                	c.slli64	zero
     3f0:	6800                	ld	s0,16(s0)
     3f2:	5f0e                	lw	t5,224(sp)
     3f4:	7275                	lui	tp,0xffffd
     3f6:	0400                	addi	s0,sp,512
     3f8:	07d5                	addi	a5,a5,21
     3fa:	0034                	addi	a3,sp,8
     3fc:	0000                	unimp
     3fe:	0b70                	addi	a2,sp,412
     400:	0195                	addi	gp,gp,5
     402:	0000                	unimp
     404:	d804                	sw	s1,48(s0)
     406:	3911                	addiw	s2,s2,-28
     408:	0006                	c.slli	zero,0x1
     40a:	7400                	ld	s0,40(s0)
     40c:	0005c40b          	0x5c40b
     410:	0400                	addi	s0,sp,512
     412:	11d9                	addi	gp,gp,-10
     414:	0649                	addi	a2,a2,18
     416:	0000                	unimp
     418:	6c5f0e77          	0x6c5f0e77
     41c:	0062                	c.slli	zero,0x18
     41e:	dc04                	sw	s1,56(s0)
     420:	d611                	beqz	a2,32c <_start-0xfd84>
     422:	0002                	c.slli64	zero
     424:	7800                	ld	s0,48(s0)
     426:	0002420b          	0x2420b
     42a:	0400                	addi	s0,sp,512
     42c:	07df 0034 0000      	0x3407df
     432:	0b88                	addi	a0,sp,464
     434:	00000267          	jalr	tp,zero # 0 <_start-0x100b0>
     438:	e004                	sd	s1,0(s0)
     43a:	800a                	c.mv	zero,sp
     43c:	0000                	unimp
     43e:	9000                	0x9000
     440:	0007c60b          	0x7c60b
     444:	0400                	addi	s0,sp,512
     446:	046512e3          	bne	a0,t1,c8a <_start-0xf426>
     44a:	0000                	unimp
     44c:	0b98                	addi	a4,sp,464
     44e:	034c                	addi	a1,sp,388
     450:	0000                	unimp
     452:	e704                	sd	s1,8(a4)
     454:	200c                	fld	fa1,0(s0)
     456:	0001                	nop
     458:	a000                	fsd	fs0,0(s0)
     45a:	0004920b          	0x4920b
     45e:	0400                	addi	s0,sp,512
     460:	0ee9                	addi	t4,t4,26
     462:	00fa                	slli	ra,ra,0x1e
     464:	0000                	unimp
     466:	0ba4                	addi	s1,sp,472
     468:	0352                	slli	t1,t1,0x14
     46a:	0000                	unimp
     46c:	ea04                	sd	s1,16(a2)
     46e:	3409                	addiw	s0,s0,-30
     470:	0000                	unimp
     472:	ac00                	fsd	fs0,24(s0)
     474:	1300                	addi	s0,sp,416
     476:	0098                	addi	a4,sp,64
     478:	0000                	unimp
     47a:	0465                	addi	s0,s0,25
     47c:	0000                	unimp
     47e:	6514                	ld	a3,8(a0)
     480:	0004                	0x4
     482:	1400                	addi	s0,sp,544
     484:	0106                	slli	sp,sp,0x1
     486:	0000                	unimp
     488:	b914                	fsd	fa3,48(a0)
     48a:	0005                	c.nop	1
     48c:	1400                	addi	s0,sp,544
     48e:	0034                	addi	a3,sp,8
     490:	0000                	unimp
     492:	0f00                	addi	s0,sp,912
     494:	7008                	ld	a0,32(s0)
     496:	0004                	0x4
     498:	1500                	addi	s0,sp,672
     49a:	0465                	addi	s0,s0,25
     49c:	0000                	unimp
     49e:	f016                	sd	t0,32(sp)
     4a0:	0004                	0x4
     4a2:	4800                	lw	s0,16(s0)
     4a4:	02650407          	0x2650407
     4a8:	b908                	fsd	fa0,48(a0)
     4aa:	0005                	c.nop	1
     4ac:	1700                	addi	s0,sp,928
     4ae:	0a61                	addi	s4,s4,24
     4b0:	0000                	unimp
     4b2:	6704                	ld	s1,8(a4)
     4b4:	0702                	c.slli64	a4
     4b6:	0034                	addi	a3,sp,8
     4b8:	0000                	unimp
     4ba:	1700                	addi	s0,sp,928
     4bc:	0000023b          	addw	tp,zero,zero
     4c0:	6c04                	ld	s1,24(s0)
     4c2:	0b02                	c.slli64	s6
     4c4:	06a5                	addi	a3,a3,9
     4c6:	0000                	unimp
     4c8:	1708                	addi	a0,sp,928
     4ca:	02e5                	addi	t0,t0,25
     4cc:	0000                	unimp
     4ce:	6c04                	ld	s1,24(s0)
     4d0:	1402                	slli	s0,s0,0x20
     4d2:	06a5                	addi	a3,a3,9
     4d4:	0000                	unimp
     4d6:	1710                	addi	a2,sp,928
     4d8:	02aa                	slli	t0,t0,0xa
     4da:	0000                	unimp
     4dc:	6c04                	ld	s1,24(s0)
     4de:	1e02                	slli	t3,t3,0x20
     4e0:	06a5                	addi	a3,a3,9
     4e2:	0000                	unimp
     4e4:	1718                	addi	a4,sp,928
     4e6:	000004b3          	add	s1,zero,zero
     4ea:	6e04                	ld	s1,24(a2)
     4ec:	0802                	c.slli64	a6
     4ee:	0034                	addi	a3,sp,8
     4f0:	0000                	unimp
     4f2:	1720                	addi	s0,sp,936
     4f4:	0000010b          	0x10b
     4f8:	6f04                	ld	s1,24(a4)
     4fa:	0802                	c.slli64	a6
     4fc:	08ae                	slli	a7,a7,0xb
     4fe:	0000                	unimp
     500:	1724                	addi	s1,sp,936
     502:	000004cf          	fnmadd.s	fs1,ft0,ft0,ft0,rne
     506:	7204                	ld	s1,32(a2)
     508:	0702                	c.slli64	a4
     50a:	0034                	addi	a3,sp,8
     50c:	0000                	unimp
     50e:	1740                	addi	s0,sp,932
     510:	04bd                	addi	s1,s1,15
     512:	0000                	unimp
     514:	7304                	ld	s1,32(a4)
     516:	1602                	slli	a2,a2,0x20
     518:	000008c3          	fmadd.s	fa7,ft0,ft0,ft0,rne
     51c:	1748                	addi	a0,sp,932
     51e:	0404                	addi	s1,sp,512
     520:	0000                	unimp
     522:	7504                	ld	s1,40(a0)
     524:	0702                	c.slli64	a4
     526:	0034                	addi	a3,sp,8
     528:	0000                	unimp
     52a:	1750                	addi	a2,sp,932
     52c:	04c5                	addi	s1,s1,17
     52e:	0000                	unimp
     530:	7704                	ld	s1,40(a4)
     532:	0a02                	c.slli64	s4
     534:	08d4                	addi	a3,sp,84
     536:	0000                	unimp
     538:	1758                	addi	a4,sp,932
     53a:	00000337          	lui	t1,0x0
     53e:	7a04                	ld	s1,48(a2)
     540:	1302                	slli	t1,t1,0x20
     542:	0186                	slli	gp,gp,0x1
     544:	0000                	unimp
     546:	1760                	addi	s0,sp,940
     548:	000002cf          	fnmadd.s	ft5,ft0,ft0,ft0,rne
     54c:	7b04                	ld	s1,48(a4)
     54e:	0702                	c.slli64	a4
     550:	0034                	addi	a3,sp,8
     552:	0000                	unimp
     554:	1768                	addi	a0,sp,940
     556:	0606                	slli	a2,a2,0x1
     558:	0000                	unimp
     55a:	7c04                	ld	s1,56(s0)
     55c:	1302                	slli	t1,t1,0x20
     55e:	0186                	slli	gp,gp,0x1
     560:	0000                	unimp
     562:	1770                	addi	a2,sp,940
     564:	041f 0000 7d04      	0x7d040000041f
     56a:	1402                	slli	s0,s0,0x20
     56c:	08da                	slli	a7,a7,0x16
     56e:	0000                	unimp
     570:	1778                	addi	a4,sp,940
     572:	02ed                	addi	t0,t0,27
     574:	0000                	unimp
     576:	8004                	0x8004
     578:	0702                	c.slli64	a4
     57a:	0034                	addi	a3,sp,8
     57c:	0000                	unimp
     57e:	1780                	addi	s0,sp,992
     580:	025f 0000 8104      	0x81040000025f
     586:	0902                	c.slli64	s2
     588:	05b9                	addi	a1,a1,14
     58a:	0000                	unimp
     58c:	1788                	addi	a0,sp,992
     58e:	0449                	addi	s0,s0,18
     590:	0000                	unimp
     592:	a404                	fsd	fs1,8(s0)
     594:	0702                	c.slli64	a4
     596:	0888                	addi	a0,sp,80
     598:	0000                	unimp
     59a:	1890                	addi	a2,sp,112
     59c:	0550                	addi	a2,sp,644
     59e:	0000                	unimp
     5a0:	a804                	fsd	fs1,16(s0)
     5a2:	1302                	slli	t1,t1,0x20
     5a4:	02b9                	addi	t0,t0,14
     5a6:	0000                	unimp
     5a8:	01f8                	addi	a4,sp,204
     5aa:	1518                	addi	a4,sp,672
     5ac:	04000003          	lb	zero,64(zero) # 40 <_start-0x10070>
     5b0:	02a9                	addi	t0,t0,10
     5b2:	7512                	ld	a0,288(sp)
     5b4:	0002                	c.slli64	zero
     5b6:	0000                	unimp
     5b8:	1802                	slli	a6,a6,0x20
     5ba:	05ba                	slli	a1,a1,0xe
     5bc:	0000                	unimp
     5be:	ad04                	fsd	fs1,24(a0)
     5c0:	0c02                	c.slli64	s8
     5c2:	000008eb          	0x8eb
     5c6:	0518                	addi	a4,sp,640
     5c8:	2418                	fld	fa4,8(s0)
     5ca:	0002                	c.slli64	zero
     5cc:	0400                	addi	s0,sp,512
     5ce:	02b2                	slli	t0,t0,0xc
     5d0:	6610                	ld	a2,8(a2)
     5d2:	0006                	c.slli	zero,0x1
     5d4:	2000                	fld	fs0,0(s0)
     5d6:	1805                	addi	a6,a6,-31
     5d8:	0209                	addi	tp,tp,2
     5da:	0000                	unimp
     5dc:	b404                	fsd	fs1,40(s0)
     5de:	0a02                	c.slli64	s4
     5e0:	000008f7          	0x8f7
     5e4:	0538                	addi	a4,sp,648
     5e6:	0f00                	addi	s0,sp,912
     5e8:	bf08                	fsd	fa0,56(a4)
     5ea:	0005                	c.nop	1
     5ec:	0200                	addi	s0,sp,256
     5ee:	0801                	addi	a6,a6,0
     5f0:	0444                	addi	s1,sp,516
     5f2:	0000                	unimp
     5f4:	bf15                	j	528 <_start-0xfb88>
     5f6:	0005                	c.nop	1
     5f8:	0f00                	addi	s0,sp,912
     5fa:	4708                	lw	a0,8(a4)
     5fc:	0004                	0x4
     5fe:	1300                	addi	s0,sp,416
     600:	0098                	addi	a4,sp,64
     602:	0000                	unimp
     604:	000005ef          	jal	a1,604 <_start-0xfaac>
     608:	6514                	ld	a3,8(a0)
     60a:	0004                	0x4
     60c:	1400                	addi	s0,sp,544
     60e:	0106                	slli	sp,sp,0x1
     610:	0000                	unimp
     612:	ef14                	sd	a3,24(a4)
     614:	0005                	c.nop	1
     616:	1400                	addi	s0,sp,544
     618:	0034                	addi	a3,sp,8
     61a:	0000                	unimp
     61c:	0f00                	addi	s0,sp,912
     61e:	c608                	sw	a0,8(a2)
     620:	0005                	c.nop	1
     622:	0f00                	addi	s0,sp,912
     624:	d108                	sw	a0,32(a0)
     626:	0005                	c.nop	1
     628:	1300                	addi	s0,sp,416
     62a:	008c                	addi	a1,sp,64
     62c:	0000                	unimp
     62e:	0619                	addi	a2,a2,6
     630:	0000                	unimp
     632:	6514                	ld	a3,8(a0)
     634:	0004                	0x4
     636:	1400                	addi	s0,sp,544
     638:	0106                	slli	sp,sp,0x1
     63a:	0000                	unimp
     63c:	8c14                	0x8c14
     63e:	0000                	unimp
     640:	1400                	addi	s0,sp,544
     642:	0034                	addi	a3,sp,8
     644:	0000                	unimp
     646:	0f00                	addi	s0,sp,912
     648:	fb08                	sd	a0,48(a4)
     64a:	0005                	c.nop	1
     64c:	1300                	addi	s0,sp,416
     64e:	0034                	addi	a3,sp,8
     650:	0000                	unimp
     652:	00000633          	add	a2,zero,zero
     656:	6514                	ld	a3,8(a0)
     658:	0004                	0x4
     65a:	1400                	addi	s0,sp,544
     65c:	0106                	slli	sp,sp,0x1
     65e:	0000                	unimp
     660:	0f00                	addi	s0,sp,912
     662:	1f08                	addi	a0,sp,944
     664:	0006                	c.slli	zero,0x1
     666:	0800                	addi	s0,sp,16
     668:	0000006b          	0x6b
     66c:	0649                	addi	a2,a2,18
     66e:	0000                	unimp
     670:	2d09                	addiw	s10,s10,2
     672:	0000                	unimp
     674:	0200                	addi	s0,sp,256
     676:	0800                	addi	s0,sp,16
     678:	0000006b          	0x6b
     67c:	0659                	addi	a2,a2,22
     67e:	0000                	unimp
     680:	2d09                	addiw	s10,s10,2
     682:	0000                	unimp
     684:	0000                	unimp
     686:	0400                	addi	s0,sp,512
     688:	0478                	addi	a4,sp,524
     68a:	0000                	unimp
     68c:	2404                	fld	fs1,8(s0)
     68e:	1a01                	addi	s4,s4,-32
     690:	0304                	addi	s1,sp,384
     692:	0000                	unimp
     694:	a119                	j	a9a <_start-0xf616>
     696:	0005                	c.nop	1
     698:	1800                	addi	s0,sp,48
     69a:	2804                	fld	fs1,16(s0)
     69c:	0801                	addi	a6,a6,0
     69e:	069f 0000 a017      	0xa0170000069f
     6a4:	0004                	0x4
     6a6:	0400                	addi	s0,sp,512
     6a8:	012a                	slli	sp,sp,0xa
     6aa:	9f11                	subw	a4,a4,a2
     6ac:	0006                	c.slli	zero,0x1
     6ae:	0000                	unimp
     6b0:	0002fb17          	auipc	s6,0x2f
     6b4:	0400                	addi	s0,sp,512
     6b6:	3407012b          	0x3407012b
     6ba:	0000                	unimp
     6bc:	0800                	addi	s0,sp,16
     6be:	00047217          	auipc	tp,0x47
     6c2:	0400                	addi	s0,sp,512
     6c4:	012c                	addi	a1,sp,136
     6c6:	0006a50b          	0x6a50b
     6ca:	1000                	addi	s0,sp,32
     6cc:	0f00                	addi	s0,sp,912
     6ce:	6608                	ld	a0,8(a2)
     6d0:	0006                	c.slli	zero,0x1
     6d2:	0f00                	addi	s0,sp,912
     6d4:	5908                	lw	a0,48(a0)
     6d6:	0006                	c.slli	zero,0x1
     6d8:	1900                	addi	s0,sp,176
     6da:	00000103          	lb	sp,0(zero) # 0 <_start-0x100b0>
     6de:	040e                	slli	s0,s0,0x3
     6e0:	0144                	addi	s1,sp,132
     6e2:	e408                	sd	a0,8(s0)
     6e4:	0006                	c.slli	zero,0x1
     6e6:	1700                	addi	s0,sp,928
     6e8:	000004f7          	0x4f7
     6ec:	4504                	lw	s1,8(a0)
     6ee:	1201                	addi	tp,tp,-32
     6f0:	06e4                	addi	s1,sp,844
     6f2:	0000                	unimp
     6f4:	1700                	addi	s0,sp,928
     6f6:	0524                	addi	s1,sp,648
     6f8:	0000                	unimp
     6fa:	4604                	lw	s1,8(a2)
     6fc:	1201                	addi	tp,tp,-32
     6fe:	06e4                	addi	s1,sp,844
     700:	0000                	unimp
     702:	1706                	slli	a4,a4,0x21
     704:	0558                	addi	a4,sp,644
     706:	0000                	unimp
     708:	4704                	lw	s1,8(a4)
     70a:	1201                	addi	tp,tp,-32
     70c:	0079                	c.nop	30
     70e:	0000                	unimp
     710:	000c                	0xc
     712:	7908                	ld	a0,48(a0)
     714:	0000                	unimp
     716:	f400                	sd	s0,40(s0)
     718:	0006                	c.slli	zero,0x1
     71a:	0900                	addi	s0,sp,144
     71c:	002d                	c.nop	11
     71e:	0000                	unimp
     720:	0002                	c.slli64	zero
     722:	d81a                	sw	t1,48(sp)
     724:	8504                	0x8504
     726:	0702                	c.slli64	a4
     728:	0809                	addi	a6,a6,2
     72a:	0000                	unimp
     72c:	00058517          	auipc	a0,0x58
     730:	0400                	addi	s0,sp,512
     732:	5d180287          	0x5d180287
     736:	0000                	unimp
     738:	0000                	unimp
     73a:	00052a17          	auipc	s4,0x52
     73e:	0400                	addi	s0,sp,512
     740:	0288                	addi	a0,sp,320
     742:	b912                	fsd	ft4,176(sp)
     744:	0005                	c.nop	1
     746:	0800                	addi	s0,sp,16
     748:	00032a17          	auipc	s4,0x32
     74c:	0400                	addi	s0,sp,512
     74e:	0289                	addi	t0,t0,2
     750:	0910                	addi	a2,sp,144
     752:	0008                	0x8
     754:	1000                	addi	s0,sp,32
     756:	0005dd17          	auipc	s10,0x5d
     75a:	0400                	addi	s0,sp,512
     75c:	028a                	slli	t0,t0,0x2
     75e:	00019c17          	auipc	s8,0x19
     762:	2c00                	fld	fs0,24(s0)
     764:	0002ba17          	auipc	s4,0x2b
     768:	0400                	addi	s0,sp,512
     76a:	340f028b          	0x340f028b
     76e:	0000                	unimp
     770:	5000                	lw	s0,32(s0)
     772:	00049b17          	auipc	s6,0x49
     776:	0400                	addi	s0,sp,512
     778:	028c                	addi	a1,sp,320
     77a:	192c                	addi	a1,sp,184
     77c:	0008                	0x8
     77e:	5800                	lw	s0,48(s0)
     780:	0005f317          	auipc	t1,0x5f
     784:	0400                	addi	s0,sp,512
     786:	028d                	addi	t0,t0,3
     788:	ab1a                	fsd	ft6,400(sp)
     78a:	0006                	c.slli	zero,0x1
     78c:	6000                	ld	s0,0(s0)
     78e:	0004a617          	auipc	a2,0x4a
     792:	0400                	addi	s0,sp,512
     794:	028e                	slli	t0,t0,0x3
     796:	fa16                	sd	t0,304(sp)
     798:	0000                	unimp
     79a:	7000                	ld	s0,32(s0)
     79c:	0005f817          	auipc	a6,0x5f
     7a0:	0400                	addi	s0,sp,512
     7a2:	fa16028f          	0xfa16028f
     7a6:	0000                	unimp
     7a8:	7800                	ld	s0,48(s0)
     7aa:	00017017          	auipc	zero,0x17
     7ae:	0400                	addi	s0,sp,512
     7b0:	0290                	addi	a2,sp,320
     7b2:	fa16                	sd	t0,304(sp)
     7b4:	0000                	unimp
     7b6:	8000                	0x8000
     7b8:	0005b017          	auipc	zero,0x5b
     7bc:	0400                	addi	s0,sp,512
     7be:	0291                	addi	t0,t0,4
     7c0:	2010                	fld	fa2,0(s0)
     7c2:	0008                	0x8
     7c4:	8800                	0x8800
     7c6:	00031e17          	auipc	t3,0x31
     7ca:	0400                	addi	s0,sp,512
     7cc:	0292                	slli	t0,t0,0x4
     7ce:	3010                	fld	fa2,32(s0)
     7d0:	0008                	0x8
     7d2:	9000                	0x9000
     7d4:	00056517          	auipc	a0,0x56
     7d8:	0400                	addi	s0,sp,512
     7da:	340f0293          	addi	t0,t5,832 # fffffffffffe1340 <__global_pointer$+0xfffffffffffcf6c0>
     7de:	0000                	unimp
     7e0:	a800                	fsd	fs0,16(s0)
     7e2:	00028017          	auipc	zero,0x28
     7e6:	0400                	addi	s0,sp,512
     7e8:	0294                	addi	a3,sp,320
     7ea:	fa16                	sd	t0,304(sp)
     7ec:	0000                	unimp
     7ee:	ac00                	fsd	fs0,24(s0)
     7f0:	00016117          	auipc	sp,0x16
     7f4:	0400                	addi	s0,sp,512
     7f6:	0295                	addi	t0,t0,5
     7f8:	fa16                	sd	t0,304(sp)
     7fa:	0000                	unimp
     7fc:	b400                	fsd	fs0,40(s0)
     7fe:	00026f17          	auipc	t5,0x26
     802:	0400                	addi	s0,sp,512
     804:	0296                	slli	t0,t0,0x5
     806:	fa16                	sd	t0,304(sp)
     808:	0000                	unimp
     80a:	bc00                	fsd	fs0,56(s0)
     80c:	00011617          	auipc	a2,0x11
     810:	0400                	addi	s0,sp,512
     812:	fa160297          	auipc	t0,0xfa160
     816:	0000                	unimp
     818:	c400                	sw	s0,8(s0)
     81a:	00012517          	auipc	a0,0x12
     81e:	0400                	addi	s0,sp,512
     820:	0298                	addi	a4,sp,320
     822:	fa16                	sd	t0,304(sp)
     824:	0000                	unimp
     826:	cc00                	sw	s0,24(s0)
     828:	00044e17          	auipc	t3,0x44
     82c:	0400                	addi	s0,sp,512
     82e:	0299                	addi	t0,t0,6
     830:	3408                	fld	fa0,40(s0)
     832:	0000                	unimp
     834:	d400                	sw	s0,40(s0)
     836:	0800                	addi	s0,sp,16
     838:	000005bf 00000819 	0x819000005bf
     840:	2d09                	addiw	s10,s10,2
     842:	0000                	unimp
     844:	1900                	addi	s0,sp,176
     846:	0200                	addi	s0,sp,256
     848:	0708                	addi	a0,sp,896
     84a:	0136                	slli	sp,sp,0xd
     84c:	0000                	unimp
     84e:	bf08                	fsd	fa0,56(a4)
     850:	0005                	c.nop	1
     852:	3000                	fld	fs0,32(s0)
     854:	0008                	0x8
     856:	0900                	addi	s0,sp,144
     858:	002d                	c.nop	11
     85a:	0000                	unimp
     85c:	bf080007          	0xbf080007
     860:	0005                	c.nop	1
     862:	4000                	lw	s0,0(s0)
     864:	0008                	0x8
     866:	0900                	addi	s0,sp,144
     868:	002d                	c.nop	11
     86a:	0000                	unimp
     86c:	681b0017          	auipc	zero,0x681b0
     870:	0401                	addi	s0,s0,0
     872:	029e                	slli	t0,t0,0x7
     874:	00086807          	0x86807
     878:	1700                	addi	s0,sp,928
     87a:	0380                	addi	s0,sp,448
     87c:	0000                	unimp
     87e:	a104                	fsd	fs1,0(a0)
     880:	1b02                	slli	s6,s6,0x20
     882:	0868                	addi	a0,sp,28
     884:	0000                	unimp
     886:	1700                	addi	s0,sp,928
     888:	0000036b          	0x36b
     88c:	a204                	fsd	fs1,0(a2)
     88e:	1802                	slli	a6,a6,0x20
     890:	0878                	addi	a4,sp,28
     892:	0000                	unimp
     894:	00f0                	addi	a2,sp,76
     896:	fe08                	sd	a0,56(a2)
     898:	0002                	c.slli64	zero
     89a:	7800                	ld	s0,48(s0)
     89c:	0008                	0x8
     89e:	0900                	addi	s0,sp,144
     8a0:	002d                	c.nop	11
     8a2:	0000                	unimp
     8a4:	001d                	c.nop	7
     8a6:	5d08                	lw	a0,56(a0)
     8a8:	0000                	unimp
     8aa:	8800                	0x8800
     8ac:	0008                	0x8
     8ae:	0900                	addi	s0,sp,144
     8b0:	002d                	c.nop	11
     8b2:	0000                	unimp
     8b4:	001d                	c.nop	7
     8b6:	681c                	ld	a5,16(s0)
     8b8:	0401                	addi	s0,s0,0
     8ba:	ae030283          	lb	t0,-1312(t1) # 5f260 <__global_pointer$+0x4d5e0>
     8be:	0008                	0x8
     8c0:	1d00                	addi	s0,sp,688
     8c2:	04f0                	addi	a2,sp,588
     8c4:	0000                	unimp
     8c6:	9a04                	0x9a04
     8c8:	0b02                	c.slli64	s6
     8ca:	06f4                	addi	a3,sp,844
     8cc:	0000                	unimp
     8ce:	ca1d                	beqz	a2,904 <_start-0xf7ac>
     8d0:	0005                	c.nop	1
     8d2:	0400                	addi	s0,sp,512
     8d4:	400b02a3          	sb	zero,1029(s6) # 49b77 <__global_pointer$+0x37ef7>
     8d8:	0008                	0x8
     8da:	0000                	unimp
     8dc:	bf08                	fsd	fa0,56(a4)
     8de:	0005                	c.nop	1
     8e0:	be00                	fsd	fs0,56(a2)
     8e2:	0008                	0x8
     8e4:	0900                	addi	s0,sp,144
     8e6:	002d                	c.nop	11
     8e8:	0000                	unimp
     8ea:	0018                	0x18
     8ec:	561e                	lw	a2,228(sp)
     8ee:	0001                	nop
     8f0:	0f00                	addi	s0,sp,912
     8f2:	be08                	fsd	fa0,56(a2)
     8f4:	0008                	0x8
     8f6:	1f00                	addi	s0,sp,944
     8f8:	08d4                	addi	a3,sp,84
     8fa:	0000                	unimp
     8fc:	6514                	ld	a3,8(a0)
     8fe:	0004                	0x4
     900:	0000                	unimp
     902:	08c9080f          	0x8c9080f
     906:	0000                	unimp
     908:	0186080f          	0x186080f
     90c:	0000                	unimp
     90e:	eb1f 0008 1400      	0x14000008eb1f
     914:	0034                	addi	a3,sp,8
     916:	0000                	unimp
     918:	0f00                	addi	s0,sp,912
     91a:	f108                	sd	a0,32(a0)
     91c:	0008                	0x8
     91e:	0f00                	addi	s0,sp,912
     920:	e008                	sd	a0,0(s0)
     922:	0008                	0x8
     924:	0800                	addi	s0,sp,16
     926:	0659                	addi	a2,a2,22
     928:	0000                	unimp
     92a:	00000907          	0x907
     92e:	2d09                	addiw	s10,s10,2
     930:	0000                	unimp
     932:	0200                	addi	s0,sp,256
     934:	2000                	fld	fs0,0(s0)
     936:	0579                	addi	a0,a0,30
     938:	0000                	unimp
     93a:	3304                	fld	fs1,32(a4)
     93c:	04651703          	lh	a4,70(a0) # 12860 <__global_pointer$+0xbe0>
     940:	0000                	unimp
     942:	7220                	ld	s0,96(a2)
     944:	0005                	c.nop	1
     946:	0400                	addi	s0,sp,512
     948:	0334                	addi	a3,sp,392
     94a:	6b1d                	lui	s6,0x7
     94c:	0004                	0x4
     94e:	2100                	fld	fs0,0(a0)
     950:	03fa                	slli	t2,t2,0x1e
     952:	0000                	unimp
     954:	6706                	ld	a4,64(sp)
     956:	b90e                	fsd	ft3,176(sp)
     958:	0005                	c.nop	1
     95a:	2200                	fld	fs0,0(a2)
     95c:	0000060b          	0x60b
     960:	005d0407          	0x5d0407
     964:	0000                	unimp
     966:	52060507          	0x52060507
     96a:	0009                	c.nop	2
     96c:	2300                	fld	fs0,0(a4)
     96e:	054c                	addi	a1,sp,644
     970:	0000                	unimp
     972:	2300                	fld	fs0,0(a4)
     974:	00000537          	lui	a0,0x0
     978:	2301                	sext.w	t1,t1
     97a:	0416                	slli	s0,s0,0x5
     97c:	0000                	unimp
     97e:	0002                	c.slli64	zero
     980:	5124                	lw	s1,96(a0)
     982:	0005                	c.nop	1
     984:	0600                	addi	s0,sp,768
     986:	054c                	addi	a1,sp,644
     988:	0034                	addi	a3,sp,8
     98a:	0000                	unimp
     98c:	0192                	slli	gp,gp,0x4
     98e:	0001                	nop
     990:	0000                	unimp
     992:	0000                	unimp
     994:	000a                	c.slli	zero,0x2
     996:	0000                	unimp
     998:	0000                	unimp
     99a:	0000                	unimp
     99c:	9c01                	subw	s0,s0,s0
     99e:	09a8                	addi	a0,sp,216
     9a0:	0000                	unimp
     9a2:	6625                	lui	a2,0x9
     9a4:	006e                	c.slli	zero,0x1b
     9a6:	3801                	addiw	a6,a6,-32
     9a8:	cf10                	sw	a2,24(a4)
     9aa:	0002                	c.slli64	zero
     9ac:	0000                	unimp
     9ae:	0000                	unimp
     9b0:	2600                	fld	fs0,8(a2)
     9b2:	019c                	addi	a5,sp,192
     9b4:	0001                	nop
     9b6:	0000                	unimp
     9b8:	0000                	unimp
     9ba:	09a8                	addi	a0,sp,216
     9bc:	0000                	unimp
     9be:	015a0127          	0x15a0127
     9c2:	2730                	fld	fa2,72(a4)
     9c4:	5b01                	li	s6,-32
     9c6:	5a01f303          	0x5a01f303
     9ca:	015c0127          	0x15c0127
     9ce:	2730                	fld	fa2,72(a4)
     9d0:	5d01                	li	s10,-32
     9d2:	3001                	0x3001
     9d4:	0000                	unimp
     9d6:	4b28                	lw	a0,80(a4)
     9d8:	0002                	c.slli64	zero
     9da:	4b00                	lw	s0,16(a4)
     9dc:	0002                	c.slli64	zero
     9de:	0700                	addi	s0,sp,896
     9e0:	050d                	addi	a0,a0,3
     9e2:	f000                	sd	s0,32(s0)
     9e4:	0009                	c.nop	2
     9e6:	0400                	addi	s0,sp,512
     9e8:	5200                	lw	s0,32(a2)
     9ea:	0002                	c.slli64	zero
     9ec:	0800                	addi	s0,sp,16
     9ee:	9b01                	andi	a4,a4,-32
     9f0:	0001                	nop
     9f2:	0c00                	addi	s0,sp,528
     9f4:	062a                	slli	a2,a2,0xa
     9f6:	0000                	unimp
     9f8:	00000387          	0x387
     9fc:	019c                	addi	a5,sp,192
     9fe:	0001                	nop
     a00:	0000                	unimp
     a02:	0000                	unimp
     a04:	001e                	c.slli	zero,0x7
     a06:	0000                	unimp
     a08:	0000                	unimp
     a0a:	0000                	unimp
     a0c:	0251                	addi	tp,tp,20
     a0e:	0000                	unimp
     a10:	0802                	c.slli64	a6
     a12:	00013b07          	fld	fs6,0(sp) # 167f0 <__global_pointer$+0x4b70>
     a16:	0300                	addi	s0,sp,384
     a18:	0504                	addi	s1,sp,640
     a1a:	6e69                	lui	t3,0x1a
     a1c:	0074                	addi	a3,sp,12
     a1e:	0802                	c.slli64	a6
     a20:	8c05                	sub	s0,s0,s1
     a22:	0001                	nop
     a24:	0200                	addi	s0,sp,256
     a26:	0508                	addi	a0,sp,640
     a28:	00000187          	0x187
     a2c:	1002                	c.slli	zero,0x20
     a2e:	7404                	ld	s1,40(s0)
     a30:	04000003          	lb	zero,64(zero) # 40 <_start-0x10070>
     a34:	0345                	addi	t1,t1,17
     a36:	0000                	unimp
     a38:	5e02                	lw	t3,32(sp)
     a3a:	1701                	addi	a4,a4,-32
     a3c:	005d                	c.nop	23
     a3e:	0000                	unimp
     a40:	0402                	c.slli64	s0
     a42:	00014007          	flq	ft0,0(sp)
     a46:	0200                	addi	s0,sp,256
     a48:	0601                	addi	a2,a2,0
     a4a:	043d                	addi	s0,s0,15
     a4c:	0000                	unimp
     a4e:	0102                	c.slli64	sp
     a50:	3b08                	fld	fa0,48(a4)
     a52:	0004                	0x4
     a54:	0200                	addi	s0,sp,256
     a56:	0502                	c.slli64	a0
     a58:	00000457          	0x457
     a5c:	0202                	c.slli64	tp
     a5e:	00030207          	0x30207
     a62:	0500                	addi	s0,sp,640
     a64:	0000040f          	0x40f
     a68:	3b0e2e03          	lw	t3,944(t3) # 1a3b0 <__global_pointer$+0x8730>
     a6c:	0000                	unimp
     a6e:	0500                	addi	s0,sp,640
     a70:	00000513          	li	a0,0
     a74:	3b0e7403          	0x3b0e7403
     a78:	0000                	unimp
     a7a:	0500                	addi	s0,sp,640
     a7c:	000005a7          	0x5a7
     a80:	3b179303          	lh	t1,945(a5)
     a84:	0000                	unimp
     a86:	0600                	addi	s0,sp,768
     a88:	0304                	addi	s1,sp,384
     a8a:	03a5                	addi	t2,t2,9
     a8c:	00c6                	slli	ra,ra,0x11
     a8e:	0000                	unimp
     a90:	00033f07          	fld	ft10,0(t1)
     a94:	0300                	addi	s0,sp,384
     a96:	00500ca7          	0x500ca7
     a9a:	0000                	unimp
     a9c:	0002de07          	0x2de07
     aa0:	0300                	addi	s0,sp,384
     aa2:	13a8                	addi	a0,sp,488
     aa4:	00c6                	slli	ra,ra,0x11
     aa6:	0000                	unimp
     aa8:	0800                	addi	s0,sp,16
     aaa:	0000006b          	0x6b
     aae:	00d6                	slli	ra,ra,0x15
     ab0:	0000                	unimp
     ab2:	2d09                	addiw	s10,s10,2
     ab4:	0000                	unimp
     ab6:	0300                	addi	s0,sp,384
     ab8:	0a00                	addi	s0,sp,272
     aba:	0308                	addi	a0,sp,384
     abc:	09a2                	slli	s3,s3,0x8
     abe:	00fa                	slli	ra,ra,0x1e
     ac0:	0000                	unimp
     ac2:	0004fd0b          	0x4fd0b
     ac6:	0300                	addi	s0,sp,384
     ac8:	07a4                	addi	s1,sp,968
     aca:	0034                	addi	a3,sp,8
     acc:	0000                	unimp
     ace:	0b00                	addi	s0,sp,400
     ad0:	0505                	addi	a0,a0,1
     ad2:	0000                	unimp
     ad4:	a405a903          	lw	s2,-1472(a1) # fffffffffffffc66 <__global_pointer$+0xfffffffffffedfe6>
     ad8:	0000                	unimp
     ada:	0400                	addi	s0,sp,512
     adc:	0500                	addi	s0,sp,640
     ade:	047f                	0x47f
     ae0:	0000                	unimp
     ae2:	d603aa03          	lw	s4,-672(t2)
     ae6:	0000                	unimp
     ae8:	0c00                	addi	s0,sp,528
     aea:	0508                	addi	a0,sp,640
     aec:	055d                	addi	a0,a0,23
     aee:	0000                	unimp
     af0:	1904                	addi	s1,sp,176
     af2:	5d19                	li	s10,-26
     af4:	0000                	unimp
     af6:	0500                	addi	s0,sp,640
     af8:	0429                	addi	s0,s0,10
     afa:	0000                	unimp
     afc:	0c05                	addi	s8,s8,1
     afe:	340d                	addiw	s0,s0,-29
     b00:	0000                	unimp
     b02:	0500                	addi	s0,sp,640
     b04:	02a1                	addi	t0,t0,8
     b06:	0000                	unimp
     b08:	2304                	fld	fs1,0(a4)
     b0a:	0001141b          	slliw	s0,sp,0x0
     b0e:	0d00                	addi	s0,sp,656
     b10:	02b2                	slli	t0,t0,0xc
     b12:	0000                	unimp
     b14:	0420                	addi	s0,sp,520
     b16:	0834                	addi	a3,sp,24
     b18:	0186                	slli	gp,gp,0x1
     b1a:	0000                	unimp
     b1c:	0004a00b          	0x4a00b
     b20:	0400                	addi	s0,sp,512
     b22:	1336                	slli	t1,t1,0x2d
     b24:	0186                	slli	gp,gp,0x1
     b26:	0000                	unimp
     b28:	0e00                	addi	s0,sp,784
     b2a:	6b5f 0400 0737      	0x73704006b5f
     b30:	0034                	addi	a3,sp,8
     b32:	0000                	unimp
     b34:	0b08                	addi	a0,sp,400
     b36:	04e8                	addi	a0,sp,588
     b38:	0000                	unimp
     b3a:	3704                	fld	fs1,40(a4)
     b3c:	0000340b          	0x340b
     b40:	0c00                	addi	s0,sp,528
     b42:	00029b0b          	0x29b0b
     b46:	0400                	addi	s0,sp,512
     b48:	00341437          	lui	s0,0x341
     b4c:	0000                	unimp
     b4e:	0b10                	addi	a2,sp,400
     b50:	0592                	slli	a1,a1,0x4
     b52:	0000                	unimp
     b54:	3704                	fld	fs1,40(a4)
     b56:	0000341b          	0x341b
     b5a:	1400                	addi	s0,sp,544
     b5c:	5f0e                	lw	t5,224(sp)
     b5e:	0078                	addi	a4,sp,12
     b60:	3804                	fld	fs1,48(s0)
     b62:	00018c0b          	0x18c0b
     b66:	1800                	addi	s0,sp,48
     b68:	0f00                	addi	s0,sp,912
     b6a:	2c08                	fld	fa0,24(s0)
     b6c:	0001                	nop
     b6e:	0800                	addi	s0,sp,16
     b70:	0108                	addi	a0,sp,128
     b72:	0000                	unimp
     b74:	019c                	addi	a5,sp,192
     b76:	0000                	unimp
     b78:	2d09                	addiw	s10,s10,2
     b7a:	0000                	unimp
     b7c:	0000                	unimp
     b7e:	0d00                	addi	s0,sp,656
     b80:	02d9                	addi	t0,t0,22
     b82:	0000                	unimp
     b84:	0424                	addi	s1,sp,520
     b86:	083c                	addi	a5,sp,24
     b88:	021f 0000 7e0b      	0x7e0b0000021f
     b8e:	0001                	nop
     b90:	0400                	addi	s0,sp,512
     b92:	093e                	slli	s2,s2,0xf
     b94:	0034                	addi	a3,sp,8
     b96:	0000                	unimp
     b98:	0b00                	addi	s0,sp,400
     b9a:	0000051b          	sext.w	a0,zero
     b9e:	3f04                	fld	fs1,56(a4)
     ba0:	3409                	addiw	s0,s0,-30
     ba2:	0000                	unimp
     ba4:	0400                	addi	s0,sp,512
     ba6:	0001ff0b          	0x1ff0b
     baa:	0400                	addi	s0,sp,512
     bac:	0940                	addi	s0,sp,148
     bae:	0034                	addi	a3,sp,8
     bb0:	0000                	unimp
     bb2:	0b08                	addi	a0,sp,400
     bb4:	061a                	slli	a2,a2,0x6
     bb6:	0000                	unimp
     bb8:	4104                	lw	s1,0(a0)
     bba:	3409                	addiw	s0,s0,-30
     bbc:	0000                	unimp
     bbe:	0c00                	addi	s0,sp,528
     bc0:	0003f10b          	0x3f10b
     bc4:	0400                	addi	s0,sp,512
     bc6:	0942                	slli	s2,s2,0x10
     bc8:	0034                	addi	a3,sp,8
     bca:	0000                	unimp
     bcc:	0b10                	addi	a2,sp,400
     bce:	0361                	addi	t1,t1,24
     bd0:	0000                	unimp
     bd2:	4304                	lw	s1,0(a4)
     bd4:	3409                	addiw	s0,s0,-30
     bd6:	0000                	unimp
     bd8:	1400                	addi	s0,sp,544
     bda:	0005970b          	0x5970b
     bde:	0400                	addi	s0,sp,512
     be0:	0944                	addi	s1,sp,148
     be2:	0034                	addi	a3,sp,8
     be4:	0000                	unimp
     be6:	0b18                	addi	a4,sp,400
     be8:	0461                	addi	s0,s0,24
     bea:	0000                	unimp
     bec:	4504                	lw	s1,8(a0)
     bee:	3409                	addiw	s0,s0,-30
     bf0:	0000                	unimp
     bf2:	1c00                	addi	s0,sp,560
     bf4:	0005d20b          	0x5d20b
     bf8:	0400                	addi	s0,sp,512
     bfa:	0946                	slli	s2,s2,0x11
     bfc:	0034                	addi	a3,sp,8
     bfe:	0000                	unimp
     c00:	0020                	addi	s0,sp,8
     c02:	0e10                	addi	a2,sp,784
     c04:	0002                	c.slli64	zero
     c06:	0800                	addi	s0,sp,16
     c08:	0402                	c.slli64	s0
     c0a:	0265084f          	fnmadd.d	fa6,fa0,ft6,ft0,rne
     c0e:	0000                	unimp
     c10:	00028e0b          	0x28e0b
     c14:	0400                	addi	s0,sp,512
     c16:	0a50                	addi	a2,sp,276
     c18:	0265                	addi	tp,tp,25
     c1a:	0000                	unimp
     c1c:	1100                	addi	s0,sp,160
     c1e:	00b0                	addi	a2,sp,72
     c20:	0000                	unimp
     c22:	5104                	lw	s1,32(a0)
     c24:	6509                	lui	a0,0x2
     c26:	0002                	c.slli64	zero
     c28:	0000                	unimp
     c2a:	1101                	addi	sp,sp,-32
     c2c:	00000543          	fmadd.s	fa0,ft0,ft0,ft0,rne
     c30:	5304                	lw	s1,32(a4)
     c32:	080a                	slli	a6,a6,0x2
     c34:	0001                	nop
     c36:	0000                	unimp
     c38:	1102                	slli	sp,sp,0x20
     c3a:	00000233          	add	tp,zero,zero
     c3e:	5604                	lw	s1,40(a2)
     c40:	080a                	slli	a6,a6,0x2
     c42:	0001                	nop
     c44:	0400                	addi	s0,sp,512
     c46:	0002                	c.slli64	zero
     c48:	0608                	addi	a0,sp,768
     c4a:	0001                	nop
     c4c:	7500                	ld	s0,40(a0)
     c4e:	0002                	c.slli64	zero
     c50:	0900                	addi	s0,sp,144
     c52:	002d                	c.nop	11
     c54:	0000                	unimp
     c56:	001f 5010 0005      	0x55010001f
     c5c:	1800                	addi	s0,sp,48
     c5e:	08620403          	lb	s0,134(tp) # 47744 <__global_pointer$+0x35ac4>
     c62:	02b9                	addi	t0,t0,14
     c64:	0000                	unimp
     c66:	0004a00b          	0x4a00b
     c6a:	0400                	addi	s0,sp,512
     c6c:	02b91263          	bne	s2,a1,c90 <_start-0xf420>
     c70:	0000                	unimp
     c72:	0b00                	addi	s0,sp,400
     c74:	04b8                	addi	a4,sp,584
     c76:	0000                	unimp
     c78:	6404                	ld	s1,8(s0)
     c7a:	3406                	fld	fs0,96(sp)
     c7c:	0000                	unimp
     c7e:	0800                	addi	s0,sp,16
     c80:	0002960b          	0x2960b
     c84:	0400                	addi	s0,sp,512
     c86:	0966                	slli	s2,s2,0x19
     c88:	000002bf 020e1110 	0x20e1110000002bf
     c90:	0000                	unimp
     c92:	6704                	ld	s1,8(a4)
     c94:	1f1e                	slli	t5,t5,0x27
     c96:	0002                	c.slli64	zero
     c98:	1000                	addi	s0,sp,32
     c9a:	0001                	nop
     c9c:	0275080f          	0x275080f
     ca0:	0000                	unimp
     ca2:	cf08                	sw	a0,24(a4)
     ca4:	0002                	c.slli64	zero
     ca6:	cf00                	sw	s0,24(a4)
     ca8:	0002                	c.slli64	zero
     caa:	0900                	addi	s0,sp,144
     cac:	002d                	c.nop	11
     cae:	0000                	unimp
     cb0:	001f 080f 02d5      	0x2d5080f001f
     cb6:	0000                	unimp
     cb8:	0d12                	slli	s10,s10,0x4
     cba:	0000046b          	0x46b
     cbe:	0410                	addi	a2,sp,512
     cc0:	087a                	slli	a6,a6,0x1e
     cc2:	02fe                	slli	t0,t0,0x1f
     cc4:	0000                	unimp
     cc6:	0001f90b          	0x1f90b
     cca:	0400                	addi	s0,sp,512
     ccc:	02fe117b          	0x2fe117b
     cd0:	0000                	unimp
     cd2:	0b00                	addi	s0,sp,400
     cd4:	00bc                	addi	a5,sp,72
     cd6:	0000                	unimp
     cd8:	7c04                	ld	s1,56(s0)
     cda:	3406                	fld	fs0,96(sp)
     cdc:	0000                	unimp
     cde:	0800                	addi	s0,sp,16
     ce0:	0f00                	addi	s0,sp,912
     ce2:	6b08                	ld	a0,16(a4)
     ce4:	0000                	unimp
     ce6:	0d00                	addi	s0,sp,656
     ce8:	048a                	slli	s1,s1,0x2
     cea:	0000                	unimp
     cec:	04b0                	addi	a2,sp,584
     cee:	08ba                	slli	a7,a7,0xe
     cf0:	00000447          	fmsub.s	fs0,ft0,ft0,ft0,rne
     cf4:	5f0e                	lw	t5,224(sp)
     cf6:	0070                	addi	a2,sp,12
     cf8:	bb04                	fsd	fs1,48(a4)
     cfa:	fe12                	sd	tp,312(sp)
     cfc:	0002                	c.slli64	zero
     cfe:	0000                	unimp
     d00:	5f0e                	lw	t5,224(sp)
     d02:	0072                	c.slli	zero,0x1c
     d04:	bc04                	fsd	fs1,56(s0)
     d06:	00003407          	fld	fs0,0(zero) # 0 <_start-0x100b0>
     d0a:	0800                	addi	s0,sp,16
     d0c:	5f0e                	lw	t5,224(sp)
     d0e:	bd040077          	0xbd040077
     d12:	00003407          	fld	fs0,0(zero) # 0 <_start-0x100b0>
     d16:	0c00                	addi	s0,sp,528
     d18:	00022c0b          	0x22c0b
     d1c:	0400                	addi	s0,sp,512
     d1e:	09be                	slli	s3,s3,0xf
     d20:	0072                	c.slli	zero,0x1c
     d22:	0000                	unimp
     d24:	0b10                	addi	a2,sp,400
     d26:	02f5                	addi	t0,t0,29
     d28:	0000                	unimp
     d2a:	bf04                	fsd	fs1,56(a4)
     d2c:	7209                	lui	tp,0xfffe2
     d2e:	0000                	unimp
     d30:	1200                	addi	s0,sp,288
     d32:	5f0e                	lw	t5,224(sp)
     d34:	6662                	ld	a2,24(sp)
     d36:	0400                	addi	s0,sp,512
     d38:	11c0                	addi	s0,sp,228
     d3a:	02d6                	slli	t0,t0,0x15
     d3c:	0000                	unimp
     d3e:	0b18                	addi	a4,sp,400
     d40:	014d                	addi	sp,sp,19
     d42:	0000                	unimp
     d44:	c104                	sw	s1,0(a0)
     d46:	00003407          	fld	fs0,0(zero) # 0 <_start-0x100b0>
     d4a:	2800                	fld	fs0,16(s0)
     d4c:	00021c0b          	0x21c0b
     d50:	0400                	addi	s0,sp,512
     d52:	0ac8                	addi	a0,sp,340
     d54:	0106                	slli	sp,sp,0x1
     d56:	0000                	unimp
     d58:	0b30                	addi	a2,sp,408
     d5a:	02c9                	addi	t0,t0,18
     d5c:	0000                	unimp
     d5e:	ca04                	sw	s1,16(a2)
     d60:	cb1d                	beqz	a4,d96 <_start-0xf31a>
     d62:	0005                	c.nop	1
     d64:	3800                	fld	fs0,48(s0)
     d66:	00035a0b          	0x35a0b
     d6a:	0400                	addi	s0,sp,512
     d6c:	1dcc                	addi	a1,sp,756
     d6e:	05f5                	addi	a1,a1,29
     d70:	0000                	unimp
     d72:	0b40                	addi	s0,sp,404
     d74:	050d                	addi	a0,a0,3
     d76:	0000                	unimp
     d78:	cf04                	sw	s1,24(a4)
     d7a:	190d                	addi	s2,s2,-29
     d7c:	0006                	c.slli	zero,0x1
     d7e:	4800                	lw	s0,16(s0)
     d80:	0005ec0b          	0x5ec0b
     d84:	0400                	addi	s0,sp,512
     d86:	09d0                	addi	a2,sp,212
     d88:	00000633          	add	a2,zero,zero
     d8c:	0e50                	addi	a2,sp,788
     d8e:	755f 0062 d304      	0xd3040062755f
     d94:	d611                	beqz	a2,ca0 <_start-0xf410>
     d96:	0002                	c.slli64	zero
     d98:	5800                	lw	s0,48(s0)
     d9a:	5f0e                	lw	t5,224(sp)
     d9c:	7075                	c.lui	zero,0xffffd
     d9e:	0400                	addi	s0,sp,512
     da0:	12d4                	addi	a3,sp,356
     da2:	02fe                	slli	t0,t0,0x1f
     da4:	0000                	unimp
     da6:	0e68                	addi	a0,sp,796
     da8:	755f 0072 d504      	0xd5040072755f
     dae:	00003407          	fld	fs0,0(zero) # 0 <_start-0x100b0>
     db2:	7000                	ld	s0,32(s0)
     db4:	0001950b          	0x1950b
     db8:	0400                	addi	s0,sp,512
     dba:	11d8                	addi	a4,sp,228
     dbc:	0639                	addi	a2,a2,14
     dbe:	0000                	unimp
     dc0:	0b74                	addi	a3,sp,412
     dc2:	05c4                	addi	s1,sp,708
     dc4:	0000                	unimp
     dc6:	d904                	sw	s1,48(a0)
     dc8:	4911                	li	s2,4
     dca:	0006                	c.slli	zero,0x1
     dcc:	7700                	ld	s0,40(a4)
     dce:	5f0e                	lw	t5,224(sp)
     dd0:	626c                	ld	a1,192(a2)
     dd2:	0400                	addi	s0,sp,512
     dd4:	11dc                	addi	a5,sp,228
     dd6:	02d6                	slli	t0,t0,0x15
     dd8:	0000                	unimp
     dda:	0b78                	addi	a4,sp,412
     ddc:	0242                	slli	tp,tp,0x10
     dde:	0000                	unimp
     de0:	df04                	sw	s1,56(a4)
     de2:	00003407          	fld	fs0,0(zero) # 0 <_start-0x100b0>
     de6:	8800                	0x8800
     de8:	0002670b          	0x2670b
     dec:	0400                	addi	s0,sp,512
     dee:	0ae0                	addi	s0,sp,348
     df0:	0080                	addi	s0,sp,64
     df2:	0000                	unimp
     df4:	0b90                	addi	a2,sp,464
     df6:	07c6                	slli	a5,a5,0x11
     df8:	0000                	unimp
     dfa:	e304                	sd	s1,0(a4)
     dfc:	6512                	ld	a0,256(sp)
     dfe:	0004                	0x4
     e00:	9800                	0x9800
     e02:	00034c0b          	0x34c0b
     e06:	0400                	addi	s0,sp,512
     e08:	01200ce7          	jalr	s9,18(zero) # 0 <_start-0x100b0>
     e0c:	0000                	unimp
     e0e:	0ba0                	addi	s0,sp,472
     e10:	0492                	slli	s1,s1,0x4
     e12:	0000                	unimp
     e14:	e904                	sd	s1,16(a0)
     e16:	fa0e                	sd	gp,304(sp)
     e18:	0000                	unimp
     e1a:	a400                	fsd	fs0,8(s0)
     e1c:	0003520b          	0x3520b
     e20:	0400                	addi	s0,sp,512
     e22:	09ea                	slli	s3,s3,0x1a
     e24:	0034                	addi	a3,sp,8
     e26:	0000                	unimp
     e28:	00ac                	addi	a1,sp,72
     e2a:	00009813          	slli	a6,ra,0x0
     e2e:	6500                	ld	s0,8(a0)
     e30:	0004                	0x4
     e32:	1400                	addi	s0,sp,544
     e34:	0465                	addi	s0,s0,25
     e36:	0000                	unimp
     e38:	0614                	addi	a3,sp,768
     e3a:	0001                	nop
     e3c:	1400                	addi	s0,sp,544
     e3e:	05b9                	addi	a1,a1,14
     e40:	0000                	unimp
     e42:	3414                	fld	fa3,40(s0)
     e44:	0000                	unimp
     e46:	0000                	unimp
     e48:	0470080f          	0x470080f
     e4c:	0000                	unimp
     e4e:	6515                	lui	a0,0x5
     e50:	0004                	0x4
     e52:	1600                	addi	s0,sp,800
     e54:	04f0                	addi	a2,sp,588
     e56:	0000                	unimp
     e58:	0748                	addi	a0,sp,900
     e5a:	6504                	ld	s1,8(a0)
     e5c:	0802                	c.slli64	a6
     e5e:	05b9                	addi	a1,a1,14
     e60:	0000                	unimp
     e62:	000a6117          	auipc	sp,0xa6
     e66:	0400                	addi	s0,sp,512
     e68:	34070267          	jalr	tp,832(a4)
     e6c:	0000                	unimp
     e6e:	0000                	unimp
     e70:	00023b17          	auipc	s6,0x23
     e74:	0400                	addi	s0,sp,512
     e76:	026c                	addi	a1,sp,268
     e78:	0006a50b          	0x6a50b
     e7c:	0800                	addi	s0,sp,16
     e7e:	0002e517          	auipc	a0,0x2e
     e82:	0400                	addi	s0,sp,512
     e84:	026c                	addi	a1,sp,268
     e86:	a514                	fsd	fa3,8(a0)
     e88:	0006                	c.slli	zero,0x1
     e8a:	1000                	addi	s0,sp,32
     e8c:	0002aa17          	auipc	s4,0x2a
     e90:	0400                	addi	s0,sp,512
     e92:	026c                	addi	a1,sp,268
     e94:	a51e                	fsd	ft7,136(sp)
     e96:	0006                	c.slli	zero,0x1
     e98:	1800                	addi	s0,sp,48
     e9a:	0004b317          	auipc	t1,0x4b
     e9e:	0400                	addi	s0,sp,512
     ea0:	026e                	slli	tp,tp,0x1b
     ea2:	3408                	fld	fa0,40(s0)
     ea4:	0000                	unimp
     ea6:	2000                	fld	fs0,0(s0)
     ea8:	00010b17          	auipc	s6,0x10
     eac:	0400                	addi	s0,sp,512
     eae:	ae08026f          	jal	tp,fffffffffff8118e <__global_pointer$+0xfffffffffff6f50e>
     eb2:	0008                	0x8
     eb4:	2400                	fld	fs0,8(s0)
     eb6:	0004cf17          	auipc	t5,0x4c
     eba:	0400                	addi	s0,sp,512
     ebc:	0272                	slli	tp,tp,0x1c
     ebe:	00003407          	fld	fs0,0(zero) # 0 <_start-0x100b0>
     ec2:	4000                	lw	s0,0(s0)
     ec4:	0004bd17          	auipc	s10,0x4b
     ec8:	0400                	addi	s0,sp,512
     eca:	c3160273          	0xc3160273
     ece:	0008                	0x8
     ed0:	4800                	lw	s0,16(s0)
     ed2:	00040417          	auipc	s0,0x40
     ed6:	0400                	addi	s0,sp,512
     ed8:	0275                	addi	tp,tp,29
     eda:	00003407          	fld	fs0,0(zero) # 0 <_start-0x100b0>
     ede:	5000                	lw	s0,32(s0)
     ee0:	0004c517          	auipc	a0,0x4c
     ee4:	0400                	addi	s0,sp,512
     ee6:	d40a0277          	0xd40a0277
     eea:	0008                	0x8
     eec:	5800                	lw	s0,48(s0)
     eee:	00033717          	auipc	a4,0x33
     ef2:	0400                	addi	s0,sp,512
     ef4:	027a                	slli	tp,tp,0x1e
     ef6:	00018613          	mv	a2,gp
     efa:	6000                	ld	s0,0(s0)
     efc:	0002cf17          	auipc	t5,0x2c
     f00:	0400                	addi	s0,sp,512
     f02:	3407027b          	0x3407027b
     f06:	0000                	unimp
     f08:	6800                	ld	s0,16(s0)
     f0a:	00060617          	auipc	a2,0x60
     f0e:	0400                	addi	s0,sp,512
     f10:	027c                	addi	a5,sp,268
     f12:	00018613          	mv	a2,gp
     f16:	7000                	ld	s0,32(s0)
     f18:	00041f17          	auipc	t5,0x41
     f1c:	0400                	addi	s0,sp,512
     f1e:	027d                	addi	tp,tp,31
     f20:	da14                	sw	a3,48(a2)
     f22:	0008                	0x8
     f24:	7800                	ld	s0,48(s0)
     f26:	0002ed17          	auipc	s10,0x2e
     f2a:	0400                	addi	s0,sp,512
     f2c:	0280                	addi	s0,sp,320
     f2e:	00003407          	fld	fs0,0(zero) # 0 <_start-0x100b0>
     f32:	8000                	0x8000
     f34:	00025f17          	auipc	t5,0x25
     f38:	0400                	addi	s0,sp,512
     f3a:	0281                	addi	t0,t0,0
     f3c:	b909                	j	b4e <_start-0xf562>
     f3e:	0005                	c.nop	1
     f40:	8800                	0x8800
     f42:	00044917          	auipc	s2,0x44
     f46:	0400                	addi	s0,sp,512
     f48:	02a4                	addi	s1,sp,328
     f4a:	00088807          	0x88807
     f4e:	9000                	0x9000
     f50:	5018                	lw	a4,32(s0)
     f52:	0005                	c.nop	1
     f54:	0400                	addi	s0,sp,512
     f56:	02a8                	addi	a0,sp,328
     f58:	0002b913          	sltiu	s2,t0,0
     f5c:	f800                	sd	s0,48(s0)
     f5e:	1801                	addi	a6,a6,-32
     f60:	0315                	addi	t1,t1,5
     f62:	0000                	unimp
     f64:	a904                	fsd	fs1,16(a0)
     f66:	1202                	slli	tp,tp,0x20
     f68:	0275                	addi	tp,tp,29
     f6a:	0000                	unimp
     f6c:	0200                	addi	s0,sp,256
     f6e:	ba18                	fsd	fa4,48(a2)
     f70:	0005                	c.nop	1
     f72:	0400                	addi	s0,sp,512
     f74:	02ad                	addi	t0,t0,11
     f76:	eb0c                	sd	a1,16(a4)
     f78:	0008                	0x8
     f7a:	1800                	addi	s0,sp,48
     f7c:	1805                	addi	a6,a6,-31
     f7e:	0224                	addi	s1,sp,264
     f80:	0000                	unimp
     f82:	b204                	fsd	fs1,32(a2)
     f84:	1002                	c.slli	zero,0x20
     f86:	0666                	slli	a2,a2,0x19
     f88:	0000                	unimp
     f8a:	0520                	addi	s0,sp,648
     f8c:	0918                	addi	a4,sp,144
     f8e:	0002                	c.slli64	zero
     f90:	0400                	addi	s0,sp,512
     f92:	02b4                	addi	a3,sp,328
     f94:	f70a                	sd	sp,424(sp)
     f96:	0008                	0x8
     f98:	3800                	fld	fs0,48(s0)
     f9a:	0005                	c.nop	1
     f9c:	05bf080f          	0x5bf080f
     fa0:	0000                	unimp
     fa2:	0102                	c.slli64	sp
     fa4:	4408                	lw	a0,8(s0)
     fa6:	0004                	0x4
     fa8:	1500                	addi	s0,sp,672
     faa:	000005bf 0447080f 	0x447080f000005bf
     fb2:	0000                	unimp
     fb4:	00009813          	slli	a6,ra,0x0
     fb8:	ef00                	sd	s0,24(a4)
     fba:	0005                	c.nop	1
     fbc:	1400                	addi	s0,sp,544
     fbe:	0465                	addi	s0,s0,25
     fc0:	0000                	unimp
     fc2:	0614                	addi	a3,sp,768
     fc4:	0001                	nop
     fc6:	1400                	addi	s0,sp,544
     fc8:	000005ef          	jal	a1,fc8 <_start-0xf0e8>
     fcc:	3414                	fld	fa3,40(s0)
     fce:	0000                	unimp
     fd0:	0000                	unimp
     fd2:	05c6080f          	0x5c6080f
     fd6:	0000                	unimp
     fd8:	05d1080f          	0x5d1080f
     fdc:	0000                	unimp
     fde:	00008c13          	mv	s8,ra
     fe2:	1900                	addi	s0,sp,176
     fe4:	0006                	c.slli	zero,0x1
     fe6:	1400                	addi	s0,sp,544
     fe8:	0465                	addi	s0,s0,25
     fea:	0000                	unimp
     fec:	0614                	addi	a3,sp,768
     fee:	0001                	nop
     ff0:	1400                	addi	s0,sp,544
     ff2:	008c                	addi	a1,sp,64
     ff4:	0000                	unimp
     ff6:	3414                	fld	fa3,40(s0)
     ff8:	0000                	unimp
     ffa:	0000                	unimp
     ffc:	05fb080f          	0x5fb080f
    1000:	0000                	unimp
    1002:	00003413          	sltiu	s0,zero,0
    1006:	3300                	fld	fs0,32(a4)
    1008:	0006                	c.slli	zero,0x1
    100a:	1400                	addi	s0,sp,544
    100c:	0465                	addi	s0,s0,25
    100e:	0000                	unimp
    1010:	0614                	addi	a3,sp,768
    1012:	0001                	nop
    1014:	0000                	unimp
    1016:	061f080f          	0x61f080f
    101a:	0000                	unimp
    101c:	6b08                	ld	a0,16(a4)
    101e:	0000                	unimp
    1020:	4900                	lw	s0,16(a0)
    1022:	0006                	c.slli	zero,0x1
    1024:	0900                	addi	s0,sp,144
    1026:	002d                	c.nop	11
    1028:	0000                	unimp
    102a:	0002                	c.slli64	zero
    102c:	6b08                	ld	a0,16(a4)
    102e:	0000                	unimp
    1030:	5900                	lw	s0,48(a0)
    1032:	0006                	c.slli	zero,0x1
    1034:	0900                	addi	s0,sp,144
    1036:	002d                	c.nop	11
    1038:	0000                	unimp
    103a:	0000                	unimp
    103c:	7804                	ld	s1,48(s0)
    103e:	0004                	0x4
    1040:	0400                	addi	s0,sp,512
    1042:	0124                	addi	s1,sp,136
    1044:	041a                	slli	s0,s0,0x6
    1046:	19000003          	lb	zero,400(zero) # 190 <_start-0xff20>
    104a:	05a1                	addi	a1,a1,8
    104c:	0000                	unimp
    104e:	0418                	addi	a4,sp,512
    1050:	0128                	addi	a0,sp,136
    1052:	9f08                	0x9f08
    1054:	0006                	c.slli	zero,0x1
    1056:	1700                	addi	s0,sp,928
    1058:	04a0                	addi	s0,sp,584
    105a:	0000                	unimp
    105c:	2a04                	fld	fs1,16(a2)
    105e:	1101                	addi	sp,sp,-32
    1060:	069f 0000 1700      	0x17000000069f
    1066:	000002fb          	0x2fb
    106a:	2b04                	fld	fs1,16(a4)
    106c:	0701                	addi	a4,a4,0
    106e:	0034                	addi	a3,sp,8
    1070:	0000                	unimp
    1072:	1708                	addi	a0,sp,928
    1074:	0472                	slli	s0,s0,0x1c
    1076:	0000                	unimp
    1078:	2c04                	fld	fs1,24(s0)
    107a:	0b01                	addi	s6,s6,0
    107c:	06a5                	addi	a3,a3,9
    107e:	0000                	unimp
    1080:	0010                	0x10
    1082:	0666080f          	0x666080f
    1086:	0000                	unimp
    1088:	0659080f          	0x659080f
    108c:	0000                	unimp
    108e:	0319                	addi	t1,t1,6
    1090:	0001                	nop
    1092:	0e00                	addi	s0,sp,784
    1094:	4404                	lw	s1,8(s0)
    1096:	0801                	addi	a6,a6,0
    1098:	06e4                	addi	s1,sp,844
    109a:	0000                	unimp
    109c:	0004f717          	auipc	a4,0x4f
    10a0:	0400                	addi	s0,sp,512
    10a2:	0145                	addi	sp,sp,17
    10a4:	e412                	sd	tp,8(sp)
    10a6:	0006                	c.slli	zero,0x1
    10a8:	0000                	unimp
    10aa:	00052417          	auipc	s0,0x52
    10ae:	0400                	addi	s0,sp,512
    10b0:	0146                	slli	sp,sp,0x11
    10b2:	e412                	sd	tp,8(sp)
    10b4:	0006                	c.slli	zero,0x1
    10b6:	0600                	addi	s0,sp,768
    10b8:	00055817          	auipc	a6,0x55
    10bc:	0400                	addi	s0,sp,512
    10be:	79120147          	fmsub.s	ft2,ft4,fa7,fa5,rne
    10c2:	0000                	unimp
    10c4:	0c00                	addi	s0,sp,528
    10c6:	0800                	addi	s0,sp,16
    10c8:	0079                	c.nop	30
    10ca:	0000                	unimp
    10cc:	06f4                	addi	a3,sp,844
    10ce:	0000                	unimp
    10d0:	2d09                	addiw	s10,s10,2
    10d2:	0000                	unimp
    10d4:	0200                	addi	s0,sp,256
    10d6:	1a00                	addi	s0,sp,304
    10d8:	04d8                	addi	a4,sp,580
    10da:	0285                	addi	t0,t0,1
    10dc:	00080907          	0x80907
    10e0:	1700                	addi	s0,sp,928
    10e2:	0585                	addi	a1,a1,1
    10e4:	0000                	unimp
    10e6:	8704                	0x8704
    10e8:	1802                	slli	a6,a6,0x20
    10ea:	005d                	c.nop	23
    10ec:	0000                	unimp
    10ee:	1700                	addi	s0,sp,928
    10f0:	052a                	slli	a0,a0,0xa
    10f2:	0000                	unimp
    10f4:	8804                	0x8804
    10f6:	1202                	slli	tp,tp,0x20
    10f8:	05b9                	addi	a1,a1,14
    10fa:	0000                	unimp
    10fc:	1708                	addi	a0,sp,928
    10fe:	032a                	slli	t1,t1,0xa
    1100:	0000                	unimp
    1102:	8904                	0x8904
    1104:	1002                	c.slli	zero,0x20
    1106:	0809                	addi	a6,a6,2
    1108:	0000                	unimp
    110a:	1710                	addi	a2,sp,928
    110c:	05dd                	addi	a1,a1,23
    110e:	0000                	unimp
    1110:	8a04                	0x8a04
    1112:	1702                	slli	a4,a4,0x20
    1114:	019c                	addi	a5,sp,192
    1116:	0000                	unimp
    1118:	172c                	addi	a1,sp,936
    111a:	02ba                	slli	t0,t0,0xe
    111c:	0000                	unimp
    111e:	8b04                	0x8b04
    1120:	0f02                	c.slli64	t5
    1122:	0034                	addi	a3,sp,8
    1124:	0000                	unimp
    1126:	1750                	addi	a2,sp,932
    1128:	0000049b          	sext.w	s1,zero
    112c:	8c04                	0x8c04
    112e:	2c02                	fld	fs8,0(sp)
    1130:	0819                	addi	a6,a6,6
    1132:	0000                	unimp
    1134:	1758                	addi	a4,sp,932
    1136:	000005f3          	0x5f3
    113a:	8d04                	0x8d04
    113c:	1a02                	slli	s4,s4,0x20
    113e:	000006ab          	0x6ab
    1142:	1760                	addi	s0,sp,940
    1144:	04a6                	slli	s1,s1,0x9
    1146:	0000                	unimp
    1148:	8e04                	0x8e04
    114a:	1602                	slli	a2,a2,0x20
    114c:	00fa                	slli	ra,ra,0x1e
    114e:	0000                	unimp
    1150:	1770                	addi	a2,sp,940
    1152:	05f8                	addi	a4,sp,716
    1154:	0000                	unimp
    1156:	8f04                	0x8f04
    1158:	1602                	slli	a2,a2,0x20
    115a:	00fa                	slli	ra,ra,0x1e
    115c:	0000                	unimp
    115e:	1778                	addi	a4,sp,940
    1160:	0170                	addi	a2,sp,140
    1162:	0000                	unimp
    1164:	9004                	0x9004
    1166:	1602                	slli	a2,a2,0x20
    1168:	00fa                	slli	ra,ra,0x1e
    116a:	0000                	unimp
    116c:	1780                	addi	s0,sp,992
    116e:	05b0                	addi	a2,sp,712
    1170:	0000                	unimp
    1172:	9104                	0x9104
    1174:	1002                	c.slli	zero,0x20
    1176:	0820                	addi	s0,sp,24
    1178:	0000                	unimp
    117a:	1788                	addi	a0,sp,992
    117c:	031e                	slli	t1,t1,0x7
    117e:	0000                	unimp
    1180:	9204                	0x9204
    1182:	1002                	c.slli	zero,0x20
    1184:	0830                	addi	a2,sp,24
    1186:	0000                	unimp
    1188:	1790                	addi	a2,sp,992
    118a:	0565                	addi	a0,a0,25
    118c:	0000                	unimp
    118e:	9304                	0x9304
    1190:	0f02                	c.slli64	t5
    1192:	0034                	addi	a3,sp,8
    1194:	0000                	unimp
    1196:	17a8                	addi	a0,sp,1000
    1198:	0280                	addi	s0,sp,320
    119a:	0000                	unimp
    119c:	9404                	0x9404
    119e:	1602                	slli	a2,a2,0x20
    11a0:	00fa                	slli	ra,ra,0x1e
    11a2:	0000                	unimp
    11a4:	17ac                	addi	a1,sp,1000
    11a6:	0161                	addi	sp,sp,24
    11a8:	0000                	unimp
    11aa:	9504                	0x9504
    11ac:	1602                	slli	a2,a2,0x20
    11ae:	00fa                	slli	ra,ra,0x1e
    11b0:	0000                	unimp
    11b2:	17b4                	addi	a3,sp,1000
    11b4:	0000026f          	jal	tp,11b4 <_start-0xeefc>
    11b8:	9604                	0x9604
    11ba:	1602                	slli	a2,a2,0x20
    11bc:	00fa                	slli	ra,ra,0x1e
    11be:	0000                	unimp
    11c0:	17bc                	addi	a5,sp,1000
    11c2:	0116                	slli	sp,sp,0x5
    11c4:	0000                	unimp
    11c6:	9704                	0x9704
    11c8:	1602                	slli	a2,a2,0x20
    11ca:	00fa                	slli	ra,ra,0x1e
    11cc:	0000                	unimp
    11ce:	17c4                	addi	s1,sp,996
    11d0:	0125                	addi	sp,sp,9
    11d2:	0000                	unimp
    11d4:	9804                	0x9804
    11d6:	1602                	slli	a2,a2,0x20
    11d8:	00fa                	slli	ra,ra,0x1e
    11da:	0000                	unimp
    11dc:	17cc                	addi	a1,sp,996
    11de:	044e                	slli	s0,s0,0x13
    11e0:	0000                	unimp
    11e2:	9904                	0x9904
    11e4:	0802                	c.slli64	a6
    11e6:	0034                	addi	a3,sp,8
    11e8:	0000                	unimp
    11ea:	00d4                	addi	a3,sp,68
    11ec:	bf08                	fsd	fa0,56(a4)
    11ee:	0005                	c.nop	1
    11f0:	1900                	addi	s0,sp,176
    11f2:	0008                	0x8
    11f4:	0900                	addi	s0,sp,144
    11f6:	002d                	c.nop	11
    11f8:	0000                	unimp
    11fa:	0019                	c.nop	6
    11fc:	0802                	c.slli64	a6
    11fe:	00013607          	fld	fa2,0(sp) # a6e62 <__global_pointer$+0x951e2>
    1202:	0800                	addi	s0,sp,16
    1204:	000005bf 00000830 	0x830000005bf
    120c:	2d09                	addiw	s10,s10,2
    120e:	0000                	unimp
    1210:	0700                	addi	s0,sp,896
    1212:	0800                	addi	s0,sp,16
    1214:	000005bf 00000840 	0x840000005bf
    121c:	2d09                	addiw	s10,s10,2
    121e:	0000                	unimp
    1220:	1700                	addi	s0,sp,928
    1222:	1b00                	addi	s0,sp,432
    1224:	0168                	addi	a0,sp,140
    1226:	9e04                	0x9e04
    1228:	0702                	c.slli64	a4
    122a:	0868                	addi	a0,sp,28
    122c:	0000                	unimp
    122e:	00038017          	auipc	zero,0x38
    1232:	0400                	addi	s0,sp,512
    1234:	02a1                	addi	t0,t0,8
    1236:	0008681b          	0x8681b
    123a:	0000                	unimp
    123c:	00036b17          	auipc	s6,0x36
    1240:	0400                	addi	s0,sp,512
    1242:	02a2                	slli	t0,t0,0x8
    1244:	7818                	ld	a4,48(s0)
    1246:	0008                	0x8
    1248:	f000                	sd	s0,32(s0)
    124a:	0800                	addi	s0,sp,16
    124c:	02fe                	slli	t0,t0,0x1f
    124e:	0000                	unimp
    1250:	0878                	addi	a4,sp,28
    1252:	0000                	unimp
    1254:	2d09                	addiw	s10,s10,2
    1256:	0000                	unimp
    1258:	1d00                	addi	s0,sp,688
    125a:	0800                	addi	s0,sp,16
    125c:	005d                	c.nop	23
    125e:	0000                	unimp
    1260:	0888                	addi	a0,sp,80
    1262:	0000                	unimp
    1264:	2d09                	addiw	s10,s10,2
    1266:	0000                	unimp
    1268:	1d00                	addi	s0,sp,688
    126a:	1c00                	addi	s0,sp,560
    126c:	0168                	addi	a0,sp,140
    126e:	8304                	0x8304
    1270:	0302                	c.slli64	t1
    1272:	08ae                	slli	a7,a7,0xb
    1274:	0000                	unimp
    1276:	f01d                	bnez	s0,119c <_start-0xef14>
    1278:	0004                	0x4
    127a:	0400                	addi	s0,sp,512
    127c:	029a                	slli	t0,t0,0x6
    127e:	0006f40b          	0x6f40b
    1282:	1d00                	addi	s0,sp,688
    1284:	05ca                	slli	a1,a1,0x12
    1286:	0000                	unimp
    1288:	a304                	fsd	fs1,0(a4)
    128a:	0b02                	c.slli64	s6
    128c:	0840                	addi	s0,sp,20
    128e:	0000                	unimp
    1290:	0800                	addi	s0,sp,16
    1292:	000005bf 000008be 	0x8be000005bf
    129a:	2d09                	addiw	s10,s10,2
    129c:	0000                	unimp
    129e:	1800                	addi	s0,sp,48
    12a0:	1e00                	addi	s0,sp,816
    12a2:	0156                	slli	sp,sp,0x15
    12a4:	0000                	unimp
    12a6:	08be080f          	0x8be080f
    12aa:	0000                	unimp
    12ac:	d41f 0008 1400      	0x14000008d41f
    12b2:	0465                	addi	s0,s0,25
    12b4:	0000                	unimp
    12b6:	0f00                	addi	s0,sp,912
    12b8:	c908                	sw	a0,16(a0)
    12ba:	0008                	0x8
    12bc:	0f00                	addi	s0,sp,912
    12be:	8608                	0x8608
    12c0:	0001                	nop
    12c2:	1f00                	addi	s0,sp,944
    12c4:	000008eb          	0x8eb
    12c8:	3414                	fld	fa3,40(s0)
    12ca:	0000                	unimp
    12cc:	0000                	unimp
    12ce:	08f1080f          	0x8f1080f
    12d2:	0000                	unimp
    12d4:	08e0080f          	0x8e0080f
    12d8:	0000                	unimp
    12da:	5908                	lw	a0,48(a0)
    12dc:	0006                	c.slli	zero,0x1
    12de:	0700                	addi	s0,sp,896
    12e0:	0009                	c.nop	2
    12e2:	0900                	addi	s0,sp,144
    12e4:	002d                	c.nop	11
    12e6:	0000                	unimp
    12e8:	0002                	c.slli64	zero
    12ea:	7920                	ld	s0,112(a0)
    12ec:	0005                	c.nop	1
    12ee:	0400                	addi	s0,sp,512
    12f0:	65170333          	0x65170333
    12f4:	0004                	0x4
    12f6:	2000                	fld	fs0,0(s0)
    12f8:	0572                	slli	a0,a0,0x1c
    12fa:	0000                	unimp
    12fc:	3404                	fld	fs1,40(s0)
    12fe:	046b1d03          	lh	s10,70(s6) # 37282 <__global_pointer$+0x25602>
    1302:	0000                	unimp
    1304:	fa21                	bnez	a2,1254 <_start-0xee5c>
    1306:	06000003          	lb	zero,96(zero) # 60 <_start-0x10050>
    130a:	05b90e67          	jalr	t3,91(s2) # 44f9d <__global_pointer$+0x3331d>
    130e:	0000                	unimp
    1310:	6921                	lui	s2,0x8
    1312:	0006                	c.slli	zero,0x1
    1314:	0700                	addi	s0,sp,896
    1316:	0f10                	addi	a2,sp,912
    1318:	0939                	addi	s2,s2,14
    131a:	0000                	unimp
    131c:	05b9080f          	0x5b9080f
    1320:	0000                	unimp
    1322:	fd21                	bnez	a0,127a <_start-0xee36>
    1324:	07000003          	lb	zero,112(zero) # 70 <_start-0x10040>
    1328:	0efc                	addi	a5,sp,860
    132a:	05b9                	addi	a1,a1,14
    132c:	0000                	unimp
    132e:	7a21                	lui	s4,0xfffe8
    1330:	0006                	c.slli	zero,0x1
    1332:	0700                	addi	s0,sp,896
    1334:	0cfd                	addi	s9,s9,31
    1336:	0034                	addi	a3,sp,8
    1338:	0000                	unimp
    133a:	9221                	srli	a2,a2,0x28
    133c:	0006                	c.slli	zero,0x1
    133e:	0700                	addi	s0,sp,896
    1340:	14fd                	addi	s1,s1,-1
    1342:	0034                	addi	a3,sp,8
    1344:	0000                	unimp
    1346:	9e21                	addw	a2,a2,s0
    1348:	0006                	c.slli	zero,0x1
    134a:	0700                	addi	s0,sp,896
    134c:	1cfd                	addi	s9,s9,-1
    134e:	0034                	addi	a3,sp,8
    1350:	0000                	unimp
    1352:	7121                	addi	sp,sp,-448
    1354:	0006                	c.slli	zero,0x1
    1356:	0700                	addi	s0,sp,896
    1358:	0cff                	0xcff
    135a:	0034                	addi	a3,sp,8
    135c:	0000                	unimp
    135e:	2522                	fld	fa0,8(sp)
    1360:	0006                	c.slli	zero,0x1
    1362:	0600                	addi	s0,sp,768
    1364:	065d                	addi	a2,a2,23
    1366:	019c                	addi	a5,sp,192
    1368:	0001                	nop
    136a:	0000                	unimp
    136c:	0000                	unimp
    136e:	001e                	c.slli	zero,0x7
    1370:	0000                	unimp
    1372:	0000                	unimp
    1374:	0000                	unimp
    1376:	9c01                	subw	s0,s0,s0
    1378:	000009db          	0x9db
    137c:	00069923          	sh	zero,18(a3)
    1380:	0100                	addi	s0,sp,128
    1382:	0b35                	addi	s6,s6,13
    1384:	0034                	addi	a3,sp,8
    1386:	0000                	unimp
    1388:	004c                	addi	a1,sp,4
    138a:	0000                	unimp
    138c:	aa24                	fsd	fs1,80(a2)
    138e:	0101                	addi	sp,sp,0
    1390:	0000                	unimp
    1392:	0000                	unimp
    1394:	db00                	sw	s0,48(a4)
    1396:	0009                	c.nop	2
    1398:	c600                	sw	s0,8(a2)
    139a:	0009                	c.nop	2
    139c:	2500                	fld	fs0,8(a0)
    139e:	5a01                	li	s4,-32
    13a0:	7802                	ld	a6,32(sp)
    13a2:	2500                	fld	fs0,8(a0)
    13a4:	5b01                	li	s6,-32
    13a6:	3001                	0x3001
    13a8:	2600                	fld	fs0,8(a2)
    13aa:	01ba                	slli	gp,gp,0xe
    13ac:	0001                	nop
    13ae:	0000                	unimp
    13b0:	0000                	unimp
    13b2:	000009e7          	jalr	s3,zero # 0 <_start-0x100b0>
    13b6:	0125                	addi	sp,sp,9
    13b8:	025a                	slli	tp,tp,0x16
    13ba:	0078                	addi	a4,sp,12
    13bc:	0000                	unimp
    13be:	00068127          	0x68127
    13c2:	8100                	0x8100
    13c4:	0006                	c.slli	zero,0x1
    13c6:	0800                	addi	s0,sp,16
    13c8:	060c                	addi	a1,sp,768
    13ca:	00062427          	fsw	ft0,8(a2) # 60f12 <__global_pointer$+0x4f292>
    13ce:	2400                	fld	fs0,8(s0)
    13d0:	0006                	c.slli	zero,0x1
    13d2:	0700                	addi	s0,sp,896
    13d4:	0612                	slli	a2,a2,0x4
    13d6:	e600                	sd	s0,8(a2)
    13d8:	0000                	unimp
    13da:	0400                	addi	s0,sp,512
    13dc:	7d00                	ld	s0,56(a0)
    13de:	0004                	0x4
    13e0:	0800                	addi	s0,sp,16
    13e2:	9b01                	andi	a4,a4,-32
    13e4:	0001                	nop
    13e6:	0c00                	addi	s0,sp,528
    13e8:	06c9                	addi	a3,a3,18
    13ea:	0000                	unimp
    13ec:	0718                	addi	a4,sp,896
    13ee:	0000                	unimp
    13f0:	01ba                	slli	gp,gp,0xe
    13f2:	0001                	nop
    13f4:	0000                	unimp
    13f6:	0000                	unimp
    13f8:	0034                	addi	a3,sp,8
    13fa:	0000                	unimp
    13fc:	0000                	unimp
    13fe:	0000                	unimp
    1400:	0434                	addi	a3,sp,520
    1402:	0000                	unimp
    1404:	0102                	c.slli64	sp
    1406:	3d06                	fld	fs10,96(sp)
    1408:	0004                	0x4
    140a:	0200                	addi	s0,sp,256
    140c:	0801                	addi	a6,a6,0
    140e:	0000043b          	addw	s0,zero,zero
    1412:	0202                	c.slli64	tp
    1414:	5705                	li	a4,-31
    1416:	0004                	0x4
    1418:	0200                	addi	s0,sp,256
    141a:	0702                	c.slli64	a4
    141c:	0302                	c.slli64	t1
    141e:	0000                	unimp
    1420:	69050403          	lb	s0,1680(a0) # 4d570 <__global_pointer$+0x3b8f0>
    1424:	746e                	ld	s0,248(sp)
    1426:	0200                	addi	s0,sp,256
    1428:	0704                	addi	s1,sp,896
    142a:	0140                	addi	s0,sp,132
    142c:	0000                	unimp
    142e:	0802                	c.slli64	a6
    1430:	8c05                	sub	s0,s0,s1
    1432:	0001                	nop
    1434:	0200                	addi	s0,sp,256
    1436:	0708                	addi	a0,sp,896
    1438:	0000013b          	addw	sp,zero,zero
    143c:	a904                	fsd	fs1,16(a0)
    143e:	0005                	c.nop	1
    1440:	0200                	addi	s0,sp,256
    1442:	17d1                	addi	a5,a5,-12
    1444:	005e                	c.slli	zero,0x17
    1446:	0000                	unimp
    1448:	0802                	c.slli64	a6
    144a:	8705                	srai	a4,a4,0x1
    144c:	0001                	nop
    144e:	0200                	addi	s0,sp,256
    1450:	0410                	addi	a2,sp,512
    1452:	0374                	addi	a3,sp,396
    1454:	0000                	unimp
    1456:	0102                	c.slli64	sp
    1458:	4408                	lw	a0,8(s0)
    145a:	0004                	0x4
    145c:	0500                	addi	s0,sp,640
    145e:	0091                	addi	ra,ra,4
    1460:	0000                	unimp
    1462:	0091                	addi	ra,ra,4
    1464:	0000                	unimp
    1466:	0006                	c.slli	zero,0x1
    1468:	00970807          	0x970807
    146c:	0000                	unimp
    146e:	0908                	addi	a0,sp,144
    1470:	06a5                	addi	a3,a3,9
    1472:	0000                	unimp
    1474:	1101                	addi	sp,sp,-32
    1476:	0000860f          	0x860f
    147a:	0900                	addi	s0,sp,144
    147c:	06b8                	addi	a4,sp,840
    147e:	0000                	unimp
    1480:	1201                	addi	tp,tp,-32
    1482:	0000860f          	0x860f
    1486:	0a00                	addi	s0,sp,272
    1488:	0706                	slli	a4,a4,0x1
    148a:	0000                	unimp
    148c:	1a01                	addi	s4,s4,-32
    148e:	ba01                	j	d9e <_start-0xf312>
    1490:	0101                	addi	sp,sp,0
    1492:	0000                	unimp
    1494:	0000                	unimp
    1496:	3400                	fld	fs0,40(s0)
    1498:	0000                	unimp
    149a:	0000                	unimp
    149c:	0000                	unimp
    149e:	0100                	addi	s0,sp,128
    14a0:	0b9c                	addi	a5,sp,464
    14a2:	04ff                	0x4ff
    14a4:	0000                	unimp
    14a6:	1c01                	addi	s8,s8,-32
    14a8:	650a                	ld	a0,128(sp)
    14aa:	0000                	unimp
    14ac:	8500                	0x8500
    14ae:	0000                	unimp
    14b0:	0c00                	addi	s0,sp,528
    14b2:	0069                	c.nop	26
    14b4:	1d01                	addi	s10,s10,-32
    14b6:	650a                	ld	a0,128(sp)
    14b8:	0000                	unimp
    14ba:	a800                	fsd	fs0,16(s0)
    14bc:	0000                	unimp
    14be:	0000                	unimp
    14c0:	4200                	lw	s0,0(a2)
    14c2:	0009                	c.nop	2
    14c4:	0400                	addi	s0,sp,512
    14c6:	2300                	fld	fs0,0(a4)
    14c8:	0005                	c.nop	1
    14ca:	0800                	addi	s0,sp,16
    14cc:	9b01                	andi	a4,a4,-32
    14ce:	0001                	nop
    14d0:	0c00                	addi	s0,sp,528
    14d2:	0780                	addi	s0,sp,960
    14d4:	0000                	unimp
    14d6:	07cc                	addi	a1,sp,964
    14d8:	0000                	unimp
    14da:	0599                	addi	a1,a1,6
    14dc:	0000                	unimp
    14de:	0802                	c.slli64	a6
    14e0:	8c05                	sub	s0,s0,s1
    14e2:	0001                	nop
    14e4:	0200                	addi	s0,sp,256
    14e6:	0708                	addi	a0,sp,896
    14e8:	0000013b          	addw	sp,zero,zero
    14ec:	69050403          	lb	s0,1680(a0)
    14f0:	746e                	ld	s0,248(sp)
    14f2:	0200                	addi	s0,sp,256
    14f4:	0508                	addi	a0,sp,640
    14f6:	00000187          	0x187
    14fa:	1002                	c.slli	zero,0x20
    14fc:	7404                	ld	s1,40(s0)
    14fe:	04000003          	lb	zero,64(zero) # 40 <_start-0x10070>
    1502:	0345                	addi	t1,t1,17
    1504:	0000                	unimp
    1506:	5e01                	li	t3,-32
    1508:	1701                	addi	a4,a4,-32
    150a:	004d                	c.nop	19
    150c:	0000                	unimp
    150e:	0402                	c.slli64	s0
    1510:	00014007          	flq	ft0,0(sp)
    1514:	0200                	addi	s0,sp,256
    1516:	0601                	addi	a2,a2,0
    1518:	043d                	addi	s0,s0,15
    151a:	0000                	unimp
    151c:	0102                	c.slli64	sp
    151e:	3b08                	fld	fa0,48(a4)
    1520:	0004                	0x4
    1522:	0200                	addi	s0,sp,256
    1524:	0502                	c.slli64	a0
    1526:	00000457          	0x457
    152a:	0202                	c.slli64	tp
    152c:	00030207          	0x30207
    1530:	0500                	addi	s0,sp,640
    1532:	0000040f          	0x40f
    1536:	2e02                	fld	ft8,0(sp)
    1538:	1d0e                	slli	s10,s10,0x23
    153a:	0000                	unimp
    153c:	0500                	addi	s0,sp,640
    153e:	00000513          	li	a0,0
    1542:	7402                	ld	s0,32(sp)
    1544:	1d0e                	slli	s10,s10,0x23
    1546:	0000                	unimp
    1548:	0500                	addi	s0,sp,640
    154a:	000005a7          	0x5a7
    154e:	9302                	jalr	t1
    1550:	00001d17          	auipc	s10,0x1
    1554:	0600                	addi	s0,sp,768
    1556:	0204                	addi	s1,sp,256
    1558:	03a5                	addi	t2,t2,9
    155a:	00b6                	slli	ra,ra,0xd
    155c:	0000                	unimp
    155e:	00033f07          	fld	ft10,0(t1) # 4be9a <__global_pointer$+0x3a21a>
    1562:	0200                	addi	s0,sp,256
    1564:	00400ca7          	0x400ca7
    1568:	0000                	unimp
    156a:	0002de07          	0x2de07
    156e:	0200                	addi	s0,sp,256
    1570:	13a8                	addi	a0,sp,488
    1572:	00b6                	slli	ra,ra,0xd
    1574:	0000                	unimp
    1576:	0800                	addi	s0,sp,16
    1578:	0000005b          	0x5b
    157c:	00c6                	slli	ra,ra,0x11
    157e:	0000                	unimp
    1580:	2409                	addiw	s0,s0,2
    1582:	0000                	unimp
    1584:	0300                	addi	s0,sp,384
    1586:	0a00                	addi	s0,sp,272
    1588:	0208                	addi	a0,sp,256
    158a:	09a2                	slli	s3,s3,0x8
    158c:	00ea                	slli	ra,ra,0x1a
    158e:	0000                	unimp
    1590:	0004fd0b          	0x4fd0b
    1594:	0200                	addi	s0,sp,256
    1596:	07a4                	addi	s1,sp,968
    1598:	0000002b          	0x2b
    159c:	0b00                	addi	s0,sp,400
    159e:	0505                	addi	a0,a0,1
    15a0:	0000                	unimp
    15a2:	a902                	fsd	ft0,144(sp)
    15a4:	9405                	srai	s0,s0,0x21
    15a6:	0000                	unimp
    15a8:	0400                	addi	s0,sp,512
    15aa:	0500                	addi	s0,sp,640
    15ac:	047f                	0x47f
    15ae:	0000                	unimp
    15b0:	aa02                	fsd	ft0,272(sp)
    15b2:	0000c603          	lbu	a2,0(ra) # 1016e <frame_dummy+0x14>
    15b6:	0c00                	addi	s0,sp,528
    15b8:	0508                	addi	a0,sp,640
    15ba:	055d                	addi	a0,a0,23
    15bc:	0000                	unimp
    15be:	4d191903          	lh	s2,1233(s2) # 84d1 <_start-0x7bdf>
    15c2:	0000                	unimp
    15c4:	0500                	addi	s0,sp,640
    15c6:	0429                	addi	s0,s0,10
    15c8:	0000                	unimp
    15ca:	0c04                	addi	s1,sp,528
    15cc:	2b0d                	addiw	s6,s6,3
    15ce:	0000                	unimp
    15d0:	0500                	addi	s0,sp,640
    15d2:	02a1                	addi	t0,t0,8
    15d4:	0000                	unimp
    15d6:	041b2303          	lw	t1,65(s6)
    15da:	0001                	nop
    15dc:	0d00                	addi	s0,sp,656
    15de:	02b2                	slli	t0,t0,0xc
    15e0:	0000                	unimp
    15e2:	0320                	addi	s0,sp,392
    15e4:	0834                	addi	a3,sp,24
    15e6:	0176                	slli	sp,sp,0x1d
    15e8:	0000                	unimp
    15ea:	0004a00b          	0x4a00b
    15ee:	0300                	addi	s0,sp,384
    15f0:	1336                	slli	t1,t1,0x2d
    15f2:	0176                	slli	sp,sp,0x1d
    15f4:	0000                	unimp
    15f6:	0e00                	addi	s0,sp,784
    15f8:	6b5f 0300 0737      	0x73703006b5f
    15fe:	0000002b          	0x2b
    1602:	0b08                	addi	a0,sp,400
    1604:	04e8                	addi	a0,sp,588
    1606:	0000                	unimp
    1608:	2b0b3703          	ld	a4,688(s6)
    160c:	0000                	unimp
    160e:	0c00                	addi	s0,sp,528
    1610:	00029b0b          	0x29b0b
    1614:	0300                	addi	s0,sp,384
    1616:	002b1437          	lui	s0,0x2b1
    161a:	0000                	unimp
    161c:	0b10                	addi	a2,sp,400
    161e:	0592                	slli	a1,a1,0x4
    1620:	0000                	unimp
    1622:	2b1b3703          	ld	a4,689(s6)
    1626:	0000                	unimp
    1628:	1400                	addi	s0,sp,544
    162a:	5f0e                	lw	t5,224(sp)
    162c:	0078                	addi	a4,sp,12
    162e:	7c0b3803          	ld	a6,1984(s6)
    1632:	0001                	nop
    1634:	1800                	addi	s0,sp,48
    1636:	0f00                	addi	s0,sp,912
    1638:	1c08                	addi	a0,sp,560
    163a:	0001                	nop
    163c:	0800                	addi	s0,sp,16
    163e:	00f8                	addi	a4,sp,76
    1640:	0000                	unimp
    1642:	018c                	addi	a1,sp,192
    1644:	0000                	unimp
    1646:	2409                	addiw	s0,s0,2
    1648:	0000                	unimp
    164a:	0000                	unimp
    164c:	0d00                	addi	s0,sp,656
    164e:	02d9                	addi	t0,t0,22
    1650:	0000                	unimp
    1652:	0324                	addi	s1,sp,392
    1654:	083c                	addi	a5,sp,24
    1656:	0000020f          	0x20f
    165a:	00017e0b          	0x17e0b
    165e:	0300                	addi	s0,sp,384
    1660:	093e                	slli	s2,s2,0xf
    1662:	0000002b          	0x2b
    1666:	0b00                	addi	s0,sp,400
    1668:	0000051b          	sext.w	a0,zero
    166c:	2b093f03          	ld	t5,688(s2)
    1670:	0000                	unimp
    1672:	0400                	addi	s0,sp,512
    1674:	0001ff0b          	0x1ff0b
    1678:	0300                	addi	s0,sp,384
    167a:	0940                	addi	s0,sp,148
    167c:	0000002b          	0x2b
    1680:	0b08                	addi	a0,sp,400
    1682:	061a                	slli	a2,a2,0x6
    1684:	0000                	unimp
    1686:	2b094103          	lbu	sp,688(s2)
    168a:	0000                	unimp
    168c:	0c00                	addi	s0,sp,528
    168e:	0003f10b          	0x3f10b
    1692:	0300                	addi	s0,sp,384
    1694:	0942                	slli	s2,s2,0x10
    1696:	0000002b          	0x2b
    169a:	0b10                	addi	a2,sp,400
    169c:	0361                	addi	t1,t1,24
    169e:	0000                	unimp
    16a0:	2b094303          	lbu	t1,688(s2)
    16a4:	0000                	unimp
    16a6:	1400                	addi	s0,sp,544
    16a8:	0005970b          	0x5970b
    16ac:	0300                	addi	s0,sp,384
    16ae:	0944                	addi	s1,sp,148
    16b0:	0000002b          	0x2b
    16b4:	0b18                	addi	a4,sp,400
    16b6:	0461                	addi	s0,s0,24
    16b8:	0000                	unimp
    16ba:	2b094503          	lbu	a0,688(s2)
    16be:	0000                	unimp
    16c0:	1c00                	addi	s0,sp,560
    16c2:	0005d20b          	0x5d20b
    16c6:	0300                	addi	s0,sp,384
    16c8:	0946                	slli	s2,s2,0x11
    16ca:	0000002b          	0x2b
    16ce:	0020                	addi	s0,sp,8
    16d0:	0e10                	addi	a2,sp,784
    16d2:	0002                	c.slli64	zero
    16d4:	0800                	addi	s0,sp,16
    16d6:	0302                	c.slli64	t1
    16d8:	0255084f          	fnmadd.d	fa6,fa0,ft5,ft0,rne
    16dc:	0000                	unimp
    16de:	00028e0b          	0x28e0b
    16e2:	0300                	addi	s0,sp,384
    16e4:	0a50                	addi	a2,sp,276
    16e6:	0255                	addi	tp,tp,21
    16e8:	0000                	unimp
    16ea:	1100                	addi	s0,sp,160
    16ec:	00b0                	addi	a2,sp,72
    16ee:	0000                	unimp
    16f0:	55095103          	lhu	sp,1360(s2)
    16f4:	0002                	c.slli64	zero
    16f6:	0000                	unimp
    16f8:	1101                	addi	sp,sp,-32
    16fa:	00000543          	fmadd.s	fa0,ft0,ft0,ft0,rne
    16fe:	f80a5303          	lhu	t1,-128(s4) # fffffffffffe7f80 <__global_pointer$+0xfffffffffffd6300>
    1702:	0000                	unimp
    1704:	0000                	unimp
    1706:	1102                	slli	sp,sp,0x20
    1708:	00000233          	add	tp,zero,zero
    170c:	f80a5603          	lhu	a2,-128(s4)
    1710:	0000                	unimp
    1712:	0400                	addi	s0,sp,512
    1714:	0002                	c.slli64	zero
    1716:	f608                	sd	a0,40(a2)
    1718:	0000                	unimp
    171a:	6500                	ld	s0,8(a0)
    171c:	0002                	c.slli64	zero
    171e:	0900                	addi	s0,sp,144
    1720:	0024                	addi	s1,sp,8
    1722:	0000                	unimp
    1724:	001f 5010 0005      	0x55010001f
    172a:	1800                	addi	s0,sp,48
    172c:	08620303          	lb	t1,134(tp) # fffffffffffe2086 <__global_pointer$+0xfffffffffffd0406>
    1730:	02a9                	addi	t0,t0,10
    1732:	0000                	unimp
    1734:	0004a00b          	0x4a00b
    1738:	0300                	addi	s0,sp,384
    173a:	02a91263          	bne	s2,a0,175e <_start-0xe952>
    173e:	0000                	unimp
    1740:	0b00                	addi	s0,sp,400
    1742:	04b8                	addi	a4,sp,584
    1744:	0000                	unimp
    1746:	2b066403          	lwu	s0,688(a2)
    174a:	0000                	unimp
    174c:	0800                	addi	s0,sp,16
    174e:	0002960b          	0x2960b
    1752:	0300                	addi	s0,sp,384
    1754:	0966                	slli	s2,s2,0x19
    1756:	000002af          	0x2af
    175a:	1110                	addi	a2,sp,160
    175c:	020e                	slli	tp,tp,0x3
    175e:	0000                	unimp
    1760:	0f1e6703          	lwu	a4,241(t3)
    1764:	0002                	c.slli64	zero
    1766:	1000                	addi	s0,sp,32
    1768:	0001                	nop
    176a:	0265080f          	0x265080f
    176e:	0000                	unimp
    1770:	bf08                	fsd	fa0,56(a4)
    1772:	0002                	c.slli64	zero
    1774:	bf00                	fsd	fs0,56(a4)
    1776:	0002                	c.slli64	zero
    1778:	0900                	addi	s0,sp,144
    177a:	0024                	addi	s1,sp,8
    177c:	0000                	unimp
    177e:	001f 080f 02c5      	0x2c5080f001f
    1784:	0000                	unimp
    1786:	0d12                	slli	s10,s10,0x4
    1788:	0000046b          	0x46b
    178c:	0310                	addi	a2,sp,384
    178e:	087a                	slli	a6,a6,0x1e
    1790:	02ee                	slli	t0,t0,0x1b
    1792:	0000                	unimp
    1794:	0001f90b          	0x1f90b
    1798:	0300                	addi	s0,sp,384
    179a:	02ee117b          	0x2ee117b
    179e:	0000                	unimp
    17a0:	0b00                	addi	s0,sp,400
    17a2:	00bc                	addi	a5,sp,72
    17a4:	0000                	unimp
    17a6:	2b067c03          	0x2b067c03
    17aa:	0000                	unimp
    17ac:	0800                	addi	s0,sp,16
    17ae:	0f00                	addi	s0,sp,912
    17b0:	5b08                	lw	a0,48(a4)
    17b2:	0000                	unimp
    17b4:	0d00                	addi	s0,sp,656
    17b6:	048a                	slli	s1,s1,0x2
    17b8:	0000                	unimp
    17ba:	03b0                	addi	a2,sp,456
    17bc:	08ba                	slli	a7,a7,0xe
    17be:	00000437          	lui	s0,0x0
    17c2:	5f0e                	lw	t5,224(sp)
    17c4:	0070                	addi	a2,sp,12
    17c6:	ee12bb03          	ld	s6,-287(t0) # fffffffffa1606f3 <__global_pointer$+0xfffffffffa14ea73>
    17ca:	0002                	c.slli64	zero
    17cc:	0000                	unimp
    17ce:	5f0e                	lw	t5,224(sp)
    17d0:	0072                	c.slli	zero,0x1c
    17d2:	2b07bc03          	ld	s8,688(a5)
    17d6:	0000                	unimp
    17d8:	0800                	addi	s0,sp,16
    17da:	5f0e                	lw	t5,224(sp)
    17dc:	bd030077          	0xbd030077
    17e0:	00002b07          	flw	fs6,0(zero) # 0 <_start-0x100b0>
    17e4:	0c00                	addi	s0,sp,528
    17e6:	00022c0b          	0x22c0b
    17ea:	0300                	addi	s0,sp,384
    17ec:	09be                	slli	s3,s3,0xf
    17ee:	0062                	c.slli	zero,0x18
    17f0:	0000                	unimp
    17f2:	0b10                	addi	a2,sp,400
    17f4:	02f5                	addi	t0,t0,29
    17f6:	0000                	unimp
    17f8:	6209bf03          	ld	t5,1568(s3)
    17fc:	0000                	unimp
    17fe:	1200                	addi	s0,sp,288
    1800:	5f0e                	lw	t5,224(sp)
    1802:	6662                	ld	a2,24(sp)
    1804:	0300                	addi	s0,sp,384
    1806:	11c0                	addi	s0,sp,228
    1808:	02c6                	slli	t0,t0,0x11
    180a:	0000                	unimp
    180c:	0b18                	addi	a4,sp,400
    180e:	014d                	addi	sp,sp,19
    1810:	0000                	unimp
    1812:	2b07c103          	lbu	sp,688(a5)
    1816:	0000                	unimp
    1818:	2800                	fld	fs0,16(s0)
    181a:	00021c0b          	0x21c0b
    181e:	0300                	addi	s0,sp,384
    1820:	0ac8                	addi	a0,sp,340
    1822:	00f6                	slli	ra,ra,0x1d
    1824:	0000                	unimp
    1826:	0b30                	addi	a2,sp,408
    1828:	02c9                	addi	t0,t0,18
    182a:	0000                	unimp
    182c:	bb1dca03          	lbu	s4,-1103(s11)
    1830:	0005                	c.nop	1
    1832:	3800                	fld	fs0,48(s0)
    1834:	00035a0b          	0x35a0b
    1838:	0300                	addi	s0,sp,384
    183a:	1dcc                	addi	a1,sp,756
    183c:	05e5                	addi	a1,a1,25
    183e:	0000                	unimp
    1840:	0b40                	addi	s0,sp,404
    1842:	050d                	addi	a0,a0,3
    1844:	0000                	unimp
    1846:	090dcf03          	lbu	t5,144(s11)
    184a:	0006                	c.slli	zero,0x1
    184c:	4800                	lw	s0,16(s0)
    184e:	0005ec0b          	0x5ec0b
    1852:	0300                	addi	s0,sp,384
    1854:	09d0                	addi	a2,sp,212
    1856:	00000623          	sb	zero,12(zero) # c <_start-0x100a4>
    185a:	0e50                	addi	a2,sp,788
    185c:	755f 0062 d303      	0xd3030062755f
    1862:	c611                	beqz	a2,186e <_start-0xe842>
    1864:	0002                	c.slli64	zero
    1866:	5800                	lw	s0,48(s0)
    1868:	5f0e                	lw	t5,224(sp)
    186a:	7075                	c.lui	zero,0xffffd
    186c:	0300                	addi	s0,sp,384
    186e:	12d4                	addi	a3,sp,356
    1870:	02ee                	slli	t0,t0,0x1b
    1872:	0000                	unimp
    1874:	0e68                	addi	a0,sp,796
    1876:	755f 0072 d503      	0xd5030072755f
    187c:	00002b07          	flw	fs6,0(zero) # 0 <_start-0x100b0>
    1880:	7000                	ld	s0,32(s0)
    1882:	0001950b          	0x1950b
    1886:	0300                	addi	s0,sp,384
    1888:	11d8                	addi	a4,sp,228
    188a:	0629                	addi	a2,a2,10
    188c:	0000                	unimp
    188e:	0b74                	addi	a3,sp,412
    1890:	05c4                	addi	s1,sp,708
    1892:	0000                	unimp
    1894:	3911d903          	lhu	s2,913(gp) # 12011 <__global_pointer$+0x391>
    1898:	0006                	c.slli	zero,0x1
    189a:	7700                	ld	s0,40(a4)
    189c:	5f0e                	lw	t5,224(sp)
    189e:	626c                	ld	a1,192(a2)
    18a0:	0300                	addi	s0,sp,384
    18a2:	11dc                	addi	a5,sp,228
    18a4:	02c6                	slli	t0,t0,0x11
    18a6:	0000                	unimp
    18a8:	0b78                	addi	a4,sp,412
    18aa:	0242                	slli	tp,tp,0x10
    18ac:	0000                	unimp
    18ae:	2b07df03          	lhu	t5,688(a5)
    18b2:	0000                	unimp
    18b4:	8800                	0x8800
    18b6:	0002670b          	0x2670b
    18ba:	0300                	addi	s0,sp,384
    18bc:	0ae0                	addi	s0,sp,348
    18be:	0070                	addi	a2,sp,12
    18c0:	0000                	unimp
    18c2:	0b90                	addi	a2,sp,464
    18c4:	07c6                	slli	a5,a5,0x11
    18c6:	0000                	unimp
    18c8:	5512e303          	lwu	t1,1361(t0)
    18cc:	0004                	0x4
    18ce:	9800                	0x9800
    18d0:	00034c0b          	0x34c0b
    18d4:	0300                	addi	s0,sp,384
    18d6:	01100ce7          	jalr	s9,17(zero) # 0 <_start-0x100b0>
    18da:	0000                	unimp
    18dc:	0ba0                	addi	s0,sp,472
    18de:	0492                	slli	s1,s1,0x4
    18e0:	0000                	unimp
    18e2:	ea0ee903          	lwu	s2,-352(t4)
    18e6:	0000                	unimp
    18e8:	a400                	fsd	fs0,8(s0)
    18ea:	0003520b          	0x3520b
    18ee:	0300                	addi	s0,sp,384
    18f0:	09ea                	slli	s3,s3,0x1a
    18f2:	0000002b          	0x2b
    18f6:	00ac                	addi	a1,sp,72
    18f8:	00008813          	mv	a6,ra
    18fc:	5500                	lw	s0,40(a0)
    18fe:	0004                	0x4
    1900:	1400                	addi	s0,sp,544
    1902:	0455                	addi	s0,s0,21
    1904:	0000                	unimp
    1906:	f614                	sd	a3,40(a2)
    1908:	0000                	unimp
    190a:	1400                	addi	s0,sp,544
    190c:	05a9                	addi	a1,a1,10
    190e:	0000                	unimp
    1910:	2b14                	fld	fa3,16(a4)
    1912:	0000                	unimp
    1914:	0000                	unimp
    1916:	0460080f          	0x460080f
    191a:	0000                	unimp
    191c:	5515                	li	a0,-27
    191e:	0004                	0x4
    1920:	1600                	addi	s0,sp,800
    1922:	04f0                	addi	a2,sp,588
    1924:	0000                	unimp
    1926:	0748                	addi	a0,sp,900
    1928:	08026503          	lwu	a0,128(tp) # 80 <_start-0x10030>
    192c:	05a9                	addi	a1,a1,10
    192e:	0000                	unimp
    1930:	000a6117          	auipc	sp,0xa6
    1934:	0300                	addi	s0,sp,384
    1936:	2b070267          	jalr	tp,688(a4) # 5034c <__global_pointer$+0x3e6cc>
    193a:	0000                	unimp
    193c:	0000                	unimp
    193e:	00023b17          	auipc	s6,0x23
    1942:	0300                	addi	s0,sp,384
    1944:	026c                	addi	a1,sp,268
    1946:	0006950b          	0x6950b
    194a:	0800                	addi	s0,sp,16
    194c:	0002e517          	auipc	a0,0x2e
    1950:	0300                	addi	s0,sp,384
    1952:	026c                	addi	a1,sp,268
    1954:	9514                	0x9514
    1956:	0006                	c.slli	zero,0x1
    1958:	1000                	addi	s0,sp,32
    195a:	0002aa17          	auipc	s4,0x2a
    195e:	0300                	addi	s0,sp,384
    1960:	026c                	addi	a1,sp,268
    1962:	951e                	add	a0,a0,t2
    1964:	0006                	c.slli	zero,0x1
    1966:	1800                	addi	s0,sp,48
    1968:	0004b317          	auipc	t1,0x4b
    196c:	0300                	addi	s0,sp,384
    196e:	026e                	slli	tp,tp,0x1b
    1970:	2b08                	fld	fa0,16(a4)
    1972:	0000                	unimp
    1974:	2000                	fld	fs0,0(s0)
    1976:	00010b17          	auipc	s6,0x10
    197a:	0300                	addi	s0,sp,384
    197c:	9e08026f          	jal	tp,fffffffffff81b5c <__global_pointer$+0xfffffffffff6fedc>
    1980:	0008                	0x8
    1982:	2400                	fld	fs0,8(s0)
    1984:	0004cf17          	auipc	t5,0x4c
    1988:	0300                	addi	s0,sp,384
    198a:	0272                	slli	tp,tp,0x1c
    198c:	00002b07          	flw	fs6,0(zero) # 0 <_start-0x100b0>
    1990:	4000                	lw	s0,0(s0)
    1992:	0004bd17          	auipc	s10,0x4b
    1996:	0300                	addi	s0,sp,384
    1998:	b3160273          	0xb3160273
    199c:	0008                	0x8
    199e:	4800                	lw	s0,16(s0)
    19a0:	00040417          	auipc	s0,0x40
    19a4:	0300                	addi	s0,sp,384
    19a6:	0275                	addi	tp,tp,29
    19a8:	00002b07          	flw	fs6,0(zero) # 0 <_start-0x100b0>
    19ac:	5000                	lw	s0,32(s0)
    19ae:	0004c517          	auipc	a0,0x4c
    19b2:	0300                	addi	s0,sp,384
    19b4:	c40a0277          	0xc40a0277
    19b8:	0008                	0x8
    19ba:	5800                	lw	s0,48(s0)
    19bc:	00033717          	auipc	a4,0x33
    19c0:	0300                	addi	s0,sp,384
    19c2:	027a                	slli	tp,tp,0x1e
    19c4:	00017613          	andi	a2,sp,0
    19c8:	6000                	ld	s0,0(s0)
    19ca:	0002cf17          	auipc	t5,0x2c
    19ce:	0300                	addi	s0,sp,384
    19d0:	2b07027b          	0x2b07027b
    19d4:	0000                	unimp
    19d6:	6800                	ld	s0,16(s0)
    19d8:	00060617          	auipc	a2,0x60
    19dc:	0300                	addi	s0,sp,384
    19de:	027c                	addi	a5,sp,268
    19e0:	00017613          	andi	a2,sp,0
    19e4:	7000                	ld	s0,32(s0)
    19e6:	00041f17          	auipc	t5,0x41
    19ea:	0300                	addi	s0,sp,384
    19ec:	027d                	addi	tp,tp,31
    19ee:	ca14                	sw	a3,16(a2)
    19f0:	0008                	0x8
    19f2:	7800                	ld	s0,48(s0)
    19f4:	0002ed17          	auipc	s10,0x2e
    19f8:	0300                	addi	s0,sp,384
    19fa:	0280                	addi	s0,sp,320
    19fc:	00002b07          	flw	fs6,0(zero) # 0 <_start-0x100b0>
    1a00:	8000                	0x8000
    1a02:	00025f17          	auipc	t5,0x25
    1a06:	0300                	addi	s0,sp,384
    1a08:	0281                	addi	t0,t0,0
    1a0a:	a909                	j	1e1c <_start-0xe294>
    1a0c:	0005                	c.nop	1
    1a0e:	8800                	0x8800
    1a10:	00044917          	auipc	s2,0x44
    1a14:	0300                	addi	s0,sp,384
    1a16:	02a4                	addi	s1,sp,328
    1a18:	00087807          	0x87807
    1a1c:	9000                	0x9000
    1a1e:	5018                	lw	a4,32(s0)
    1a20:	0005                	c.nop	1
    1a22:	0300                	addi	s0,sp,384
    1a24:	02a8                	addi	a0,sp,328
    1a26:	0002a913          	slti	s2,t0,0
    1a2a:	f800                	sd	s0,48(s0)
    1a2c:	1801                	addi	a6,a6,-32
    1a2e:	0315                	addi	t1,t1,5
    1a30:	0000                	unimp
    1a32:	1202a903          	lw	s2,288(t0)
    1a36:	0265                	addi	tp,tp,25
    1a38:	0000                	unimp
    1a3a:	0200                	addi	s0,sp,256
    1a3c:	ba18                	fsd	fa4,48(a2)
    1a3e:	0005                	c.nop	1
    1a40:	0300                	addi	s0,sp,384
    1a42:	02ad                	addi	t0,t0,11
    1a44:	db0c                	sw	a1,48(a4)
    1a46:	0008                	0x8
    1a48:	1800                	addi	s0,sp,48
    1a4a:	1805                	addi	a6,a6,-31
    1a4c:	0224                	addi	s1,sp,264
    1a4e:	0000                	unimp
    1a50:	1002b203          	ld	tp,256(t0)
    1a54:	0656                	slli	a2,a2,0x15
    1a56:	0000                	unimp
    1a58:	0520                	addi	s0,sp,648
    1a5a:	0918                	addi	a4,sp,144
    1a5c:	0002                	c.slli64	zero
    1a5e:	0300                	addi	s0,sp,384
    1a60:	02b4                	addi	a3,sp,328
    1a62:	e70a                	sd	sp,392(sp)
    1a64:	0008                	0x8
    1a66:	3800                	fld	fs0,48(s0)
    1a68:	0005                	c.nop	1
    1a6a:	05af080f          	0x5af080f
    1a6e:	0000                	unimp
    1a70:	0102                	c.slli64	sp
    1a72:	4408                	lw	a0,8(s0)
    1a74:	0004                	0x4
    1a76:	1500                	addi	s0,sp,672
    1a78:	000005af          	0x5af
    1a7c:	0437080f          	0x437080f
    1a80:	0000                	unimp
    1a82:	00008813          	mv	a6,ra
    1a86:	df00                	sw	s0,56(a4)
    1a88:	0005                	c.nop	1
    1a8a:	1400                	addi	s0,sp,544
    1a8c:	0455                	addi	s0,s0,21
    1a8e:	0000                	unimp
    1a90:	f614                	sd	a3,40(a2)
    1a92:	0000                	unimp
    1a94:	1400                	addi	s0,sp,544
    1a96:	05df 0000 2b14      	0x2b14000005df
    1a9c:	0000                	unimp
    1a9e:	0000                	unimp
    1aa0:	05b6080f          	0x5b6080f
    1aa4:	0000                	unimp
    1aa6:	05c1080f          	0x5c1080f
    1aaa:	0000                	unimp
    1aac:	00007c13          	andi	s8,zero,0
    1ab0:	0900                	addi	s0,sp,144
    1ab2:	0006                	c.slli	zero,0x1
    1ab4:	1400                	addi	s0,sp,544
    1ab6:	0455                	addi	s0,s0,21
    1ab8:	0000                	unimp
    1aba:	f614                	sd	a3,40(a2)
    1abc:	0000                	unimp
    1abe:	1400                	addi	s0,sp,544
    1ac0:	007c                	addi	a5,sp,12
    1ac2:	0000                	unimp
    1ac4:	2b14                	fld	fa3,16(a4)
    1ac6:	0000                	unimp
    1ac8:	0000                	unimp
    1aca:	05eb080f          	0x5eb080f
    1ace:	0000                	unimp
    1ad0:	00002b13          	slti	s6,zero,0
    1ad4:	2300                	fld	fs0,0(a4)
    1ad6:	0006                	c.slli	zero,0x1
    1ad8:	1400                	addi	s0,sp,544
    1ada:	0455                	addi	s0,s0,21
    1adc:	0000                	unimp
    1ade:	f614                	sd	a3,40(a2)
    1ae0:	0000                	unimp
    1ae2:	0000                	unimp
    1ae4:	060f080f          	0x60f080f
    1ae8:	0000                	unimp
    1aea:	5b08                	lw	a0,48(a4)
    1aec:	0000                	unimp
    1aee:	3900                	fld	fs0,48(a0)
    1af0:	0006                	c.slli	zero,0x1
    1af2:	0900                	addi	s0,sp,144
    1af4:	0024                	addi	s1,sp,8
    1af6:	0000                	unimp
    1af8:	0002                	c.slli64	zero
    1afa:	5b08                	lw	a0,48(a4)
    1afc:	0000                	unimp
    1afe:	4900                	lw	s0,16(a0)
    1b00:	0006                	c.slli	zero,0x1
    1b02:	0900                	addi	s0,sp,144
    1b04:	0024                	addi	s1,sp,8
    1b06:	0000                	unimp
    1b08:	0000                	unimp
    1b0a:	7804                	ld	s1,48(s0)
    1b0c:	0004                	0x4
    1b0e:	0300                	addi	s0,sp,384
    1b10:	0124                	addi	s1,sp,136
    1b12:	f41a                	sd	t1,40(sp)
    1b14:	0002                	c.slli64	zero
    1b16:	1900                	addi	s0,sp,176
    1b18:	05a1                	addi	a1,a1,8
    1b1a:	0000                	unimp
    1b1c:	0318                	addi	a4,sp,384
    1b1e:	0128                	addi	a0,sp,136
    1b20:	8f08                	0x8f08
    1b22:	0006                	c.slli	zero,0x1
    1b24:	1700                	addi	s0,sp,928
    1b26:	04a0                	addi	s0,sp,584
    1b28:	0000                	unimp
    1b2a:	11012a03          	lw	s4,272(sp) # a7a40 <__global_pointer$+0x95dc0>
    1b2e:	0000068f          	0x68f
    1b32:	1700                	addi	s0,sp,928
    1b34:	000002fb          	0x2fb
    1b38:	07012b03          	lw	s6,112(sp)
    1b3c:	0000002b          	0x2b
    1b40:	1708                	addi	a0,sp,928
    1b42:	0472                	slli	s0,s0,0x1c
    1b44:	0000                	unimp
    1b46:	0b012c03          	lw	s8,176(sp)
    1b4a:	0695                	addi	a3,a3,5
    1b4c:	0000                	unimp
    1b4e:	0010                	0x10
    1b50:	0656080f          	0x656080f
    1b54:	0000                	unimp
    1b56:	0649080f          	0x649080f
    1b5a:	0000                	unimp
    1b5c:	0319                	addi	t1,t1,6
    1b5e:	0001                	nop
    1b60:	0e00                	addi	s0,sp,784
    1b62:	08014403          	lbu	s0,128(sp)
    1b66:	06d4                	addi	a3,sp,836
    1b68:	0000                	unimp
    1b6a:	0004f717          	auipc	a4,0x4f
    1b6e:	0300                	addi	s0,sp,384
    1b70:	0145                	addi	sp,sp,17
    1b72:	d412                	sw	tp,40(sp)
    1b74:	0006                	c.slli	zero,0x1
    1b76:	0000                	unimp
    1b78:	00052417          	auipc	s0,0x52
    1b7c:	0300                	addi	s0,sp,384
    1b7e:	0146                	slli	sp,sp,0x11
    1b80:	d412                	sw	tp,40(sp)
    1b82:	0006                	c.slli	zero,0x1
    1b84:	0600                	addi	s0,sp,768
    1b86:	00055817          	auipc	a6,0x55
    1b8a:	0300                	addi	s0,sp,384
    1b8c:	69120147          	fmsub.s	ft2,ft4,fa7,fa3,rne
    1b90:	0000                	unimp
    1b92:	0c00                	addi	s0,sp,528
    1b94:	0800                	addi	s0,sp,16
    1b96:	0069                	c.nop	26
    1b98:	0000                	unimp
    1b9a:	06e4                	addi	s1,sp,844
    1b9c:	0000                	unimp
    1b9e:	2409                	addiw	s0,s0,2
    1ba0:	0000                	unimp
    1ba2:	0200                	addi	s0,sp,256
    1ba4:	1a00                	addi	s0,sp,304
    1ba6:	03d8                	addi	a4,sp,452
    1ba8:	0285                	addi	t0,t0,1
    1baa:	0007f907          	0x7f907
    1bae:	1700                	addi	s0,sp,928
    1bb0:	0585                	addi	a1,a1,1
    1bb2:	0000                	unimp
    1bb4:	18028703          	lb	a4,384(t0)
    1bb8:	004d                	c.nop	19
    1bba:	0000                	unimp
    1bbc:	1700                	addi	s0,sp,928
    1bbe:	052a                	slli	a0,a0,0xa
    1bc0:	0000                	unimp
    1bc2:	12028803          	lb	a6,288(t0)
    1bc6:	05a9                	addi	a1,a1,10
    1bc8:	0000                	unimp
    1bca:	1708                	addi	a0,sp,928
    1bcc:	032a                	slli	t1,t1,0xa
    1bce:	0000                	unimp
    1bd0:	10028903          	lb	s2,256(t0)
    1bd4:	07f9                	addi	a5,a5,30
    1bd6:	0000                	unimp
    1bd8:	1710                	addi	a2,sp,928
    1bda:	05dd                	addi	a1,a1,23
    1bdc:	0000                	unimp
    1bde:	17028a03          	lb	s4,368(t0)
    1be2:	018c                	addi	a1,sp,192
    1be4:	0000                	unimp
    1be6:	172c                	addi	a1,sp,936
    1be8:	02ba                	slli	t0,t0,0xe
    1bea:	0000                	unimp
    1bec:	0f028b03          	lb	s6,240(t0)
    1bf0:	0000002b          	0x2b
    1bf4:	1750                	addi	a2,sp,932
    1bf6:	0000049b          	sext.w	s1,zero
    1bfa:	2c028c03          	lb	s8,704(t0)
    1bfe:	0809                	addi	a6,a6,2
    1c00:	0000                	unimp
    1c02:	1758                	addi	a4,sp,932
    1c04:	000005f3          	0x5f3
    1c08:	1a028d03          	lb	s10,416(t0)
    1c0c:	0000069b          	sext.w	a3,zero
    1c10:	1760                	addi	s0,sp,940
    1c12:	04a6                	slli	s1,s1,0x9
    1c14:	0000                	unimp
    1c16:	16028e03          	lb	t3,352(t0)
    1c1a:	00ea                	slli	ra,ra,0x1a
    1c1c:	0000                	unimp
    1c1e:	1770                	addi	a2,sp,940
    1c20:	05f8                	addi	a4,sp,716
    1c22:	0000                	unimp
    1c24:	16028f03          	lb	t5,352(t0)
    1c28:	00ea                	slli	ra,ra,0x1a
    1c2a:	0000                	unimp
    1c2c:	1778                	addi	a4,sp,940
    1c2e:	0170                	addi	a2,sp,140
    1c30:	0000                	unimp
    1c32:	16029003          	lh	zero,352(t0)
    1c36:	00ea                	slli	ra,ra,0x1a
    1c38:	0000                	unimp
    1c3a:	1780                	addi	s0,sp,992
    1c3c:	05b0                	addi	a2,sp,712
    1c3e:	0000                	unimp
    1c40:	10029103          	lh	sp,256(t0)
    1c44:	0810                	addi	a2,sp,16
    1c46:	0000                	unimp
    1c48:	1788                	addi	a0,sp,992
    1c4a:	031e                	slli	t1,t1,0x7
    1c4c:	0000                	unimp
    1c4e:	10029203          	lh	tp,256(t0)
    1c52:	0820                	addi	s0,sp,24
    1c54:	0000                	unimp
    1c56:	1790                	addi	a2,sp,992
    1c58:	0565                	addi	a0,a0,25
    1c5a:	0000                	unimp
    1c5c:	0f029303          	lh	t1,240(t0)
    1c60:	0000002b          	0x2b
    1c64:	17a8                	addi	a0,sp,1000
    1c66:	0280                	addi	s0,sp,320
    1c68:	0000                	unimp
    1c6a:	16029403          	lh	s0,352(t0)
    1c6e:	00ea                	slli	ra,ra,0x1a
    1c70:	0000                	unimp
    1c72:	17ac                	addi	a1,sp,1000
    1c74:	0161                	addi	sp,sp,24
    1c76:	0000                	unimp
    1c78:	16029503          	lh	a0,352(t0)
    1c7c:	00ea                	slli	ra,ra,0x1a
    1c7e:	0000                	unimp
    1c80:	17b4                	addi	a3,sp,1000
    1c82:	0000026f          	jal	tp,1c82 <_start-0xe42e>
    1c86:	16029603          	lh	a2,352(t0)
    1c8a:	00ea                	slli	ra,ra,0x1a
    1c8c:	0000                	unimp
    1c8e:	17bc                	addi	a5,sp,1000
    1c90:	0116                	slli	sp,sp,0x5
    1c92:	0000                	unimp
    1c94:	16029703          	lh	a4,352(t0)
    1c98:	00ea                	slli	ra,ra,0x1a
    1c9a:	0000                	unimp
    1c9c:	17c4                	addi	s1,sp,996
    1c9e:	0125                	addi	sp,sp,9
    1ca0:	0000                	unimp
    1ca2:	16029803          	lh	a6,352(t0)
    1ca6:	00ea                	slli	ra,ra,0x1a
    1ca8:	0000                	unimp
    1caa:	17cc                	addi	a1,sp,996
    1cac:	044e                	slli	s0,s0,0x13
    1cae:	0000                	unimp
    1cb0:	08029903          	lh	s2,128(t0)
    1cb4:	0000002b          	0x2b
    1cb8:	00d4                	addi	a3,sp,68
    1cba:	af08                	fsd	fa0,24(a4)
    1cbc:	0005                	c.nop	1
    1cbe:	0900                	addi	s0,sp,144
    1cc0:	0008                	0x8
    1cc2:	0900                	addi	s0,sp,144
    1cc4:	0024                	addi	s1,sp,8
    1cc6:	0000                	unimp
    1cc8:	0019                	c.nop	6
    1cca:	0802                	c.slli64	a6
    1ccc:	00013607          	fld	fa2,0(sp)
    1cd0:	0800                	addi	s0,sp,16
    1cd2:	000005af          	0x5af
    1cd6:	0820                	addi	s0,sp,24
    1cd8:	0000                	unimp
    1cda:	2409                	addiw	s0,s0,2
    1cdc:	0000                	unimp
    1cde:	0700                	addi	s0,sp,896
    1ce0:	0800                	addi	s0,sp,16
    1ce2:	000005af          	0x5af
    1ce6:	0830                	addi	a2,sp,24
    1ce8:	0000                	unimp
    1cea:	2409                	addiw	s0,s0,2
    1cec:	0000                	unimp
    1cee:	1700                	addi	s0,sp,928
    1cf0:	1b00                	addi	s0,sp,432
    1cf2:	0168                	addi	a0,sp,140
    1cf4:	07029e03          	lh	t3,112(t0)
    1cf8:	0858                	addi	a4,sp,20
    1cfa:	0000                	unimp
    1cfc:	00038017          	auipc	zero,0x38
    1d00:	0300                	addi	s0,sp,384
    1d02:	02a1                	addi	t0,t0,8
    1d04:	0008581b          	srliw	a6,a6,0x0
    1d08:	0000                	unimp
    1d0a:	00036b17          	auipc	s6,0x36
    1d0e:	0300                	addi	s0,sp,384
    1d10:	02a2                	slli	t0,t0,0x8
    1d12:	6818                	ld	a4,16(s0)
    1d14:	0008                	0x8
    1d16:	f000                	sd	s0,32(s0)
    1d18:	0800                	addi	s0,sp,16
    1d1a:	02ee                	slli	t0,t0,0x1b
    1d1c:	0000                	unimp
    1d1e:	0868                	addi	a0,sp,28
    1d20:	0000                	unimp
    1d22:	2409                	addiw	s0,s0,2
    1d24:	0000                	unimp
    1d26:	1d00                	addi	s0,sp,688
    1d28:	0800                	addi	s0,sp,16
    1d2a:	004d                	c.nop	19
    1d2c:	0000                	unimp
    1d2e:	0878                	addi	a4,sp,28
    1d30:	0000                	unimp
    1d32:	2409                	addiw	s0,s0,2
    1d34:	0000                	unimp
    1d36:	1d00                	addi	s0,sp,688
    1d38:	1c00                	addi	s0,sp,560
    1d3a:	0168                	addi	a0,sp,140
    1d3c:	03028303          	lb	t1,48(t0)
    1d40:	089e                	slli	a7,a7,0x7
    1d42:	0000                	unimp
    1d44:	f01d                	bnez	s0,1c6a <_start-0xe446>
    1d46:	0004                	0x4
    1d48:	0300                	addi	s0,sp,384
    1d4a:	029a                	slli	t0,t0,0x6
    1d4c:	0006e40b          	0x6e40b
    1d50:	1d00                	addi	s0,sp,688
    1d52:	05ca                	slli	a1,a1,0x12
    1d54:	0000                	unimp
    1d56:	0b02a303          	lw	t1,176(t0)
    1d5a:	0830                	addi	a2,sp,24
    1d5c:	0000                	unimp
    1d5e:	0800                	addi	s0,sp,16
    1d60:	000005af          	0x5af
    1d64:	08ae                	slli	a7,a7,0xb
    1d66:	0000                	unimp
    1d68:	2409                	addiw	s0,s0,2
    1d6a:	0000                	unimp
    1d6c:	1800                	addi	s0,sp,48
    1d6e:	1e00                	addi	s0,sp,816
    1d70:	0156                	slli	sp,sp,0x15
    1d72:	0000                	unimp
    1d74:	08ae080f          	0x8ae080f
    1d78:	0000                	unimp
    1d7a:	c41f 0008 1400      	0x14000008c41f
    1d80:	0455                	addi	s0,s0,21
    1d82:	0000                	unimp
    1d84:	0f00                	addi	s0,sp,912
    1d86:	b908                	fsd	fa0,48(a0)
    1d88:	0008                	0x8
    1d8a:	0f00                	addi	s0,sp,912
    1d8c:	7608                	ld	a0,40(a2)
    1d8e:	0001                	nop
    1d90:	1f00                	addi	s0,sp,944
    1d92:	000008db          	0x8db
    1d96:	2b14                	fld	fa3,16(a4)
    1d98:	0000                	unimp
    1d9a:	0000                	unimp
    1d9c:	08e1080f          	0x8e1080f
    1da0:	0000                	unimp
    1da2:	08d0080f          	0x8d0080f
    1da6:	0000                	unimp
    1da8:	4908                	lw	a0,16(a0)
    1daa:	0006                	c.slli	zero,0x1
    1dac:	f700                	sd	s0,40(a4)
    1dae:	0008                	0x8
    1db0:	0900                	addi	s0,sp,144
    1db2:	0024                	addi	s1,sp,8
    1db4:	0000                	unimp
    1db6:	0002                	c.slli64	zero
    1db8:	7920                	ld	s0,112(a0)
    1dba:	0005                	c.nop	1
    1dbc:	0300                	addi	s0,sp,384
    1dbe:	55170333          	0x55170333
    1dc2:	0004                	0x4
    1dc4:	2000                	fld	fs0,0(s0)
    1dc6:	0572                	slli	a0,a0,0x1c
    1dc8:	0000                	unimp
    1dca:	1d033403          	ld	s0,464(t1) # 4cb38 <__global_pointer$+0x3aeb8>
    1dce:	0000045b          	0x45b
    1dd2:	c021                	beqz	s0,1e12 <_start-0xe29e>
    1dd4:	05000007          	0x5000007
    1dd8:	04603017          	auipc	zero,0x4603
    1ddc:	0000                	unimp
    1dde:	0309                	addi	t1,t1,2
    1de0:	1480                	addi	s0,sp,608
    1de2:	0001                	nop
    1de4:	0000                	unimp
    1de6:	0000                	unimp
    1de8:	f722                	sd	s0,424(sp)
    1dea:	0008                	0x8
    1dec:	0900                	addi	s0,sp,144
    1dee:	011bd803          	lhu	a6,17(s7)
    1df2:	0000                	unimp
    1df4:	0000                	unimp
    1df6:	2200                	fld	fs0,0(a2)
    1df8:	0904                	addi	s1,sp,144
    1dfa:	0000                	unimp
    1dfc:	0309                	addi	t1,t1,2
    1dfe:	1bc8                	addi	a0,sp,500
    1e00:	0001                	nop
    1e02:	0000                	unimp
    1e04:	0000                	unimp
    1e06:	fe00                	sd	s0,56(a2)
    1e08:	0000                	unimp
    1e0a:	0400                	addi	s0,sp,512
    1e0c:	ea00                	sd	s0,16(a2)
    1e0e:	0006                	c.slli	zero,0x1
    1e10:	0800                	addi	s0,sp,16
    1e12:	9b01                	andi	a4,a4,-32
    1e14:	0001                	nop
    1e16:	0c00                	addi	s0,sp,528
    1e18:	085a                	slli	a6,a6,0x16
    1e1a:	0000                	unimp
    1e1c:	0718                	addi	a4,sp,896
    1e1e:	0000                	unimp
    1e20:	01ee                	slli	gp,gp,0x1b
    1e22:	0001                	nop
    1e24:	0000                	unimp
    1e26:	0000                	unimp
    1e28:	006a                	c.slli	zero,0x1a
    1e2a:	0000                	unimp
    1e2c:	0000                	unimp
    1e2e:	0000                	unimp
    1e30:	06a6                	slli	a3,a3,0x9
    1e32:	0000                	unimp
    1e34:	0102                	c.slli64	sp
    1e36:	3d06                	fld	fs10,96(sp)
    1e38:	0004                	0x4
    1e3a:	0200                	addi	s0,sp,256
    1e3c:	0801                	addi	a6,a6,0
    1e3e:	0000043b          	addw	s0,zero,zero
    1e42:	0202                	c.slli64	tp
    1e44:	5705                	li	a4,-31
    1e46:	0004                	0x4
    1e48:	0200                	addi	s0,sp,256
    1e4a:	0702                	c.slli64	a4
    1e4c:	0302                	c.slli64	t1
    1e4e:	0000                	unimp
    1e50:	69050403          	lb	s0,1680(a0) # 4e03e <__global_pointer$+0x3c3be>
    1e54:	746e                	ld	s0,248(sp)
    1e56:	0200                	addi	s0,sp,256
    1e58:	0704                	addi	s1,sp,896
    1e5a:	0140                	addi	s0,sp,132
    1e5c:	0000                	unimp
    1e5e:	0802                	c.slli64	a6
    1e60:	8c05                	sub	s0,s0,s1
    1e62:	0001                	nop
    1e64:	0200                	addi	s0,sp,256
    1e66:	0708                	addi	a0,sp,896
    1e68:	0000013b          	addw	sp,zero,zero
    1e6c:	a904                	fsd	fs1,16(a0)
    1e6e:	0005                	c.nop	1
    1e70:	0200                	addi	s0,sp,256
    1e72:	17d1                	addi	a5,a5,-12
    1e74:	005e                	c.slli	zero,0x17
    1e76:	0000                	unimp
    1e78:	0802                	c.slli64	a6
    1e7a:	8705                	srai	a4,a4,0x1
    1e7c:	0001                	nop
    1e7e:	0200                	addi	s0,sp,256
    1e80:	0410                	addi	a2,sp,512
    1e82:	0374                	addi	a3,sp,396
    1e84:	0000                	unimp
    1e86:	0102                	c.slli64	sp
    1e88:	4408                	lw	a0,8(s0)
    1e8a:	0004                	0x4
    1e8c:	0500                	addi	s0,sp,640
    1e8e:	0091                	addi	ra,ra,4
    1e90:	0000                	unimp
    1e92:	0091                	addi	ra,ra,4
    1e94:	0000                	unimp
    1e96:	0006                	c.slli	zero,0x1
    1e98:	00970807          	0x970807
    1e9c:	0000                	unimp
    1e9e:	0908                	addi	a0,sp,144
    1ea0:	00000897          	auipc	a7,0x0
    1ea4:	1301                	addi	t1,t1,-32
    1ea6:	0000860f          	0x860f
    1eaa:	0900                	addi	s0,sp,144
    1eac:	08ad                	addi	a7,a7,11
    1eae:	0000                	unimp
    1eb0:	1401                	addi	s0,s0,-32
    1eb2:	0000860f          	0x860f
    1eb6:	0900                	addi	s0,sp,144
    1eb8:	0835                	addi	a6,a6,13
    1eba:	0000                	unimp
    1ebc:	1501                	addi	a0,a0,-32
    1ebe:	0000860f          	0x860f
    1ec2:	0900                	addi	s0,sp,144
    1ec4:	08c1                	addi	a7,a7,16
    1ec6:	0000                	unimp
    1ec8:	1601                	addi	a2,a2,-32
    1eca:	0000860f          	0x860f
    1ece:	0a00                	addi	s0,sp,272
    1ed0:	0848                	addi	a0,sp,20
    1ed2:	0000                	unimp
    1ed4:	1e01                	addi	t3,t3,-32
    1ed6:	ee01                	bnez	a2,1eee <_start-0xe1c2>
    1ed8:	0101                	addi	sp,sp,0
    1eda:	0000                	unimp
    1edc:	0000                	unimp
    1ede:	6a00                	ld	s0,16(a2)
    1ee0:	0000                	unimp
    1ee2:	0000                	unimp
    1ee4:	0000                	unimp
    1ee6:	0100                	addi	s0,sp,128
    1ee8:	0b9c                	addi	a5,sp,464
    1eea:	04ff                	0x4ff
    1eec:	0000                	unimp
    1eee:	2001                	0x2001
    1ef0:	650a                	ld	a0,128(sp)
    1ef2:	0000                	unimp
    1ef4:	f300                	sd	s0,32(a4)
    1ef6:	0000                	unimp
    1ef8:	0c00                	addi	s0,sp,528
    1efa:	0069                	c.nop	26
    1efc:	2101                	sext.w	sp,sp
    1efe:	650a                	ld	a0,128(sp)
    1f00:	0000                	unimp
    1f02:	2900                	fld	fs0,16(a0)
    1f04:	0001                	nop
    1f06:	0000                	unimp
    1f08:	2a00                	fld	fs0,16(a2)
    1f0a:	0000                	unimp
    1f0c:	0200                	addi	s0,sp,256
    1f0e:	9000                	0x9000
    1f10:	08000007          	0x8000007
    1f14:	9101                	srli	a0,a0,0x20
    1f16:	0008                	0x8
    1f18:	5800                	lw	s0,48(s0)
    1f1a:	0102                	c.slli64	sp
    1f1c:	0000                	unimp
    1f1e:	0000                	unimp
    1f20:	0200                	addi	s0,sp,256
    1f22:	00000103          	lb	sp,0(zero) # 0 <_start-0x100b0>
    1f26:	0000                	unimp
    1f28:	d200                	sw	s0,32(a2)
    1f2a:	0008                	0x8
    1f2c:	1a00                	addi	s0,sp,304
    1f2e:	0009                	c.nop	2
    1f30:	a100                	fsd	fs0,0(a0)
    1f32:	0000                	unimp
    1f34:	0100                	addi	s0,sp,128
    1f36:	dd80                	sw	s0,56(a1)
    1f38:	0009                	c.nop	2
    1f3a:	0400                	addi	s0,sp,512
    1f3c:	a400                	fsd	fs0,8(s0)
    1f3e:	08000007          	0x8000007
    1f42:	9b01                	andi	a4,a4,-32
    1f44:	0001                	nop
    1f46:	0c00                	addi	s0,sp,528
    1f48:	0990                	addi	a2,sp,208
    1f4a:	0000                	unimp
    1f4c:	00000387          	0x387
    1f50:	0302                	c.slli64	t1
    1f52:	0001                	nop
    1f54:	0000                	unimp
    1f56:	0000                	unimp
    1f58:	0076                	c.slli	zero,0x1d
    1f5a:	0000                	unimp
    1f5c:	0000                	unimp
    1f5e:	0000                	unimp
    1f60:	0a51                	addi	s4,s4,20
    1f62:	0000                	unimp
    1f64:	0802                	c.slli64	a6
    1f66:	8c05                	sub	s0,s0,s1
    1f68:	0001                	nop
    1f6a:	0200                	addi	s0,sp,256
    1f6c:	0708                	addi	a0,sp,896
    1f6e:	0000013b          	addw	sp,zero,zero
    1f72:	69050403          	lb	s0,1680(a0)
    1f76:	746e                	ld	s0,248(sp)
    1f78:	0200                	addi	s0,sp,256
    1f7a:	0508                	addi	a0,sp,640
    1f7c:	00000187          	0x187
    1f80:	1002                	c.slli	zero,0x20
    1f82:	7404                	ld	s1,40(s0)
    1f84:	04000003          	lb	zero,64(zero) # 40 <_start-0x10070>
    1f88:	0345                	addi	t1,t1,17
    1f8a:	0000                	unimp
    1f8c:	5e02                	lw	t3,32(sp)
    1f8e:	1701                	addi	a4,a4,-32
    1f90:	005d                	c.nop	23
    1f92:	0000                	unimp
    1f94:	0402                	c.slli64	s0
    1f96:	00014007          	flq	ft0,0(sp)
    1f9a:	0200                	addi	s0,sp,256
    1f9c:	0601                	addi	a2,a2,0
    1f9e:	043d                	addi	s0,s0,15
    1fa0:	0000                	unimp
    1fa2:	0102                	c.slli64	sp
    1fa4:	3b08                	fld	fa0,48(a4)
    1fa6:	0004                	0x4
    1fa8:	0200                	addi	s0,sp,256
    1faa:	0502                	c.slli64	a0
    1fac:	00000457          	0x457
    1fb0:	0202                	c.slli64	tp
    1fb2:	00030207          	0x30207
    1fb6:	0500                	addi	s0,sp,640
    1fb8:	0000040f          	0x40f
    1fbc:	2d0e2e03          	lw	t3,720(t3)
    1fc0:	0000                	unimp
    1fc2:	0500                	addi	s0,sp,640
    1fc4:	00000513          	li	a0,0
    1fc8:	2d0e7403          	0x2d0e7403
    1fcc:	0000                	unimp
    1fce:	0500                	addi	s0,sp,640
    1fd0:	000005a7          	0x5a7
    1fd4:	2d179303          	lh	t1,721(a5)
    1fd8:	0000                	unimp
    1fda:	0600                	addi	s0,sp,768
    1fdc:	0304                	addi	s1,sp,384
    1fde:	03a5                	addi	t2,t2,9
    1fe0:	00c6                	slli	ra,ra,0x11
    1fe2:	0000                	unimp
    1fe4:	00033f07          	fld	ft10,0(t1)
    1fe8:	0300                	addi	s0,sp,384
    1fea:	00500ca7          	0x500ca7
    1fee:	0000                	unimp
    1ff0:	0002de07          	0x2de07
    1ff4:	0300                	addi	s0,sp,384
    1ff6:	13a8                	addi	a0,sp,488
    1ff8:	00c6                	slli	ra,ra,0x11
    1ffa:	0000                	unimp
    1ffc:	0800                	addi	s0,sp,16
    1ffe:	0000006b          	0x6b
    2002:	00d6                	slli	ra,ra,0x15
    2004:	0000                	unimp
    2006:	3409                	addiw	s0,s0,-30
    2008:	0000                	unimp
    200a:	0300                	addi	s0,sp,384
    200c:	0a00                	addi	s0,sp,272
    200e:	0308                	addi	a0,sp,384
    2010:	09a2                	slli	s3,s3,0x8
    2012:	00fa                	slli	ra,ra,0x1e
    2014:	0000                	unimp
    2016:	0004fd0b          	0x4fd0b
    201a:	0300                	addi	s0,sp,384
    201c:	07a4                	addi	s1,sp,968
    201e:	0000003b          	addw	zero,zero,zero
    2022:	0b00                	addi	s0,sp,400
    2024:	0505                	addi	a0,a0,1
    2026:	0000                	unimp
    2028:	a405a903          	lw	s2,-1472(a1)
    202c:	0000                	unimp
    202e:	0400                	addi	s0,sp,512
    2030:	0500                	addi	s0,sp,640
    2032:	047f                	0x47f
    2034:	0000                	unimp
    2036:	d603aa03          	lw	s4,-672(t2)
    203a:	0000                	unimp
    203c:	0c00                	addi	s0,sp,528
    203e:	0508                	addi	a0,sp,640
    2040:	055d                	addi	a0,a0,23
    2042:	0000                	unimp
    2044:	1904                	addi	s1,sp,176
    2046:	5d19                	li	s10,-26
    2048:	0000                	unimp
    204a:	0500                	addi	s0,sp,640
    204c:	0429                	addi	s0,s0,10
    204e:	0000                	unimp
    2050:	0c05                	addi	s8,s8,1
    2052:	3b0d                	addiw	s6,s6,-29
    2054:	0000                	unimp
    2056:	0500                	addi	s0,sp,640
    2058:	02a1                	addi	t0,t0,8
    205a:	0000                	unimp
    205c:	2304                	fld	fs1,0(a4)
    205e:	0001141b          	slliw	s0,sp,0x0
    2062:	0d00                	addi	s0,sp,656
    2064:	02b2                	slli	t0,t0,0xc
    2066:	0000                	unimp
    2068:	0420                	addi	s0,sp,520
    206a:	0834                	addi	a3,sp,24
    206c:	0186                	slli	gp,gp,0x1
    206e:	0000                	unimp
    2070:	0004a00b          	0x4a00b
    2074:	0400                	addi	s0,sp,512
    2076:	1336                	slli	t1,t1,0x2d
    2078:	0186                	slli	gp,gp,0x1
    207a:	0000                	unimp
    207c:	0e00                	addi	s0,sp,784
    207e:	6b5f 0400 0737      	0x73704006b5f
    2084:	0000003b          	addw	zero,zero,zero
    2088:	0b08                	addi	a0,sp,400
    208a:	04e8                	addi	a0,sp,588
    208c:	0000                	unimp
    208e:	3704                	fld	fs1,40(a4)
    2090:	00003b0b          	0x3b0b
    2094:	0c00                	addi	s0,sp,528
    2096:	00029b0b          	0x29b0b
    209a:	0400                	addi	s0,sp,512
    209c:	003b1437          	lui	s0,0x3b1
    20a0:	0000                	unimp
    20a2:	0b10                	addi	a2,sp,400
    20a4:	0592                	slli	a1,a1,0x4
    20a6:	0000                	unimp
    20a8:	3704                	fld	fs1,40(a4)
    20aa:	00003b1b          	0x3b1b
    20ae:	1400                	addi	s0,sp,544
    20b0:	5f0e                	lw	t5,224(sp)
    20b2:	0078                	addi	a4,sp,12
    20b4:	3804                	fld	fs1,48(s0)
    20b6:	00018c0b          	0x18c0b
    20ba:	1800                	addi	s0,sp,48
    20bc:	0f00                	addi	s0,sp,912
    20be:	2c08                	fld	fa0,24(s0)
    20c0:	0001                	nop
    20c2:	0800                	addi	s0,sp,16
    20c4:	0108                	addi	a0,sp,128
    20c6:	0000                	unimp
    20c8:	019c                	addi	a5,sp,192
    20ca:	0000                	unimp
    20cc:	3409                	addiw	s0,s0,-30
    20ce:	0000                	unimp
    20d0:	0000                	unimp
    20d2:	0d00                	addi	s0,sp,656
    20d4:	02d9                	addi	t0,t0,22
    20d6:	0000                	unimp
    20d8:	0424                	addi	s1,sp,520
    20da:	083c                	addi	a5,sp,24
    20dc:	021f 0000 7e0b      	0x7e0b0000021f
    20e2:	0001                	nop
    20e4:	0400                	addi	s0,sp,512
    20e6:	093e                	slli	s2,s2,0xf
    20e8:	0000003b          	addw	zero,zero,zero
    20ec:	0b00                	addi	s0,sp,400
    20ee:	0000051b          	sext.w	a0,zero
    20f2:	3f04                	fld	fs1,56(a4)
    20f4:	3b09                	addiw	s6,s6,-30
    20f6:	0000                	unimp
    20f8:	0400                	addi	s0,sp,512
    20fa:	0001ff0b          	0x1ff0b
    20fe:	0400                	addi	s0,sp,512
    2100:	0940                	addi	s0,sp,148
    2102:	0000003b          	addw	zero,zero,zero
    2106:	0b08                	addi	a0,sp,400
    2108:	061a                	slli	a2,a2,0x6
    210a:	0000                	unimp
    210c:	4104                	lw	s1,0(a0)
    210e:	3b09                	addiw	s6,s6,-30
    2110:	0000                	unimp
    2112:	0c00                	addi	s0,sp,528
    2114:	0003f10b          	0x3f10b
    2118:	0400                	addi	s0,sp,512
    211a:	0942                	slli	s2,s2,0x10
    211c:	0000003b          	addw	zero,zero,zero
    2120:	0b10                	addi	a2,sp,400
    2122:	0361                	addi	t1,t1,24
    2124:	0000                	unimp
    2126:	4304                	lw	s1,0(a4)
    2128:	3b09                	addiw	s6,s6,-30
    212a:	0000                	unimp
    212c:	1400                	addi	s0,sp,544
    212e:	0005970b          	0x5970b
    2132:	0400                	addi	s0,sp,512
    2134:	0944                	addi	s1,sp,148
    2136:	0000003b          	addw	zero,zero,zero
    213a:	0b18                	addi	a4,sp,400
    213c:	0461                	addi	s0,s0,24
    213e:	0000                	unimp
    2140:	4504                	lw	s1,8(a0)
    2142:	3b09                	addiw	s6,s6,-30
    2144:	0000                	unimp
    2146:	1c00                	addi	s0,sp,560
    2148:	0005d20b          	0x5d20b
    214c:	0400                	addi	s0,sp,512
    214e:	0946                	slli	s2,s2,0x11
    2150:	0000003b          	addw	zero,zero,zero
    2154:	0020                	addi	s0,sp,8
    2156:	0e10                	addi	a2,sp,784
    2158:	0002                	c.slli64	zero
    215a:	0800                	addi	s0,sp,16
    215c:	0402                	c.slli64	s0
    215e:	0265084f          	fnmadd.d	fa6,fa0,ft6,ft0,rne
    2162:	0000                	unimp
    2164:	00028e0b          	0x28e0b
    2168:	0400                	addi	s0,sp,512
    216a:	0a50                	addi	a2,sp,276
    216c:	0265                	addi	tp,tp,25
    216e:	0000                	unimp
    2170:	1100                	addi	s0,sp,160
    2172:	00b0                	addi	a2,sp,72
    2174:	0000                	unimp
    2176:	5104                	lw	s1,32(a0)
    2178:	6509                	lui	a0,0x2
    217a:	0002                	c.slli64	zero
    217c:	0000                	unimp
    217e:	1101                	addi	sp,sp,-32
    2180:	00000543          	fmadd.s	fa0,ft0,ft0,ft0,rne
    2184:	5304                	lw	s1,32(a4)
    2186:	080a                	slli	a6,a6,0x2
    2188:	0001                	nop
    218a:	0000                	unimp
    218c:	1102                	slli	sp,sp,0x20
    218e:	00000233          	add	tp,zero,zero
    2192:	5604                	lw	s1,40(a2)
    2194:	080a                	slli	a6,a6,0x2
    2196:	0001                	nop
    2198:	0400                	addi	s0,sp,512
    219a:	0002                	c.slli64	zero
    219c:	0608                	addi	a0,sp,768
    219e:	0001                	nop
    21a0:	7500                	ld	s0,40(a0)
    21a2:	0002                	c.slli64	zero
    21a4:	0900                	addi	s0,sp,144
    21a6:	0034                	addi	a3,sp,8
    21a8:	0000                	unimp
    21aa:	001f 5010 0005      	0x55010001f
    21b0:	1800                	addi	s0,sp,48
    21b2:	08620403          	lb	s0,134(tp) # 86 <_start-0x1002a>
    21b6:	02b9                	addi	t0,t0,14
    21b8:	0000                	unimp
    21ba:	0004a00b          	0x4a00b
    21be:	0400                	addi	s0,sp,512
    21c0:	02b91263          	bne	s2,a1,21e4 <_start-0xdecc>
    21c4:	0000                	unimp
    21c6:	0b00                	addi	s0,sp,400
    21c8:	04b8                	addi	a4,sp,584
    21ca:	0000                	unimp
    21cc:	6404                	ld	s1,8(s0)
    21ce:	3b06                	fld	fs6,96(sp)
    21d0:	0000                	unimp
    21d2:	0800                	addi	s0,sp,16
    21d4:	0002960b          	0x2960b
    21d8:	0400                	addi	s0,sp,512
    21da:	0966                	slli	s2,s2,0x19
    21dc:	000002bf 020e1110 	0x20e1110000002bf
    21e4:	0000                	unimp
    21e6:	6704                	ld	s1,8(a4)
    21e8:	1f1e                	slli	t5,t5,0x27
    21ea:	0002                	c.slli64	zero
    21ec:	1000                	addi	s0,sp,32
    21ee:	0001                	nop
    21f0:	0275080f          	0x275080f
    21f4:	0000                	unimp
    21f6:	cf08                	sw	a0,24(a4)
    21f8:	0002                	c.slli64	zero
    21fa:	cf00                	sw	s0,24(a4)
    21fc:	0002                	c.slli64	zero
    21fe:	0900                	addi	s0,sp,144
    2200:	0034                	addi	a3,sp,8
    2202:	0000                	unimp
    2204:	001f 080f 02d5      	0x2d5080f001f
    220a:	0000                	unimp
    220c:	0d12                	slli	s10,s10,0x4
    220e:	0000046b          	0x46b
    2212:	0410                	addi	a2,sp,512
    2214:	087a                	slli	a6,a6,0x1e
    2216:	02fe                	slli	t0,t0,0x1f
    2218:	0000                	unimp
    221a:	0001f90b          	0x1f90b
    221e:	0400                	addi	s0,sp,512
    2220:	02fe117b          	0x2fe117b
    2224:	0000                	unimp
    2226:	0b00                	addi	s0,sp,400
    2228:	00bc                	addi	a5,sp,72
    222a:	0000                	unimp
    222c:	7c04                	ld	s1,56(s0)
    222e:	3b06                	fld	fs6,96(sp)
    2230:	0000                	unimp
    2232:	0800                	addi	s0,sp,16
    2234:	0f00                	addi	s0,sp,912
    2236:	6b08                	ld	a0,16(a4)
    2238:	0000                	unimp
    223a:	0d00                	addi	s0,sp,656
    223c:	048a                	slli	s1,s1,0x2
    223e:	0000                	unimp
    2240:	04b0                	addi	a2,sp,584
    2242:	08ba                	slli	a7,a7,0xe
    2244:	00000447          	fmsub.s	fs0,ft0,ft0,ft0,rne
    2248:	5f0e                	lw	t5,224(sp)
    224a:	0070                	addi	a2,sp,12
    224c:	bb04                	fsd	fs1,48(a4)
    224e:	fe12                	sd	tp,312(sp)
    2250:	0002                	c.slli64	zero
    2252:	0000                	unimp
    2254:	5f0e                	lw	t5,224(sp)
    2256:	0072                	c.slli	zero,0x1c
    2258:	bc04                	fsd	fs1,56(s0)
    225a:	00003b07          	fld	fs6,0(zero) # 0 <_start-0x100b0>
    225e:	0800                	addi	s0,sp,16
    2260:	5f0e                	lw	t5,224(sp)
    2262:	bd040077          	0xbd040077
    2266:	00003b07          	fld	fs6,0(zero) # 0 <_start-0x100b0>
    226a:	0c00                	addi	s0,sp,528
    226c:	00022c0b          	0x22c0b
    2270:	0400                	addi	s0,sp,512
    2272:	09be                	slli	s3,s3,0xf
    2274:	0072                	c.slli	zero,0x1c
    2276:	0000                	unimp
    2278:	0b10                	addi	a2,sp,400
    227a:	02f5                	addi	t0,t0,29
    227c:	0000                	unimp
    227e:	bf04                	fsd	fs1,56(a4)
    2280:	7209                	lui	tp,0xfffe2
    2282:	0000                	unimp
    2284:	1200                	addi	s0,sp,288
    2286:	5f0e                	lw	t5,224(sp)
    2288:	6662                	ld	a2,24(sp)
    228a:	0400                	addi	s0,sp,512
    228c:	11c0                	addi	s0,sp,228
    228e:	02d6                	slli	t0,t0,0x15
    2290:	0000                	unimp
    2292:	0b18                	addi	a4,sp,400
    2294:	014d                	addi	sp,sp,19
    2296:	0000                	unimp
    2298:	c104                	sw	s1,0(a0)
    229a:	00003b07          	fld	fs6,0(zero) # 0 <_start-0x100b0>
    229e:	2800                	fld	fs0,16(s0)
    22a0:	00021c0b          	0x21c0b
    22a4:	0400                	addi	s0,sp,512
    22a6:	0ac8                	addi	a0,sp,340
    22a8:	0106                	slli	sp,sp,0x1
    22aa:	0000                	unimp
    22ac:	0b30                	addi	a2,sp,408
    22ae:	02c9                	addi	t0,t0,18
    22b0:	0000                	unimp
    22b2:	ca04                	sw	s1,16(a2)
    22b4:	cb1d                	beqz	a4,22ea <_start-0xddc6>
    22b6:	0005                	c.nop	1
    22b8:	3800                	fld	fs0,48(s0)
    22ba:	00035a0b          	0x35a0b
    22be:	0400                	addi	s0,sp,512
    22c0:	1dcc                	addi	a1,sp,756
    22c2:	05f5                	addi	a1,a1,29
    22c4:	0000                	unimp
    22c6:	0b40                	addi	s0,sp,404
    22c8:	050d                	addi	a0,a0,3
    22ca:	0000                	unimp
    22cc:	cf04                	sw	s1,24(a4)
    22ce:	190d                	addi	s2,s2,-29
    22d0:	0006                	c.slli	zero,0x1
    22d2:	4800                	lw	s0,16(s0)
    22d4:	0005ec0b          	0x5ec0b
    22d8:	0400                	addi	s0,sp,512
    22da:	09d0                	addi	a2,sp,212
    22dc:	00000633          	add	a2,zero,zero
    22e0:	0e50                	addi	a2,sp,788
    22e2:	755f 0062 d304      	0xd3040062755f
    22e8:	d611                	beqz	a2,21f4 <_start-0xdebc>
    22ea:	0002                	c.slli64	zero
    22ec:	5800                	lw	s0,48(s0)
    22ee:	5f0e                	lw	t5,224(sp)
    22f0:	7075                	c.lui	zero,0xffffd
    22f2:	0400                	addi	s0,sp,512
    22f4:	12d4                	addi	a3,sp,356
    22f6:	02fe                	slli	t0,t0,0x1f
    22f8:	0000                	unimp
    22fa:	0e68                	addi	a0,sp,796
    22fc:	755f 0072 d504      	0xd5040072755f
    2302:	00003b07          	fld	fs6,0(zero) # 0 <_start-0x100b0>
    2306:	7000                	ld	s0,32(s0)
    2308:	0001950b          	0x1950b
    230c:	0400                	addi	s0,sp,512
    230e:	11d8                	addi	a4,sp,228
    2310:	0639                	addi	a2,a2,14
    2312:	0000                	unimp
    2314:	0b74                	addi	a3,sp,412
    2316:	05c4                	addi	s1,sp,708
    2318:	0000                	unimp
    231a:	d904                	sw	s1,48(a0)
    231c:	4911                	li	s2,4
    231e:	0006                	c.slli	zero,0x1
    2320:	7700                	ld	s0,40(a4)
    2322:	5f0e                	lw	t5,224(sp)
    2324:	626c                	ld	a1,192(a2)
    2326:	0400                	addi	s0,sp,512
    2328:	11dc                	addi	a5,sp,228
    232a:	02d6                	slli	t0,t0,0x15
    232c:	0000                	unimp
    232e:	0b78                	addi	a4,sp,412
    2330:	0242                	slli	tp,tp,0x10
    2332:	0000                	unimp
    2334:	df04                	sw	s1,56(a4)
    2336:	00003b07          	fld	fs6,0(zero) # 0 <_start-0x100b0>
    233a:	8800                	0x8800
    233c:	0002670b          	0x2670b
    2340:	0400                	addi	s0,sp,512
    2342:	0ae0                	addi	s0,sp,348
    2344:	0080                	addi	s0,sp,64
    2346:	0000                	unimp
    2348:	0b90                	addi	a2,sp,464
    234a:	07c6                	slli	a5,a5,0x11
    234c:	0000                	unimp
    234e:	e304                	sd	s1,0(a4)
    2350:	6512                	ld	a0,256(sp)
    2352:	0004                	0x4
    2354:	9800                	0x9800
    2356:	00034c0b          	0x34c0b
    235a:	0400                	addi	s0,sp,512
    235c:	01200ce7          	jalr	s9,18(zero) # 0 <_start-0x100b0>
    2360:	0000                	unimp
    2362:	0ba0                	addi	s0,sp,472
    2364:	0492                	slli	s1,s1,0x4
    2366:	0000                	unimp
    2368:	e904                	sd	s1,16(a0)
    236a:	fa0e                	sd	gp,304(sp)
    236c:	0000                	unimp
    236e:	a400                	fsd	fs0,8(s0)
    2370:	0003520b          	0x3520b
    2374:	0400                	addi	s0,sp,512
    2376:	09ea                	slli	s3,s3,0x1a
    2378:	0000003b          	addw	zero,zero,zero
    237c:	00ac                	addi	a1,sp,72
    237e:	00009813          	slli	a6,ra,0x0
    2382:	6500                	ld	s0,8(a0)
    2384:	0004                	0x4
    2386:	1400                	addi	s0,sp,544
    2388:	0465                	addi	s0,s0,25
    238a:	0000                	unimp
    238c:	0614                	addi	a3,sp,768
    238e:	0001                	nop
    2390:	1400                	addi	s0,sp,544
    2392:	05b9                	addi	a1,a1,14
    2394:	0000                	unimp
    2396:	3b14                	fld	fa3,48(a4)
    2398:	0000                	unimp
    239a:	0000                	unimp
    239c:	0470080f          	0x470080f
    23a0:	0000                	unimp
    23a2:	6515                	lui	a0,0x5
    23a4:	0004                	0x4
    23a6:	1600                	addi	s0,sp,800
    23a8:	04f0                	addi	a2,sp,588
    23aa:	0000                	unimp
    23ac:	0748                	addi	a0,sp,900
    23ae:	6504                	ld	s1,8(a0)
    23b0:	0802                	c.slli64	a6
    23b2:	05b9                	addi	a1,a1,14
    23b4:	0000                	unimp
    23b6:	000a6117          	auipc	sp,0xa6
    23ba:	0400                	addi	s0,sp,512
    23bc:	3b070267          	jalr	tp,944(a4) # 50f1a <__global_pointer$+0x3f29a>
    23c0:	0000                	unimp
    23c2:	0000                	unimp
    23c4:	00023b17          	auipc	s6,0x23
    23c8:	0400                	addi	s0,sp,512
    23ca:	026c                	addi	a1,sp,268
    23cc:	0006a50b          	0x6a50b
    23d0:	0800                	addi	s0,sp,16
    23d2:	0002e517          	auipc	a0,0x2e
    23d6:	0400                	addi	s0,sp,512
    23d8:	026c                	addi	a1,sp,268
    23da:	a514                	fsd	fa3,8(a0)
    23dc:	0006                	c.slli	zero,0x1
    23de:	1000                	addi	s0,sp,32
    23e0:	0002aa17          	auipc	s4,0x2a
    23e4:	0400                	addi	s0,sp,512
    23e6:	026c                	addi	a1,sp,268
    23e8:	a51e                	fsd	ft7,136(sp)
    23ea:	0006                	c.slli	zero,0x1
    23ec:	1800                	addi	s0,sp,48
    23ee:	0004b317          	auipc	t1,0x4b
    23f2:	0400                	addi	s0,sp,512
    23f4:	026e                	slli	tp,tp,0x1b
    23f6:	3b08                	fld	fa0,48(a4)
    23f8:	0000                	unimp
    23fa:	2000                	fld	fs0,0(s0)
    23fc:	00010b17          	auipc	s6,0x10
    2400:	0400                	addi	s0,sp,512
    2402:	ae08026f          	jal	tp,fffffffffff826e2 <__global_pointer$+0xfffffffffff70a62>
    2406:	0008                	0x8
    2408:	2400                	fld	fs0,8(s0)
    240a:	0004cf17          	auipc	t5,0x4c
    240e:	0400                	addi	s0,sp,512
    2410:	0272                	slli	tp,tp,0x1c
    2412:	00003b07          	fld	fs6,0(zero) # 0 <_start-0x100b0>
    2416:	4000                	lw	s0,0(s0)
    2418:	0004bd17          	auipc	s10,0x4b
    241c:	0400                	addi	s0,sp,512
    241e:	c3160273          	0xc3160273
    2422:	0008                	0x8
    2424:	4800                	lw	s0,16(s0)
    2426:	00040417          	auipc	s0,0x40
    242a:	0400                	addi	s0,sp,512
    242c:	0275                	addi	tp,tp,29
    242e:	00003b07          	fld	fs6,0(zero) # 0 <_start-0x100b0>
    2432:	5000                	lw	s0,32(s0)
    2434:	0004c517          	auipc	a0,0x4c
    2438:	0400                	addi	s0,sp,512
    243a:	d40a0277          	0xd40a0277
    243e:	0008                	0x8
    2440:	5800                	lw	s0,48(s0)
    2442:	00033717          	auipc	a4,0x33
    2446:	0400                	addi	s0,sp,512
    2448:	027a                	slli	tp,tp,0x1e
    244a:	00018613          	mv	a2,gp
    244e:	6000                	ld	s0,0(s0)
    2450:	0002cf17          	auipc	t5,0x2c
    2454:	0400                	addi	s0,sp,512
    2456:	3b07027b          	0x3b07027b
    245a:	0000                	unimp
    245c:	6800                	ld	s0,16(s0)
    245e:	00060617          	auipc	a2,0x60
    2462:	0400                	addi	s0,sp,512
    2464:	027c                	addi	a5,sp,268
    2466:	00018613          	mv	a2,gp
    246a:	7000                	ld	s0,32(s0)
    246c:	00041f17          	auipc	t5,0x41
    2470:	0400                	addi	s0,sp,512
    2472:	027d                	addi	tp,tp,31
    2474:	da14                	sw	a3,48(a2)
    2476:	0008                	0x8
    2478:	7800                	ld	s0,48(s0)
    247a:	0002ed17          	auipc	s10,0x2e
    247e:	0400                	addi	s0,sp,512
    2480:	0280                	addi	s0,sp,320
    2482:	00003b07          	fld	fs6,0(zero) # 0 <_start-0x100b0>
    2486:	8000                	0x8000
    2488:	00025f17          	auipc	t5,0x25
    248c:	0400                	addi	s0,sp,512
    248e:	0281                	addi	t0,t0,0
    2490:	b909                	j	20a2 <_start-0xe00e>
    2492:	0005                	c.nop	1
    2494:	8800                	0x8800
    2496:	00044917          	auipc	s2,0x44
    249a:	0400                	addi	s0,sp,512
    249c:	02a4                	addi	s1,sp,328
    249e:	00088807          	0x88807
    24a2:	9000                	0x9000
    24a4:	5018                	lw	a4,32(s0)
    24a6:	0005                	c.nop	1
    24a8:	0400                	addi	s0,sp,512
    24aa:	02a8                	addi	a0,sp,328
    24ac:	0002b913          	sltiu	s2,t0,0
    24b0:	f800                	sd	s0,48(s0)
    24b2:	1801                	addi	a6,a6,-32
    24b4:	0315                	addi	t1,t1,5
    24b6:	0000                	unimp
    24b8:	a904                	fsd	fs1,16(a0)
    24ba:	1202                	slli	tp,tp,0x20
    24bc:	0275                	addi	tp,tp,29
    24be:	0000                	unimp
    24c0:	0200                	addi	s0,sp,256
    24c2:	ba18                	fsd	fa4,48(a2)
    24c4:	0005                	c.nop	1
    24c6:	0400                	addi	s0,sp,512
    24c8:	02ad                	addi	t0,t0,11
    24ca:	eb0c                	sd	a1,16(a4)
    24cc:	0008                	0x8
    24ce:	1800                	addi	s0,sp,48
    24d0:	1805                	addi	a6,a6,-31
    24d2:	0224                	addi	s1,sp,264
    24d4:	0000                	unimp
    24d6:	b204                	fsd	fs1,32(a2)
    24d8:	1002                	c.slli	zero,0x20
    24da:	0666                	slli	a2,a2,0x19
    24dc:	0000                	unimp
    24de:	0520                	addi	s0,sp,648
    24e0:	0918                	addi	a4,sp,144
    24e2:	0002                	c.slli64	zero
    24e4:	0400                	addi	s0,sp,512
    24e6:	02b4                	addi	a3,sp,328
    24e8:	f70a                	sd	sp,424(sp)
    24ea:	0008                	0x8
    24ec:	3800                	fld	fs0,48(s0)
    24ee:	0005                	c.nop	1
    24f0:	05bf080f          	0x5bf080f
    24f4:	0000                	unimp
    24f6:	0102                	c.slli64	sp
    24f8:	4408                	lw	a0,8(s0)
    24fa:	0004                	0x4
    24fc:	1500                	addi	s0,sp,672
    24fe:	000005bf 0447080f 	0x447080f000005bf
    2506:	0000                	unimp
    2508:	00009813          	slli	a6,ra,0x0
    250c:	ef00                	sd	s0,24(a4)
    250e:	0005                	c.nop	1
    2510:	1400                	addi	s0,sp,544
    2512:	0465                	addi	s0,s0,25
    2514:	0000                	unimp
    2516:	0614                	addi	a3,sp,768
    2518:	0001                	nop
    251a:	1400                	addi	s0,sp,544
    251c:	000005ef          	jal	a1,251c <_start-0xdb94>
    2520:	3b14                	fld	fa3,48(a4)
    2522:	0000                	unimp
    2524:	0000                	unimp
    2526:	05c6080f          	0x5c6080f
    252a:	0000                	unimp
    252c:	05d1080f          	0x5d1080f
    2530:	0000                	unimp
    2532:	00008c13          	mv	s8,ra
    2536:	1900                	addi	s0,sp,176
    2538:	0006                	c.slli	zero,0x1
    253a:	1400                	addi	s0,sp,544
    253c:	0465                	addi	s0,s0,25
    253e:	0000                	unimp
    2540:	0614                	addi	a3,sp,768
    2542:	0001                	nop
    2544:	1400                	addi	s0,sp,544
    2546:	008c                	addi	a1,sp,64
    2548:	0000                	unimp
    254a:	3b14                	fld	fa3,48(a4)
    254c:	0000                	unimp
    254e:	0000                	unimp
    2550:	05fb080f          	0x5fb080f
    2554:	0000                	unimp
    2556:	00003b13          	sltiu	s6,zero,0
    255a:	3300                	fld	fs0,32(a4)
    255c:	0006                	c.slli	zero,0x1
    255e:	1400                	addi	s0,sp,544
    2560:	0465                	addi	s0,s0,25
    2562:	0000                	unimp
    2564:	0614                	addi	a3,sp,768
    2566:	0001                	nop
    2568:	0000                	unimp
    256a:	061f080f          	0x61f080f
    256e:	0000                	unimp
    2570:	6b08                	ld	a0,16(a4)
    2572:	0000                	unimp
    2574:	4900                	lw	s0,16(a0)
    2576:	0006                	c.slli	zero,0x1
    2578:	0900                	addi	s0,sp,144
    257a:	0034                	addi	a3,sp,8
    257c:	0000                	unimp
    257e:	0002                	c.slli64	zero
    2580:	6b08                	ld	a0,16(a4)
    2582:	0000                	unimp
    2584:	5900                	lw	s0,48(a0)
    2586:	0006                	c.slli	zero,0x1
    2588:	0900                	addi	s0,sp,144
    258a:	0034                	addi	a3,sp,8
    258c:	0000                	unimp
    258e:	0000                	unimp
    2590:	7804                	ld	s1,48(s0)
    2592:	0004                	0x4
    2594:	0400                	addi	s0,sp,512
    2596:	0124                	addi	s1,sp,136
    2598:	041a                	slli	s0,s0,0x6
    259a:	19000003          	lb	zero,400(zero) # 190 <_start-0xff20>
    259e:	05a1                	addi	a1,a1,8
    25a0:	0000                	unimp
    25a2:	0418                	addi	a4,sp,512
    25a4:	0128                	addi	a0,sp,136
    25a6:	9f08                	0x9f08
    25a8:	0006                	c.slli	zero,0x1
    25aa:	1700                	addi	s0,sp,928
    25ac:	04a0                	addi	s0,sp,584
    25ae:	0000                	unimp
    25b0:	2a04                	fld	fs1,16(a2)
    25b2:	1101                	addi	sp,sp,-32
    25b4:	069f 0000 1700      	0x17000000069f
    25ba:	000002fb          	0x2fb
    25be:	2b04                	fld	fs1,16(a4)
    25c0:	0701                	addi	a4,a4,0
    25c2:	0000003b          	addw	zero,zero,zero
    25c6:	1708                	addi	a0,sp,928
    25c8:	0472                	slli	s0,s0,0x1c
    25ca:	0000                	unimp
    25cc:	2c04                	fld	fs1,24(s0)
    25ce:	0b01                	addi	s6,s6,0
    25d0:	06a5                	addi	a3,a3,9
    25d2:	0000                	unimp
    25d4:	0010                	0x10
    25d6:	0666080f          	0x666080f
    25da:	0000                	unimp
    25dc:	0659080f          	0x659080f
    25e0:	0000                	unimp
    25e2:	0319                	addi	t1,t1,6
    25e4:	0001                	nop
    25e6:	0e00                	addi	s0,sp,784
    25e8:	4404                	lw	s1,8(s0)
    25ea:	0801                	addi	a6,a6,0
    25ec:	06e4                	addi	s1,sp,844
    25ee:	0000                	unimp
    25f0:	0004f717          	auipc	a4,0x4f
    25f4:	0400                	addi	s0,sp,512
    25f6:	0145                	addi	sp,sp,17
    25f8:	e412                	sd	tp,8(sp)
    25fa:	0006                	c.slli	zero,0x1
    25fc:	0000                	unimp
    25fe:	00052417          	auipc	s0,0x52
    2602:	0400                	addi	s0,sp,512
    2604:	0146                	slli	sp,sp,0x11
    2606:	e412                	sd	tp,8(sp)
    2608:	0006                	c.slli	zero,0x1
    260a:	0600                	addi	s0,sp,768
    260c:	00055817          	auipc	a6,0x55
    2610:	0400                	addi	s0,sp,512
    2612:	79120147          	fmsub.s	ft2,ft4,fa7,fa5,rne
    2616:	0000                	unimp
    2618:	0c00                	addi	s0,sp,528
    261a:	0800                	addi	s0,sp,16
    261c:	0079                	c.nop	30
    261e:	0000                	unimp
    2620:	06f4                	addi	a3,sp,844
    2622:	0000                	unimp
    2624:	3409                	addiw	s0,s0,-30
    2626:	0000                	unimp
    2628:	0200                	addi	s0,sp,256
    262a:	1a00                	addi	s0,sp,304
    262c:	04d8                	addi	a4,sp,580
    262e:	0285                	addi	t0,t0,1
    2630:	00080907          	0x80907
    2634:	1700                	addi	s0,sp,928
    2636:	0585                	addi	a1,a1,1
    2638:	0000                	unimp
    263a:	8704                	0x8704
    263c:	1802                	slli	a6,a6,0x20
    263e:	005d                	c.nop	23
    2640:	0000                	unimp
    2642:	1700                	addi	s0,sp,928
    2644:	052a                	slli	a0,a0,0xa
    2646:	0000                	unimp
    2648:	8804                	0x8804
    264a:	1202                	slli	tp,tp,0x20
    264c:	05b9                	addi	a1,a1,14
    264e:	0000                	unimp
    2650:	1708                	addi	a0,sp,928
    2652:	032a                	slli	t1,t1,0xa
    2654:	0000                	unimp
    2656:	8904                	0x8904
    2658:	1002                	c.slli	zero,0x20
    265a:	0809                	addi	a6,a6,2
    265c:	0000                	unimp
    265e:	1710                	addi	a2,sp,928
    2660:	05dd                	addi	a1,a1,23
    2662:	0000                	unimp
    2664:	8a04                	0x8a04
    2666:	1702                	slli	a4,a4,0x20
    2668:	019c                	addi	a5,sp,192
    266a:	0000                	unimp
    266c:	172c                	addi	a1,sp,936
    266e:	02ba                	slli	t0,t0,0xe
    2670:	0000                	unimp
    2672:	8b04                	0x8b04
    2674:	0f02                	c.slli64	t5
    2676:	0000003b          	addw	zero,zero,zero
    267a:	1750                	addi	a2,sp,932
    267c:	0000049b          	sext.w	s1,zero
    2680:	8c04                	0x8c04
    2682:	2c02                	fld	fs8,0(sp)
    2684:	0819                	addi	a6,a6,6
    2686:	0000                	unimp
    2688:	1758                	addi	a4,sp,932
    268a:	000005f3          	0x5f3
    268e:	8d04                	0x8d04
    2690:	1a02                	slli	s4,s4,0x20
    2692:	000006ab          	0x6ab
    2696:	1760                	addi	s0,sp,940
    2698:	04a6                	slli	s1,s1,0x9
    269a:	0000                	unimp
    269c:	8e04                	0x8e04
    269e:	1602                	slli	a2,a2,0x20
    26a0:	00fa                	slli	ra,ra,0x1e
    26a2:	0000                	unimp
    26a4:	1770                	addi	a2,sp,940
    26a6:	05f8                	addi	a4,sp,716
    26a8:	0000                	unimp
    26aa:	8f04                	0x8f04
    26ac:	1602                	slli	a2,a2,0x20
    26ae:	00fa                	slli	ra,ra,0x1e
    26b0:	0000                	unimp
    26b2:	1778                	addi	a4,sp,940
    26b4:	0170                	addi	a2,sp,140
    26b6:	0000                	unimp
    26b8:	9004                	0x9004
    26ba:	1602                	slli	a2,a2,0x20
    26bc:	00fa                	slli	ra,ra,0x1e
    26be:	0000                	unimp
    26c0:	1780                	addi	s0,sp,992
    26c2:	05b0                	addi	a2,sp,712
    26c4:	0000                	unimp
    26c6:	9104                	0x9104
    26c8:	1002                	c.slli	zero,0x20
    26ca:	0820                	addi	s0,sp,24
    26cc:	0000                	unimp
    26ce:	1788                	addi	a0,sp,992
    26d0:	031e                	slli	t1,t1,0x7
    26d2:	0000                	unimp
    26d4:	9204                	0x9204
    26d6:	1002                	c.slli	zero,0x20
    26d8:	0830                	addi	a2,sp,24
    26da:	0000                	unimp
    26dc:	1790                	addi	a2,sp,992
    26de:	0565                	addi	a0,a0,25
    26e0:	0000                	unimp
    26e2:	9304                	0x9304
    26e4:	0f02                	c.slli64	t5
    26e6:	0000003b          	addw	zero,zero,zero
    26ea:	17a8                	addi	a0,sp,1000
    26ec:	0280                	addi	s0,sp,320
    26ee:	0000                	unimp
    26f0:	9404                	0x9404
    26f2:	1602                	slli	a2,a2,0x20
    26f4:	00fa                	slli	ra,ra,0x1e
    26f6:	0000                	unimp
    26f8:	17ac                	addi	a1,sp,1000
    26fa:	0161                	addi	sp,sp,24
    26fc:	0000                	unimp
    26fe:	9504                	0x9504
    2700:	1602                	slli	a2,a2,0x20
    2702:	00fa                	slli	ra,ra,0x1e
    2704:	0000                	unimp
    2706:	17b4                	addi	a3,sp,1000
    2708:	0000026f          	jal	tp,2708 <_start-0xd9a8>
    270c:	9604                	0x9604
    270e:	1602                	slli	a2,a2,0x20
    2710:	00fa                	slli	ra,ra,0x1e
    2712:	0000                	unimp
    2714:	17bc                	addi	a5,sp,1000
    2716:	0116                	slli	sp,sp,0x5
    2718:	0000                	unimp
    271a:	9704                	0x9704
    271c:	1602                	slli	a2,a2,0x20
    271e:	00fa                	slli	ra,ra,0x1e
    2720:	0000                	unimp
    2722:	17c4                	addi	s1,sp,996
    2724:	0125                	addi	sp,sp,9
    2726:	0000                	unimp
    2728:	9804                	0x9804
    272a:	1602                	slli	a2,a2,0x20
    272c:	00fa                	slli	ra,ra,0x1e
    272e:	0000                	unimp
    2730:	17cc                	addi	a1,sp,996
    2732:	044e                	slli	s0,s0,0x13
    2734:	0000                	unimp
    2736:	9904                	0x9904
    2738:	0802                	c.slli64	a6
    273a:	0000003b          	addw	zero,zero,zero
    273e:	00d4                	addi	a3,sp,68
    2740:	bf08                	fsd	fa0,56(a4)
    2742:	0005                	c.nop	1
    2744:	1900                	addi	s0,sp,176
    2746:	0008                	0x8
    2748:	0900                	addi	s0,sp,144
    274a:	0034                	addi	a3,sp,8
    274c:	0000                	unimp
    274e:	0019                	c.nop	6
    2750:	0802                	c.slli64	a6
    2752:	00013607          	fld	fa2,0(sp) # a83b6 <__global_pointer$+0x96736>
    2756:	0800                	addi	s0,sp,16
    2758:	000005bf 00000830 	0x830000005bf
    2760:	3409                	addiw	s0,s0,-30
    2762:	0000                	unimp
    2764:	0700                	addi	s0,sp,896
    2766:	0800                	addi	s0,sp,16
    2768:	000005bf 00000840 	0x840000005bf
    2770:	3409                	addiw	s0,s0,-30
    2772:	0000                	unimp
    2774:	1700                	addi	s0,sp,928
    2776:	1b00                	addi	s0,sp,432
    2778:	0168                	addi	a0,sp,140
    277a:	9e04                	0x9e04
    277c:	0702                	c.slli64	a4
    277e:	0868                	addi	a0,sp,28
    2780:	0000                	unimp
    2782:	00038017          	auipc	zero,0x38
    2786:	0400                	addi	s0,sp,512
    2788:	02a1                	addi	t0,t0,8
    278a:	0008681b          	0x8681b
    278e:	0000                	unimp
    2790:	00036b17          	auipc	s6,0x36
    2794:	0400                	addi	s0,sp,512
    2796:	02a2                	slli	t0,t0,0x8
    2798:	7818                	ld	a4,48(s0)
    279a:	0008                	0x8
    279c:	f000                	sd	s0,32(s0)
    279e:	0800                	addi	s0,sp,16
    27a0:	02fe                	slli	t0,t0,0x1f
    27a2:	0000                	unimp
    27a4:	0878                	addi	a4,sp,28
    27a6:	0000                	unimp
    27a8:	3409                	addiw	s0,s0,-30
    27aa:	0000                	unimp
    27ac:	1d00                	addi	s0,sp,688
    27ae:	0800                	addi	s0,sp,16
    27b0:	005d                	c.nop	23
    27b2:	0000                	unimp
    27b4:	0888                	addi	a0,sp,80
    27b6:	0000                	unimp
    27b8:	3409                	addiw	s0,s0,-30
    27ba:	0000                	unimp
    27bc:	1d00                	addi	s0,sp,688
    27be:	1c00                	addi	s0,sp,560
    27c0:	0168                	addi	a0,sp,140
    27c2:	8304                	0x8304
    27c4:	0302                	c.slli64	t1
    27c6:	08ae                	slli	a7,a7,0xb
    27c8:	0000                	unimp
    27ca:	f01d                	bnez	s0,26f0 <_start-0xd9c0>
    27cc:	0004                	0x4
    27ce:	0400                	addi	s0,sp,512
    27d0:	029a                	slli	t0,t0,0x6
    27d2:	0006f40b          	0x6f40b
    27d6:	1d00                	addi	s0,sp,688
    27d8:	05ca                	slli	a1,a1,0x12
    27da:	0000                	unimp
    27dc:	a304                	fsd	fs1,0(a4)
    27de:	0b02                	c.slli64	s6
    27e0:	0840                	addi	s0,sp,20
    27e2:	0000                	unimp
    27e4:	0800                	addi	s0,sp,16
    27e6:	000005bf 000008be 	0x8be000005bf
    27ee:	3409                	addiw	s0,s0,-30
    27f0:	0000                	unimp
    27f2:	1800                	addi	s0,sp,48
    27f4:	1e00                	addi	s0,sp,816
    27f6:	0156                	slli	sp,sp,0x15
    27f8:	0000                	unimp
    27fa:	08be080f          	0x8be080f
    27fe:	0000                	unimp
    2800:	d41f 0008 1400      	0x14000008d41f
    2806:	0465                	addi	s0,s0,25
    2808:	0000                	unimp
    280a:	0f00                	addi	s0,sp,912
    280c:	c908                	sw	a0,16(a0)
    280e:	0008                	0x8
    2810:	0f00                	addi	s0,sp,912
    2812:	8608                	0x8608
    2814:	0001                	nop
    2816:	1f00                	addi	s0,sp,944
    2818:	000008eb          	0x8eb
    281c:	3b14                	fld	fa3,48(a4)
    281e:	0000                	unimp
    2820:	0000                	unimp
    2822:	08f1080f          	0x8f1080f
    2826:	0000                	unimp
    2828:	08e0080f          	0x8e0080f
    282c:	0000                	unimp
    282e:	5908                	lw	a0,48(a0)
    2830:	0006                	c.slli	zero,0x1
    2832:	0700                	addi	s0,sp,896
    2834:	0009                	c.nop	2
    2836:	0900                	addi	s0,sp,144
    2838:	0034                	addi	a3,sp,8
    283a:	0000                	unimp
    283c:	0002                	c.slli64	zero
    283e:	7920                	ld	s0,112(a0)
    2840:	0005                	c.nop	1
    2842:	0400                	addi	s0,sp,512
    2844:	65170333          	0x65170333
    2848:	0004                	0x4
    284a:	2000                	fld	fs0,0(s0)
    284c:	0572                	slli	a0,a0,0x1c
    284e:	0000                	unimp
    2850:	3404                	fld	fs1,40(s0)
    2852:	046b1d03          	lh	s10,70(s6) # 387d6 <__global_pointer$+0x26b56>
    2856:	0000                	unimp
    2858:	fa21                	bnez	a2,27a8 <_start-0xd908>
    285a:	06000003          	lb	zero,96(zero) # 60 <_start-0x10050>
    285e:	05b90e67          	jalr	t3,91(s2) # 464f1 <__global_pointer$+0x34871>
    2862:	0000                	unimp
    2864:	0b22                	slli	s6,s6,0x8
    2866:	0006                	c.slli	zero,0x1
    2868:	0700                	addi	s0,sp,896
    286a:	5d04                	lw	s1,56(a0)
    286c:	0000                	unimp
    286e:	0700                	addi	s0,sp,896
    2870:	0605                	addi	a2,a2,1
    2872:	0952                	slli	s2,s2,0x14
    2874:	0000                	unimp
    2876:	00054c23          	0x54c23
    287a:	0000                	unimp
    287c:	00053723          	sd	zero,14(a0) # 4e442 <__global_pointer$+0x3c7c2>
    2880:	0100                	addi	s0,sp,128
    2882:	00041623          	sh	zero,12(s0) # 5460a <__global_pointer$+0x4298a>
    2886:	0200                	addi	s0,sp,256
    2888:	2100                	fld	fs0,0(a0)
    288a:	000009d3          	fadd.s	fs3,ft0,ft0,rne
    288e:	3501                	addiw	a0,a0,-32
    2890:	141a                	slli	s0,s0,0x26
    2892:	0001                	nop
    2894:	2400                	fld	fs0,8(s0)
    2896:	0000024b          	fnmsub.s	ft4,ft0,ft0,ft0,rne
    289a:	4401                	li	s0,0
    289c:	3b01                	addiw	s6,s6,-32
    289e:	0000                	unimp
    28a0:	0200                	addi	s0,sp,256
    28a2:	00000103          	lb	sp,0(zero) # 0 <_start-0x100b0>
    28a6:	0000                	unimp
    28a8:	7600                	ld	s0,40(a2)
    28aa:	0000                	unimp
    28ac:	0000                	unimp
    28ae:	0000                	unimp
    28b0:	0100                	addi	s0,sp,128
    28b2:	da9c                	sw	a5,48(a3)
    28b4:	0009                	c.nop	2
    28b6:	2500                	fld	fs0,8(a0)
    28b8:	0000098b          	0x98b
    28bc:	4401                	li	s0,0
    28be:	3b1a                	fld	fs6,416(sp)
    28c0:	0000                	unimp
    28c2:	d700                	sw	s0,40(a4)
    28c4:	0001                	nop
    28c6:	2600                	fld	fs0,8(a2)
    28c8:	6e66                	ld	t3,88(sp)
    28ca:	0100                	addi	s0,sp,128
    28cc:	0945                	addi	s2,s2,17
    28ce:	000002cf          	fnmadd.s	ft5,ft0,ft0,ft0,rne
    28d2:	5b01                	li	s6,-32
    28d4:	67726127          	0x67726127
    28d8:	0100                	addi	s0,sp,128
    28da:	0846                	slli	a6,a6,0x11
    28dc:	0106                	slli	sp,sp,0x1
    28de:	0000                	unimp
    28e0:	0262                	slli	tp,tp,0x18
    28e2:	0000                	unimp
    28e4:	01006427          	0x1006427
    28e8:	01060847          	fmsub.s	fa6,fa2,fa6,ft0,rne
    28ec:	0000                	unimp
    28ee:	02ec                	addi	a1,sp,332
    28f0:	0000                	unimp
    28f2:	1728                	addi	a0,sp,936
    28f4:	0002                	c.slli64	zero
    28f6:	0100                	addi	s0,sp,128
    28f8:	1a49                	addi	s4,s4,-14
    28fa:	09da                	slli	s3,s3,0x16
    28fc:	0000                	unimp
    28fe:	0000038b          	0x38b
    2902:	7029                	c.lui	zero,0xfffea
    2904:	0100                	addi	s0,sp,128
    2906:	1c4a                	slli	s8,s8,0x32
    2908:	02b9                	addi	t0,t0,14
    290a:	0000                	unimp
    290c:	000003c7          	fmsub.s	ft7,ft0,ft0,ft0,rne
    2910:	0f00                	addi	s0,sp,912
    2912:	1f08                	addi	a0,sp,944
    2914:	0002                	c.slli64	zero
    2916:	0000                	unimp
    2918:	00000a07          	0xa07
    291c:	0004                	0x4
    291e:	09f9                	addi	s3,s3,30
    2920:	0000                	unimp
    2922:	0108                	addi	a0,sp,128
    2924:	0000019b          	sext.w	gp,zero
    2928:	fa0c                	sd	a1,48(a2)
    292a:	0009                	c.nop	2
    292c:	8700                	0x8700
    292e:	78000003          	lb	zero,1920(zero) # 780 <_start-0xf930>
    2932:	00000103          	lb	sp,0(zero) # 0 <_start-0x100b0>
    2936:	0000                	unimp
    2938:	c200                	sw	s0,0(a2)
    293a:	0000                	unimp
    293c:	0000                	unimp
    293e:	0000                	unimp
    2940:	6200                	ld	s0,0(a2)
    2942:	000d                	c.nop	3
    2944:	0200                	addi	s0,sp,256
    2946:	0708                	addi	a0,sp,896
    2948:	0000013b          	addw	sp,zero,zero
    294c:	69050403          	lb	s0,1680(a0)
    2950:	746e                	ld	s0,248(sp)
    2952:	0200                	addi	s0,sp,256
    2954:	0508                	addi	a0,sp,640
    2956:	018c                	addi	a1,sp,192
    2958:	0000                	unimp
    295a:	0802                	c.slli64	a6
    295c:	8705                	srai	a4,a4,0x1
    295e:	0001                	nop
    2960:	0200                	addi	s0,sp,256
    2962:	0410                	addi	a2,sp,512
    2964:	0374                	addi	a3,sp,396
    2966:	0000                	unimp
    2968:	4504                	lw	s1,8(a0)
    296a:	02000003          	lb	zero,32(zero) # 20 <_start-0x10090>
    296e:	015e                	slli	sp,sp,0x17
    2970:	00005d17          	auipc	s10,0x5
    2974:	0200                	addi	s0,sp,256
    2976:	0704                	addi	s1,sp,896
    2978:	0140                	addi	s0,sp,132
    297a:	0000                	unimp
    297c:	0102                	c.slli64	sp
    297e:	3d06                	fld	fs10,96(sp)
    2980:	0004                	0x4
    2982:	0200                	addi	s0,sp,256
    2984:	0801                	addi	a6,a6,0
    2986:	0000043b          	addw	s0,zero,zero
    298a:	0202                	c.slli64	tp
    298c:	5705                	li	a4,-31
    298e:	0004                	0x4
    2990:	0200                	addi	s0,sp,256
    2992:	0702                	c.slli64	a4
    2994:	0302                	c.slli64	t1
    2996:	0000                	unimp
    2998:	0f05                	addi	t5,t5,1
    299a:	0004                	0x4
    299c:	0300                	addi	s0,sp,384
    299e:	0e2e                	slli	t3,t3,0xb
    29a0:	0000003b          	addw	zero,zero,zero
    29a4:	1305                	addi	t1,t1,-31
    29a6:	0005                	c.nop	1
    29a8:	0300                	addi	s0,sp,384
    29aa:	0e74                	addi	a3,sp,796
    29ac:	0000003b          	addw	zero,zero,zero
    29b0:	a705                	j	30d0 <_start-0xcfe0>
    29b2:	0005                	c.nop	1
    29b4:	0300                	addi	s0,sp,384
    29b6:	003b1793          	slli	a5,s6,0x3
    29ba:	0000                	unimp
    29bc:	0406                	slli	s0,s0,0x1
    29be:	c603a503          	lw	a0,-928(t2)
    29c2:	0000                	unimp
    29c4:	0700                	addi	s0,sp,896
    29c6:	0000033f 500ca703 	0x500ca7030000033f
    29ce:	0000                	unimp
    29d0:	0700                	addi	s0,sp,896
    29d2:	02de                	slli	t0,t0,0x17
    29d4:	0000                	unimp
    29d6:	c613a803          	lw	a6,-927(t2)
    29da:	0000                	unimp
    29dc:	0000                	unimp
    29de:	6b08                	ld	a0,16(a4)
    29e0:	0000                	unimp
    29e2:	d600                	sw	s0,40(a2)
    29e4:	0000                	unimp
    29e6:	0900                	addi	s0,sp,144
    29e8:	002d                	c.nop	11
    29ea:	0000                	unimp
    29ec:	080a0003          	lb	zero,128(s4) # 2c460 <__global_pointer$+0x1a7e0>
    29f0:	fa09a203          	lw	tp,-96(s3)
    29f4:	0000                	unimp
    29f6:	0b00                	addi	s0,sp,400
    29f8:	04fd                	addi	s1,s1,31
    29fa:	0000                	unimp
    29fc:	3407a403          	lw	s0,832(a5)
    2a00:	0000                	unimp
    2a02:	0000                	unimp
    2a04:	0005050b          	0x5050b
    2a08:	0300                	addi	s0,sp,384
    2a0a:	05a9                	addi	a1,a1,10
    2a0c:	00a4                	addi	s1,sp,72
    2a0e:	0000                	unimp
    2a10:	0004                	0x4
    2a12:	7f05                	lui	t5,0xfffe1
    2a14:	0004                	0x4
    2a16:	0300                	addi	s0,sp,384
    2a18:	03aa                	slli	t2,t2,0xa
    2a1a:	00d6                	slli	ra,ra,0x15
    2a1c:	0000                	unimp
    2a1e:	080c                	addi	a1,sp,16
    2a20:	5d05                	li	s10,-31
    2a22:	0005                	c.nop	1
    2a24:	0400                	addi	s0,sp,512
    2a26:	1919                	addi	s2,s2,-26
    2a28:	005d                	c.nop	23
    2a2a:	0000                	unimp
    2a2c:	2905                	addiw	s2,s2,1
    2a2e:	0004                	0x4
    2a30:	0500                	addi	s0,sp,640
    2a32:	0d0c                	addi	a1,sp,656
    2a34:	0034                	addi	a3,sp,8
    2a36:	0000                	unimp
    2a38:	a105                	j	2e58 <_start-0xd258>
    2a3a:	0002                	c.slli64	zero
    2a3c:	0400                	addi	s0,sp,512
    2a3e:	01141b23          	sh	a7,22(s0)
    2a42:	0000                	unimp
    2a44:	b20d                	j	2366 <_start-0xdd4a>
    2a46:	0002                	c.slli64	zero
    2a48:	2000                	fld	fs0,0(s0)
    2a4a:	3404                	fld	fs1,40(s0)
    2a4c:	8608                	0x8608
    2a4e:	0001                	nop
    2a50:	0b00                	addi	s0,sp,400
    2a52:	04a0                	addi	s0,sp,584
    2a54:	0000                	unimp
    2a56:	3604                	fld	fs1,40(a2)
    2a58:	00018613          	mv	a2,gp
    2a5c:	0000                	unimp
    2a5e:	5f0e                	lw	t5,224(sp)
    2a60:	3704006b          	0x3704006b
    2a64:	00003407          	fld	fs0,0(zero) # 0 <_start-0x100b0>
    2a68:	0800                	addi	s0,sp,16
    2a6a:	0004e80b          	0x4e80b
    2a6e:	0400                	addi	s0,sp,512
    2a70:	00340b37          	lui	s6,0x340
    2a74:	0000                	unimp
    2a76:	0b0c                	addi	a1,sp,400
    2a78:	0000029b          	sext.w	t0,zero
    2a7c:	3704                	fld	fs1,40(a4)
    2a7e:	3414                	fld	fa3,40(s0)
    2a80:	0000                	unimp
    2a82:	1000                	addi	s0,sp,32
    2a84:	0005920b          	0x5920b
    2a88:	0400                	addi	s0,sp,512
    2a8a:	00341b37          	lui	s6,0x341
    2a8e:	0000                	unimp
    2a90:	0e14                	addi	a3,sp,784
    2a92:	785f 0400 0b38      	0xb380400785f
    2a98:	018c                	addi	a1,sp,192
    2a9a:	0000                	unimp
    2a9c:	0018                	0x18
    2a9e:	012c080f          	0x12c080f
    2aa2:	0000                	unimp
    2aa4:	0808                	addi	a0,sp,16
    2aa6:	0001                	nop
    2aa8:	9c00                	0x9c00
    2aaa:	0001                	nop
    2aac:	0900                	addi	s0,sp,144
    2aae:	002d                	c.nop	11
    2ab0:	0000                	unimp
    2ab2:	0000                	unimp
    2ab4:	d90d                	beqz	a0,29e6 <_start-0xd6ca>
    2ab6:	0002                	c.slli64	zero
    2ab8:	2400                	fld	fs0,8(s0)
    2aba:	3c04                	fld	fs1,56(s0)
    2abc:	1f08                	addi	a0,sp,944
    2abe:	0002                	c.slli64	zero
    2ac0:	0b00                	addi	s0,sp,400
    2ac2:	017e                	slli	sp,sp,0x1f
    2ac4:	0000                	unimp
    2ac6:	3e04                	fld	fs1,56(a2)
    2ac8:	3409                	addiw	s0,s0,-30
    2aca:	0000                	unimp
    2acc:	0000                	unimp
    2ace:	00051b0b          	0x51b0b
    2ad2:	0400                	addi	s0,sp,512
    2ad4:	0034093f 0b040000 	0xb0400000034093f
    2adc:	01ff                	0x1ff
    2ade:	0000                	unimp
    2ae0:	4004                	lw	s1,0(s0)
    2ae2:	3409                	addiw	s0,s0,-30
    2ae4:	0000                	unimp
    2ae6:	0800                	addi	s0,sp,16
    2ae8:	00061a0b          	0x61a0b
    2aec:	0400                	addi	s0,sp,512
    2aee:	0941                	addi	s2,s2,16
    2af0:	0034                	addi	a3,sp,8
    2af2:	0000                	unimp
    2af4:	0b0c                	addi	a1,sp,400
    2af6:	03f1                	addi	t2,t2,28
    2af8:	0000                	unimp
    2afa:	4204                	lw	s1,0(a2)
    2afc:	3409                	addiw	s0,s0,-30
    2afe:	0000                	unimp
    2b00:	1000                	addi	s0,sp,32
    2b02:	0003610b          	0x3610b
    2b06:	0400                	addi	s0,sp,512
    2b08:	00340943          	fmadd.s	fs2,fs0,ft3,ft0,rne
    2b0c:	0000                	unimp
    2b0e:	0b14                	addi	a3,sp,400
    2b10:	00000597          	auipc	a1,0x0
    2b14:	4404                	lw	s1,8(s0)
    2b16:	3409                	addiw	s0,s0,-30
    2b18:	0000                	unimp
    2b1a:	1800                	addi	s0,sp,48
    2b1c:	0004610b          	0x4610b
    2b20:	0400                	addi	s0,sp,512
    2b22:	0945                	addi	s2,s2,17
    2b24:	0034                	addi	a3,sp,8
    2b26:	0000                	unimp
    2b28:	0b1c                	addi	a5,sp,400
    2b2a:	05d2                	slli	a1,a1,0x14
    2b2c:	0000                	unimp
    2b2e:	4604                	lw	s1,8(a2)
    2b30:	3409                	addiw	s0,s0,-30
    2b32:	0000                	unimp
    2b34:	2000                	fld	fs0,0(s0)
    2b36:	1000                	addi	s0,sp,32
    2b38:	020e                	slli	tp,tp,0x3
    2b3a:	0000                	unimp
    2b3c:	0208                	addi	a0,sp,256
    2b3e:	4f04                	lw	s1,24(a4)
    2b40:	6508                	ld	a0,8(a0)
    2b42:	0002                	c.slli64	zero
    2b44:	0b00                	addi	s0,sp,400
    2b46:	028e                	slli	t0,t0,0x3
    2b48:	0000                	unimp
    2b4a:	5004                	lw	s1,32(s0)
    2b4c:	650a                	ld	a0,128(sp)
    2b4e:	0002                	c.slli64	zero
    2b50:	0000                	unimp
    2b52:	b011                	j	2356 <_start-0xdd5a>
    2b54:	0000                	unimp
    2b56:	0400                	addi	s0,sp,512
    2b58:	0951                	addi	s2,s2,20
    2b5a:	0265                	addi	tp,tp,25
    2b5c:	0000                	unimp
    2b5e:	0100                	addi	s0,sp,128
    2b60:	4311                	li	t1,4
    2b62:	0005                	c.nop	1
    2b64:	0400                	addi	s0,sp,512
    2b66:	01080a53          	fadd.s	fs4,fa6,fa6,rne
    2b6a:	0000                	unimp
    2b6c:	0200                	addi	s0,sp,256
    2b6e:	3311                	addiw	t1,t1,-28
    2b70:	0002                	c.slli64	zero
    2b72:	0400                	addi	s0,sp,512
    2b74:	0a56                	slli	s4,s4,0x15
    2b76:	0108                	addi	a0,sp,128
    2b78:	0000                	unimp
    2b7a:	0204                	addi	s1,sp,256
    2b7c:	0800                	addi	s0,sp,16
    2b7e:	0106                	slli	sp,sp,0x1
    2b80:	0000                	unimp
    2b82:	0275                	addi	tp,tp,29
    2b84:	0000                	unimp
    2b86:	2d09                	addiw	s10,s10,2
    2b88:	0000                	unimp
    2b8a:	1f00                	addi	s0,sp,944
    2b8c:	1000                	addi	s0,sp,32
    2b8e:	0550                	addi	a2,sp,644
    2b90:	0000                	unimp
    2b92:	0318                	addi	a4,sp,384
    2b94:	6204                	ld	s1,0(a2)
    2b96:	b908                	fsd	fa0,48(a0)
    2b98:	0002                	c.slli64	zero
    2b9a:	0b00                	addi	s0,sp,400
    2b9c:	04a0                	addi	s0,sp,584
    2b9e:	0000                	unimp
    2ba0:	6304                	ld	s1,0(a4)
    2ba2:	b912                	fsd	ft4,176(sp)
    2ba4:	0002                	c.slli64	zero
    2ba6:	0000                	unimp
    2ba8:	0004b80b          	0x4b80b
    2bac:	0400                	addi	s0,sp,512
    2bae:	0664                	addi	s1,sp,780
    2bb0:	0034                	addi	a3,sp,8
    2bb2:	0000                	unimp
    2bb4:	0b08                	addi	a0,sp,400
    2bb6:	0296                	slli	t0,t0,0x5
    2bb8:	0000                	unimp
    2bba:	6604                	ld	s1,8(a2)
    2bbc:	bf09                	j	2ace <_start-0xd5e2>
    2bbe:	0002                	c.slli64	zero
    2bc0:	1000                	addi	s0,sp,32
    2bc2:	0e11                	addi	t3,t3,4
    2bc4:	0002                	c.slli64	zero
    2bc6:	0400                	addi	s0,sp,512
    2bc8:	021f1e67          	0x21f1e67
    2bcc:	0000                	unimp
    2bce:	0110                	addi	a2,sp,128
    2bd0:	0f00                	addi	s0,sp,912
    2bd2:	7508                	ld	a0,40(a0)
    2bd4:	0002                	c.slli64	zero
    2bd6:	0800                	addi	s0,sp,16
    2bd8:	000002cf          	fnmadd.s	ft5,ft0,ft0,ft0,rne
    2bdc:	000002cf          	fnmadd.s	ft5,ft0,ft0,ft0,rne
    2be0:	2d09                	addiw	s10,s10,2
    2be2:	0000                	unimp
    2be4:	1f00                	addi	s0,sp,944
    2be6:	0f00                	addi	s0,sp,912
    2be8:	d508                	sw	a0,40(a0)
    2bea:	0002                	c.slli64	zero
    2bec:	1200                	addi	s0,sp,288
    2bee:	6b0d                	lui	s6,0x3
    2bf0:	0004                	0x4
    2bf2:	1000                	addi	s0,sp,32
    2bf4:	7a04                	ld	s1,48(a2)
    2bf6:	fe08                	sd	a0,56(a2)
    2bf8:	0002                	c.slli64	zero
    2bfa:	0b00                	addi	s0,sp,400
    2bfc:	01f9                	addi	gp,gp,30
    2bfe:	0000                	unimp
    2c00:	7b04                	ld	s1,48(a4)
    2c02:	fe11                	bnez	a2,2b1e <_start-0xd592>
    2c04:	0002                	c.slli64	zero
    2c06:	0000                	unimp
    2c08:	0000bc0b          	0xbc0b
    2c0c:	0400                	addi	s0,sp,512
    2c0e:	067c                	addi	a5,sp,780
    2c10:	0034                	addi	a3,sp,8
    2c12:	0000                	unimp
    2c14:	0008                	0x8
    2c16:	006b080f          	0x6b080f
    2c1a:	0000                	unimp
    2c1c:	8a0d                	andi	a2,a2,3
    2c1e:	0004                	0x4
    2c20:	b000                	fsd	fs0,32(s0)
    2c22:	ba04                	fsd	fs1,48(a2)
    2c24:	4708                	lw	a0,8(a4)
    2c26:	0004                	0x4
    2c28:	0e00                	addi	s0,sp,784
    2c2a:	705f 0400 12bb      	0x12bb0400705f
    2c30:	02fe                	slli	t0,t0,0x1f
    2c32:	0000                	unimp
    2c34:	0e00                	addi	s0,sp,784
    2c36:	725f 0400 07bc      	0x7bc0400725f
    2c3c:	0034                	addi	a3,sp,8
    2c3e:	0000                	unimp
    2c40:	0e08                	addi	a0,sp,784
    2c42:	775f 0400 07bd      	0x7bd0400775f
    2c48:	0034                	addi	a3,sp,8
    2c4a:	0000                	unimp
    2c4c:	0b0c                	addi	a1,sp,400
    2c4e:	022c                	addi	a1,sp,264
    2c50:	0000                	unimp
    2c52:	be04                	fsd	fs1,56(a2)
    2c54:	7209                	lui	tp,0xfffe2
    2c56:	0000                	unimp
    2c58:	1000                	addi	s0,sp,32
    2c5a:	0002f50b          	0x2f50b
    2c5e:	0400                	addi	s0,sp,512
    2c60:	007209bf 0e120000 	0xe120000007209bf
    2c68:	625f 0066 c004      	0xc0040066625f
    2c6e:	d611                	beqz	a2,2b7a <_start-0xd536>
    2c70:	0002                	c.slli64	zero
    2c72:	1800                	addi	s0,sp,48
    2c74:	00014d0b          	0x14d0b
    2c78:	0400                	addi	s0,sp,512
    2c7a:	07c1                	addi	a5,a5,16
    2c7c:	0034                	addi	a3,sp,8
    2c7e:	0000                	unimp
    2c80:	0b28                	addi	a0,sp,408
    2c82:	021c                	addi	a5,sp,256
    2c84:	0000                	unimp
    2c86:	c804                	sw	s1,16(s0)
    2c88:	060a                	slli	a2,a2,0x2
    2c8a:	0001                	nop
    2c8c:	3000                	fld	fs0,32(s0)
    2c8e:	0002c90b          	0x2c90b
    2c92:	0400                	addi	s0,sp,512
    2c94:	1dca                	slli	s11,s11,0x32
    2c96:	000005cb          	fnmsub.s	fa1,ft0,ft0,ft0,rne
    2c9a:	0b38                	addi	a4,sp,408
    2c9c:	035a                	slli	t1,t1,0x16
    2c9e:	0000                	unimp
    2ca0:	cc04                	sw	s1,24(s0)
    2ca2:	f51d                	bnez	a0,2bd0 <_start-0xd4e0>
    2ca4:	0005                	c.nop	1
    2ca6:	4000                	lw	s0,0(s0)
    2ca8:	00050d0b          	0x50d0b
    2cac:	0400                	addi	s0,sp,512
    2cae:	06190dcf          	fnmadd.q	fs11,fs2,ft1,ft0,rne
    2cb2:	0000                	unimp
    2cb4:	0b48                	addi	a0,sp,404
    2cb6:	05ec                	addi	a1,sp,716
    2cb8:	0000                	unimp
    2cba:	d004                	sw	s1,32(s0)
    2cbc:	3309                	addiw	t1,t1,-30
    2cbe:	0006                	c.slli	zero,0x1
    2cc0:	5000                	lw	s0,32(s0)
    2cc2:	5f0e                	lw	t5,224(sp)
    2cc4:	6275                	lui	tp,0x1d
    2cc6:	0400                	addi	s0,sp,512
    2cc8:	02d611d3          	fadd.d	ft3,fa2,fa3,rtz
    2ccc:	0000                	unimp
    2cce:	0e58                	addi	a4,sp,788
    2cd0:	755f 0070 d404      	0xd4040070755f
    2cd6:	fe12                	sd	tp,312(sp)
    2cd8:	0002                	c.slli64	zero
    2cda:	6800                	ld	s0,16(s0)
    2cdc:	5f0e                	lw	t5,224(sp)
    2cde:	7275                	lui	tp,0xffffd
    2ce0:	0400                	addi	s0,sp,512
    2ce2:	07d5                	addi	a5,a5,21
    2ce4:	0034                	addi	a3,sp,8
    2ce6:	0000                	unimp
    2ce8:	0b70                	addi	a2,sp,412
    2cea:	0195                	addi	gp,gp,5
    2cec:	0000                	unimp
    2cee:	d804                	sw	s1,48(s0)
    2cf0:	3911                	addiw	s2,s2,-28
    2cf2:	0006                	c.slli	zero,0x1
    2cf4:	7400                	ld	s0,40(s0)
    2cf6:	0005c40b          	0x5c40b
    2cfa:	0400                	addi	s0,sp,512
    2cfc:	11d9                	addi	gp,gp,-10
    2cfe:	0649                	addi	a2,a2,18
    2d00:	0000                	unimp
    2d02:	6c5f0e77          	0x6c5f0e77
    2d06:	0062                	c.slli	zero,0x18
    2d08:	dc04                	sw	s1,56(s0)
    2d0a:	d611                	beqz	a2,2c16 <_start-0xd49a>
    2d0c:	0002                	c.slli64	zero
    2d0e:	7800                	ld	s0,48(s0)
    2d10:	0002420b          	0x2420b
    2d14:	0400                	addi	s0,sp,512
    2d16:	07df 0034 0000      	0x3407df
    2d1c:	0b88                	addi	a0,sp,464
    2d1e:	00000267          	jalr	tp,zero # 0 <_start-0x100b0>
    2d22:	e004                	sd	s1,0(s0)
    2d24:	800a                	c.mv	zero,sp
    2d26:	0000                	unimp
    2d28:	9000                	0x9000
    2d2a:	0007c60b          	0x7c60b
    2d2e:	0400                	addi	s0,sp,512
    2d30:	046512e3          	bne	a0,t1,3574 <_start-0xcb3c>
    2d34:	0000                	unimp
    2d36:	0b98                	addi	a4,sp,464
    2d38:	034c                	addi	a1,sp,388
    2d3a:	0000                	unimp
    2d3c:	e704                	sd	s1,8(a4)
    2d3e:	200c                	fld	fa1,0(s0)
    2d40:	0001                	nop
    2d42:	a000                	fsd	fs0,0(s0)
    2d44:	0004920b          	0x4920b
    2d48:	0400                	addi	s0,sp,512
    2d4a:	0ee9                	addi	t4,t4,26
    2d4c:	00fa                	slli	ra,ra,0x1e
    2d4e:	0000                	unimp
    2d50:	0ba4                	addi	s1,sp,472
    2d52:	0352                	slli	t1,t1,0x14
    2d54:	0000                	unimp
    2d56:	ea04                	sd	s1,16(a2)
    2d58:	3409                	addiw	s0,s0,-30
    2d5a:	0000                	unimp
    2d5c:	ac00                	fsd	fs0,24(s0)
    2d5e:	1300                	addi	s0,sp,416
    2d60:	0098                	addi	a4,sp,64
    2d62:	0000                	unimp
    2d64:	0465                	addi	s0,s0,25
    2d66:	0000                	unimp
    2d68:	6514                	ld	a3,8(a0)
    2d6a:	0004                	0x4
    2d6c:	1400                	addi	s0,sp,544
    2d6e:	0106                	slli	sp,sp,0x1
    2d70:	0000                	unimp
    2d72:	b914                	fsd	fa3,48(a0)
    2d74:	0005                	c.nop	1
    2d76:	1400                	addi	s0,sp,544
    2d78:	0034                	addi	a3,sp,8
    2d7a:	0000                	unimp
    2d7c:	0f00                	addi	s0,sp,912
    2d7e:	7008                	ld	a0,32(s0)
    2d80:	0004                	0x4
    2d82:	1500                	addi	s0,sp,672
    2d84:	0465                	addi	s0,s0,25
    2d86:	0000                	unimp
    2d88:	f016                	sd	t0,32(sp)
    2d8a:	0004                	0x4
    2d8c:	4800                	lw	s0,16(s0)
    2d8e:	02650407          	0x2650407
    2d92:	b908                	fsd	fa0,48(a0)
    2d94:	0005                	c.nop	1
    2d96:	1700                	addi	s0,sp,928
    2d98:	0a61                	addi	s4,s4,24
    2d9a:	0000                	unimp
    2d9c:	6704                	ld	s1,8(a4)
    2d9e:	0702                	c.slli64	a4
    2da0:	0034                	addi	a3,sp,8
    2da2:	0000                	unimp
    2da4:	1700                	addi	s0,sp,928
    2da6:	0000023b          	addw	tp,zero,zero
    2daa:	6c04                	ld	s1,24(s0)
    2dac:	0b02                	c.slli64	s6
    2dae:	06a5                	addi	a3,a3,9
    2db0:	0000                	unimp
    2db2:	1708                	addi	a0,sp,928
    2db4:	02e5                	addi	t0,t0,25
    2db6:	0000                	unimp
    2db8:	6c04                	ld	s1,24(s0)
    2dba:	1402                	slli	s0,s0,0x20
    2dbc:	06a5                	addi	a3,a3,9
    2dbe:	0000                	unimp
    2dc0:	1710                	addi	a2,sp,928
    2dc2:	02aa                	slli	t0,t0,0xa
    2dc4:	0000                	unimp
    2dc6:	6c04                	ld	s1,24(s0)
    2dc8:	1e02                	slli	t3,t3,0x20
    2dca:	06a5                	addi	a3,a3,9
    2dcc:	0000                	unimp
    2dce:	1718                	addi	a4,sp,928
    2dd0:	000004b3          	add	s1,zero,zero
    2dd4:	6e04                	ld	s1,24(a2)
    2dd6:	0802                	c.slli64	a6
    2dd8:	0034                	addi	a3,sp,8
    2dda:	0000                	unimp
    2ddc:	1720                	addi	s0,sp,936
    2dde:	0000010b          	0x10b
    2de2:	6f04                	ld	s1,24(a4)
    2de4:	0802                	c.slli64	a6
    2de6:	08ae                	slli	a7,a7,0xb
    2de8:	0000                	unimp
    2dea:	1724                	addi	s1,sp,936
    2dec:	000004cf          	fnmadd.s	fs1,ft0,ft0,ft0,rne
    2df0:	7204                	ld	s1,32(a2)
    2df2:	0702                	c.slli64	a4
    2df4:	0034                	addi	a3,sp,8
    2df6:	0000                	unimp
    2df8:	1740                	addi	s0,sp,932
    2dfa:	04bd                	addi	s1,s1,15
    2dfc:	0000                	unimp
    2dfe:	7304                	ld	s1,32(a4)
    2e00:	1602                	slli	a2,a2,0x20
    2e02:	000008c3          	fmadd.s	fa7,ft0,ft0,ft0,rne
    2e06:	1748                	addi	a0,sp,932
    2e08:	0404                	addi	s1,sp,512
    2e0a:	0000                	unimp
    2e0c:	7504                	ld	s1,40(a0)
    2e0e:	0702                	c.slli64	a4
    2e10:	0034                	addi	a3,sp,8
    2e12:	0000                	unimp
    2e14:	1750                	addi	a2,sp,932
    2e16:	04c5                	addi	s1,s1,17
    2e18:	0000                	unimp
    2e1a:	7704                	ld	s1,40(a4)
    2e1c:	0a02                	c.slli64	s4
    2e1e:	08d4                	addi	a3,sp,84
    2e20:	0000                	unimp
    2e22:	1758                	addi	a4,sp,932
    2e24:	00000337          	lui	t1,0x0
    2e28:	7a04                	ld	s1,48(a2)
    2e2a:	1302                	slli	t1,t1,0x20
    2e2c:	0186                	slli	gp,gp,0x1
    2e2e:	0000                	unimp
    2e30:	1760                	addi	s0,sp,940
    2e32:	000002cf          	fnmadd.s	ft5,ft0,ft0,ft0,rne
    2e36:	7b04                	ld	s1,48(a4)
    2e38:	0702                	c.slli64	a4
    2e3a:	0034                	addi	a3,sp,8
    2e3c:	0000                	unimp
    2e3e:	1768                	addi	a0,sp,940
    2e40:	0606                	slli	a2,a2,0x1
    2e42:	0000                	unimp
    2e44:	7c04                	ld	s1,56(s0)
    2e46:	1302                	slli	t1,t1,0x20
    2e48:	0186                	slli	gp,gp,0x1
    2e4a:	0000                	unimp
    2e4c:	1770                	addi	a2,sp,940
    2e4e:	041f 0000 7d04      	0x7d040000041f
    2e54:	1402                	slli	s0,s0,0x20
    2e56:	08da                	slli	a7,a7,0x16
    2e58:	0000                	unimp
    2e5a:	1778                	addi	a4,sp,940
    2e5c:	02ed                	addi	t0,t0,27
    2e5e:	0000                	unimp
    2e60:	8004                	0x8004
    2e62:	0702                	c.slli64	a4
    2e64:	0034                	addi	a3,sp,8
    2e66:	0000                	unimp
    2e68:	1780                	addi	s0,sp,992
    2e6a:	025f 0000 8104      	0x81040000025f
    2e70:	0902                	c.slli64	s2
    2e72:	05b9                	addi	a1,a1,14
    2e74:	0000                	unimp
    2e76:	1788                	addi	a0,sp,992
    2e78:	0449                	addi	s0,s0,18
    2e7a:	0000                	unimp
    2e7c:	a404                	fsd	fs1,8(s0)
    2e7e:	0702                	c.slli64	a4
    2e80:	0888                	addi	a0,sp,80
    2e82:	0000                	unimp
    2e84:	1890                	addi	a2,sp,112
    2e86:	0550                	addi	a2,sp,644
    2e88:	0000                	unimp
    2e8a:	a804                	fsd	fs1,16(s0)
    2e8c:	1302                	slli	t1,t1,0x20
    2e8e:	02b9                	addi	t0,t0,14
    2e90:	0000                	unimp
    2e92:	01f8                	addi	a4,sp,204
    2e94:	1518                	addi	a4,sp,672
    2e96:	04000003          	lb	zero,64(zero) # 40 <_start-0x10070>
    2e9a:	02a9                	addi	t0,t0,10
    2e9c:	7512                	ld	a0,288(sp)
    2e9e:	0002                	c.slli64	zero
    2ea0:	0000                	unimp
    2ea2:	1802                	slli	a6,a6,0x20
    2ea4:	05ba                	slli	a1,a1,0xe
    2ea6:	0000                	unimp
    2ea8:	ad04                	fsd	fs1,24(a0)
    2eaa:	0c02                	c.slli64	s8
    2eac:	000008eb          	0x8eb
    2eb0:	0518                	addi	a4,sp,640
    2eb2:	2418                	fld	fa4,8(s0)
    2eb4:	0002                	c.slli64	zero
    2eb6:	0400                	addi	s0,sp,512
    2eb8:	02b2                	slli	t0,t0,0xc
    2eba:	6610                	ld	a2,8(a2)
    2ebc:	0006                	c.slli	zero,0x1
    2ebe:	2000                	fld	fs0,0(s0)
    2ec0:	1805                	addi	a6,a6,-31
    2ec2:	0209                	addi	tp,tp,2
    2ec4:	0000                	unimp
    2ec6:	b404                	fsd	fs1,40(s0)
    2ec8:	0a02                	c.slli64	s4
    2eca:	000008f7          	0x8f7
    2ece:	0538                	addi	a4,sp,648
    2ed0:	0f00                	addi	s0,sp,912
    2ed2:	bf08                	fsd	fa0,56(a4)
    2ed4:	0005                	c.nop	1
    2ed6:	0200                	addi	s0,sp,256
    2ed8:	0801                	addi	a6,a6,0
    2eda:	0444                	addi	s1,sp,516
    2edc:	0000                	unimp
    2ede:	bf15                	j	2e12 <_start-0xd29e>
    2ee0:	0005                	c.nop	1
    2ee2:	0f00                	addi	s0,sp,912
    2ee4:	4708                	lw	a0,8(a4)
    2ee6:	0004                	0x4
    2ee8:	1300                	addi	s0,sp,416
    2eea:	0098                	addi	a4,sp,64
    2eec:	0000                	unimp
    2eee:	000005ef          	jal	a1,2eee <_start-0xd1c2>
    2ef2:	6514                	ld	a3,8(a0)
    2ef4:	0004                	0x4
    2ef6:	1400                	addi	s0,sp,544
    2ef8:	0106                	slli	sp,sp,0x1
    2efa:	0000                	unimp
    2efc:	ef14                	sd	a3,24(a4)
    2efe:	0005                	c.nop	1
    2f00:	1400                	addi	s0,sp,544
    2f02:	0034                	addi	a3,sp,8
    2f04:	0000                	unimp
    2f06:	0f00                	addi	s0,sp,912
    2f08:	c608                	sw	a0,8(a2)
    2f0a:	0005                	c.nop	1
    2f0c:	0f00                	addi	s0,sp,912
    2f0e:	d108                	sw	a0,32(a0)
    2f10:	0005                	c.nop	1
    2f12:	1300                	addi	s0,sp,416
    2f14:	008c                	addi	a1,sp,64
    2f16:	0000                	unimp
    2f18:	0619                	addi	a2,a2,6
    2f1a:	0000                	unimp
    2f1c:	6514                	ld	a3,8(a0)
    2f1e:	0004                	0x4
    2f20:	1400                	addi	s0,sp,544
    2f22:	0106                	slli	sp,sp,0x1
    2f24:	0000                	unimp
    2f26:	8c14                	0x8c14
    2f28:	0000                	unimp
    2f2a:	1400                	addi	s0,sp,544
    2f2c:	0034                	addi	a3,sp,8
    2f2e:	0000                	unimp
    2f30:	0f00                	addi	s0,sp,912
    2f32:	fb08                	sd	a0,48(a4)
    2f34:	0005                	c.nop	1
    2f36:	1300                	addi	s0,sp,416
    2f38:	0034                	addi	a3,sp,8
    2f3a:	0000                	unimp
    2f3c:	00000633          	add	a2,zero,zero
    2f40:	6514                	ld	a3,8(a0)
    2f42:	0004                	0x4
    2f44:	1400                	addi	s0,sp,544
    2f46:	0106                	slli	sp,sp,0x1
    2f48:	0000                	unimp
    2f4a:	0f00                	addi	s0,sp,912
    2f4c:	1f08                	addi	a0,sp,944
    2f4e:	0006                	c.slli	zero,0x1
    2f50:	0800                	addi	s0,sp,16
    2f52:	0000006b          	0x6b
    2f56:	0649                	addi	a2,a2,18
    2f58:	0000                	unimp
    2f5a:	2d09                	addiw	s10,s10,2
    2f5c:	0000                	unimp
    2f5e:	0200                	addi	s0,sp,256
    2f60:	0800                	addi	s0,sp,16
    2f62:	0000006b          	0x6b
    2f66:	0659                	addi	a2,a2,22
    2f68:	0000                	unimp
    2f6a:	2d09                	addiw	s10,s10,2
    2f6c:	0000                	unimp
    2f6e:	0000                	unimp
    2f70:	0400                	addi	s0,sp,512
    2f72:	0478                	addi	a4,sp,524
    2f74:	0000                	unimp
    2f76:	2404                	fld	fs1,8(s0)
    2f78:	1a01                	addi	s4,s4,-32
    2f7a:	0304                	addi	s1,sp,384
    2f7c:	0000                	unimp
    2f7e:	a119                	j	3384 <_start-0xcd2c>
    2f80:	0005                	c.nop	1
    2f82:	1800                	addi	s0,sp,48
    2f84:	2804                	fld	fs1,16(s0)
    2f86:	0801                	addi	a6,a6,0
    2f88:	069f 0000 a017      	0xa0170000069f
    2f8e:	0004                	0x4
    2f90:	0400                	addi	s0,sp,512
    2f92:	012a                	slli	sp,sp,0xa
    2f94:	9f11                	subw	a4,a4,a2
    2f96:	0006                	c.slli	zero,0x1
    2f98:	0000                	unimp
    2f9a:	0002fb17          	auipc	s6,0x2f
    2f9e:	0400                	addi	s0,sp,512
    2fa0:	3407012b          	0x3407012b
    2fa4:	0000                	unimp
    2fa6:	0800                	addi	s0,sp,16
    2fa8:	00047217          	auipc	tp,0x47
    2fac:	0400                	addi	s0,sp,512
    2fae:	012c                	addi	a1,sp,136
    2fb0:	0006a50b          	0x6a50b
    2fb4:	1000                	addi	s0,sp,32
    2fb6:	0f00                	addi	s0,sp,912
    2fb8:	6608                	ld	a0,8(a2)
    2fba:	0006                	c.slli	zero,0x1
    2fbc:	0f00                	addi	s0,sp,912
    2fbe:	5908                	lw	a0,48(a0)
    2fc0:	0006                	c.slli	zero,0x1
    2fc2:	1900                	addi	s0,sp,176
    2fc4:	00000103          	lb	sp,0(zero) # 0 <_start-0x100b0>
    2fc8:	040e                	slli	s0,s0,0x3
    2fca:	0144                	addi	s1,sp,132
    2fcc:	e408                	sd	a0,8(s0)
    2fce:	0006                	c.slli	zero,0x1
    2fd0:	1700                	addi	s0,sp,928
    2fd2:	000004f7          	0x4f7
    2fd6:	4504                	lw	s1,8(a0)
    2fd8:	1201                	addi	tp,tp,-32
    2fda:	06e4                	addi	s1,sp,844
    2fdc:	0000                	unimp
    2fde:	1700                	addi	s0,sp,928
    2fe0:	0524                	addi	s1,sp,648
    2fe2:	0000                	unimp
    2fe4:	4604                	lw	s1,8(a2)
    2fe6:	1201                	addi	tp,tp,-32
    2fe8:	06e4                	addi	s1,sp,844
    2fea:	0000                	unimp
    2fec:	1706                	slli	a4,a4,0x21
    2fee:	0558                	addi	a4,sp,644
    2ff0:	0000                	unimp
    2ff2:	4704                	lw	s1,8(a4)
    2ff4:	1201                	addi	tp,tp,-32
    2ff6:	0079                	c.nop	30
    2ff8:	0000                	unimp
    2ffa:	000c                	0xc
    2ffc:	7908                	ld	a0,48(a0)
    2ffe:	0000                	unimp
    3000:	f400                	sd	s0,40(s0)
    3002:	0006                	c.slli	zero,0x1
    3004:	0900                	addi	s0,sp,144
    3006:	002d                	c.nop	11
    3008:	0000                	unimp
    300a:	0002                	c.slli64	zero
    300c:	d81a                	sw	t1,48(sp)
    300e:	8504                	0x8504
    3010:	0702                	c.slli64	a4
    3012:	0809                	addi	a6,a6,2
    3014:	0000                	unimp
    3016:	00058517          	auipc	a0,0x58
    301a:	0400                	addi	s0,sp,512
    301c:	5d180287          	0x5d180287
    3020:	0000                	unimp
    3022:	0000                	unimp
    3024:	00052a17          	auipc	s4,0x52
    3028:	0400                	addi	s0,sp,512
    302a:	0288                	addi	a0,sp,320
    302c:	b912                	fsd	ft4,176(sp)
    302e:	0005                	c.nop	1
    3030:	0800                	addi	s0,sp,16
    3032:	00032a17          	auipc	s4,0x32
    3036:	0400                	addi	s0,sp,512
    3038:	0289                	addi	t0,t0,2
    303a:	0910                	addi	a2,sp,144
    303c:	0008                	0x8
    303e:	1000                	addi	s0,sp,32
    3040:	0005dd17          	auipc	s10,0x5d
    3044:	0400                	addi	s0,sp,512
    3046:	028a                	slli	t0,t0,0x2
    3048:	00019c17          	auipc	s8,0x19
    304c:	2c00                	fld	fs0,24(s0)
    304e:	0002ba17          	auipc	s4,0x2b
    3052:	0400                	addi	s0,sp,512
    3054:	340f028b          	0x340f028b
    3058:	0000                	unimp
    305a:	5000                	lw	s0,32(s0)
    305c:	00049b17          	auipc	s6,0x49
    3060:	0400                	addi	s0,sp,512
    3062:	028c                	addi	a1,sp,320
    3064:	192c                	addi	a1,sp,184
    3066:	0008                	0x8
    3068:	5800                	lw	s0,48(s0)
    306a:	0005f317          	auipc	t1,0x5f
    306e:	0400                	addi	s0,sp,512
    3070:	028d                	addi	t0,t0,3
    3072:	ab1a                	fsd	ft6,400(sp)
    3074:	0006                	c.slli	zero,0x1
    3076:	6000                	ld	s0,0(s0)
    3078:	0004a617          	auipc	a2,0x4a
    307c:	0400                	addi	s0,sp,512
    307e:	028e                	slli	t0,t0,0x3
    3080:	fa16                	sd	t0,304(sp)
    3082:	0000                	unimp
    3084:	7000                	ld	s0,32(s0)
    3086:	0005f817          	auipc	a6,0x5f
    308a:	0400                	addi	s0,sp,512
    308c:	fa16028f          	0xfa16028f
    3090:	0000                	unimp
    3092:	7800                	ld	s0,48(s0)
    3094:	00017017          	auipc	zero,0x17
    3098:	0400                	addi	s0,sp,512
    309a:	0290                	addi	a2,sp,320
    309c:	fa16                	sd	t0,304(sp)
    309e:	0000                	unimp
    30a0:	8000                	0x8000
    30a2:	0005b017          	auipc	zero,0x5b
    30a6:	0400                	addi	s0,sp,512
    30a8:	0291                	addi	t0,t0,4
    30aa:	2010                	fld	fa2,0(s0)
    30ac:	0008                	0x8
    30ae:	8800                	0x8800
    30b0:	00031e17          	auipc	t3,0x31
    30b4:	0400                	addi	s0,sp,512
    30b6:	0292                	slli	t0,t0,0x4
    30b8:	3010                	fld	fa2,32(s0)
    30ba:	0008                	0x8
    30bc:	9000                	0x9000
    30be:	00056517          	auipc	a0,0x56
    30c2:	0400                	addi	s0,sp,512
    30c4:	340f0293          	addi	t0,t5,832 # fffffffffffe1340 <__global_pointer$+0xfffffffffffcf6c0>
    30c8:	0000                	unimp
    30ca:	a800                	fsd	fs0,16(s0)
    30cc:	00028017          	auipc	zero,0x28
    30d0:	0400                	addi	s0,sp,512
    30d2:	0294                	addi	a3,sp,320
    30d4:	fa16                	sd	t0,304(sp)
    30d6:	0000                	unimp
    30d8:	ac00                	fsd	fs0,24(s0)
    30da:	00016117          	auipc	sp,0x16
    30de:	0400                	addi	s0,sp,512
    30e0:	0295                	addi	t0,t0,5
    30e2:	fa16                	sd	t0,304(sp)
    30e4:	0000                	unimp
    30e6:	b400                	fsd	fs0,40(s0)
    30e8:	00026f17          	auipc	t5,0x26
    30ec:	0400                	addi	s0,sp,512
    30ee:	0296                	slli	t0,t0,0x5
    30f0:	fa16                	sd	t0,304(sp)
    30f2:	0000                	unimp
    30f4:	bc00                	fsd	fs0,56(s0)
    30f6:	00011617          	auipc	a2,0x11
    30fa:	0400                	addi	s0,sp,512
    30fc:	fa160297          	auipc	t0,0xfa160
    3100:	0000                	unimp
    3102:	c400                	sw	s0,8(s0)
    3104:	00012517          	auipc	a0,0x12
    3108:	0400                	addi	s0,sp,512
    310a:	0298                	addi	a4,sp,320
    310c:	fa16                	sd	t0,304(sp)
    310e:	0000                	unimp
    3110:	cc00                	sw	s0,24(s0)
    3112:	00044e17          	auipc	t3,0x44
    3116:	0400                	addi	s0,sp,512
    3118:	0299                	addi	t0,t0,6
    311a:	3408                	fld	fa0,40(s0)
    311c:	0000                	unimp
    311e:	d400                	sw	s0,40(s0)
    3120:	0800                	addi	s0,sp,16
    3122:	000005bf 00000819 	0x819000005bf
    312a:	2d09                	addiw	s10,s10,2
    312c:	0000                	unimp
    312e:	1900                	addi	s0,sp,176
    3130:	0200                	addi	s0,sp,256
    3132:	0708                	addi	a0,sp,896
    3134:	0136                	slli	sp,sp,0xd
    3136:	0000                	unimp
    3138:	bf08                	fsd	fa0,56(a4)
    313a:	0005                	c.nop	1
    313c:	3000                	fld	fs0,32(s0)
    313e:	0008                	0x8
    3140:	0900                	addi	s0,sp,144
    3142:	002d                	c.nop	11
    3144:	0000                	unimp
    3146:	bf080007          	0xbf080007
    314a:	0005                	c.nop	1
    314c:	4000                	lw	s0,0(s0)
    314e:	0008                	0x8
    3150:	0900                	addi	s0,sp,144
    3152:	002d                	c.nop	11
    3154:	0000                	unimp
    3156:	681b0017          	auipc	zero,0x681b0
    315a:	0401                	addi	s0,s0,0
    315c:	029e                	slli	t0,t0,0x7
    315e:	00086807          	0x86807
    3162:	1700                	addi	s0,sp,928
    3164:	0380                	addi	s0,sp,448
    3166:	0000                	unimp
    3168:	a104                	fsd	fs1,0(a0)
    316a:	1b02                	slli	s6,s6,0x20
    316c:	0868                	addi	a0,sp,28
    316e:	0000                	unimp
    3170:	1700                	addi	s0,sp,928
    3172:	0000036b          	0x36b
    3176:	a204                	fsd	fs1,0(a2)
    3178:	1802                	slli	a6,a6,0x20
    317a:	0878                	addi	a4,sp,28
    317c:	0000                	unimp
    317e:	00f0                	addi	a2,sp,76
    3180:	fe08                	sd	a0,56(a2)
    3182:	0002                	c.slli64	zero
    3184:	7800                	ld	s0,48(s0)
    3186:	0008                	0x8
    3188:	0900                	addi	s0,sp,144
    318a:	002d                	c.nop	11
    318c:	0000                	unimp
    318e:	001d                	c.nop	7
    3190:	5d08                	lw	a0,56(a0)
    3192:	0000                	unimp
    3194:	8800                	0x8800
    3196:	0008                	0x8
    3198:	0900                	addi	s0,sp,144
    319a:	002d                	c.nop	11
    319c:	0000                	unimp
    319e:	001d                	c.nop	7
    31a0:	681c                	ld	a5,16(s0)
    31a2:	0401                	addi	s0,s0,0
    31a4:	ae030283          	lb	t0,-1312(t1) # 61b4a <__global_pointer$+0x4feca>
    31a8:	0008                	0x8
    31aa:	1d00                	addi	s0,sp,688
    31ac:	04f0                	addi	a2,sp,588
    31ae:	0000                	unimp
    31b0:	9a04                	0x9a04
    31b2:	0b02                	c.slli64	s6
    31b4:	06f4                	addi	a3,sp,844
    31b6:	0000                	unimp
    31b8:	ca1d                	beqz	a2,31ee <_start-0xcec2>
    31ba:	0005                	c.nop	1
    31bc:	0400                	addi	s0,sp,512
    31be:	400b02a3          	sb	zero,1029(s6) # 4c461 <__global_pointer$+0x3a7e1>
    31c2:	0008                	0x8
    31c4:	0000                	unimp
    31c6:	bf08                	fsd	fa0,56(a4)
    31c8:	0005                	c.nop	1
    31ca:	be00                	fsd	fs0,56(a2)
    31cc:	0008                	0x8
    31ce:	0900                	addi	s0,sp,144
    31d0:	002d                	c.nop	11
    31d2:	0000                	unimp
    31d4:	0018                	0x18
    31d6:	561e                	lw	a2,228(sp)
    31d8:	0001                	nop
    31da:	0f00                	addi	s0,sp,912
    31dc:	be08                	fsd	fa0,56(a2)
    31de:	0008                	0x8
    31e0:	1f00                	addi	s0,sp,944
    31e2:	08d4                	addi	a3,sp,84
    31e4:	0000                	unimp
    31e6:	6514                	ld	a3,8(a0)
    31e8:	0004                	0x4
    31ea:	0000                	unimp
    31ec:	08c9080f          	0x8c9080f
    31f0:	0000                	unimp
    31f2:	0186080f          	0x186080f
    31f6:	0000                	unimp
    31f8:	eb1f 0008 1400      	0x14000008eb1f
    31fe:	0034                	addi	a3,sp,8
    3200:	0000                	unimp
    3202:	0f00                	addi	s0,sp,912
    3204:	f108                	sd	a0,32(a0)
    3206:	0008                	0x8
    3208:	0f00                	addi	s0,sp,912
    320a:	e008                	sd	a0,0(s0)
    320c:	0008                	0x8
    320e:	0800                	addi	s0,sp,16
    3210:	0659                	addi	a2,a2,22
    3212:	0000                	unimp
    3214:	00000907          	0x907
    3218:	2d09                	addiw	s10,s10,2
    321a:	0000                	unimp
    321c:	0200                	addi	s0,sp,256
    321e:	2000                	fld	fs0,0(s0)
    3220:	0579                	addi	a0,a0,30
    3222:	0000                	unimp
    3224:	3304                	fld	fs1,32(a4)
    3226:	04651703          	lh	a4,70(a0) # 1514a <__global_pointer$+0x34ca>
    322a:	0000                	unimp
    322c:	7220                	ld	s0,96(a2)
    322e:	0005                	c.nop	1
    3230:	0400                	addi	s0,sp,512
    3232:	0334                	addi	a3,sp,392
    3234:	6b1d                	lui	s6,0x7
    3236:	0004                	0x4
    3238:	2100                	fld	fs0,0(a0)
    323a:	03fa                	slli	t2,t2,0x1e
    323c:	0000                	unimp
    323e:	6706                	ld	a4,64(sp)
    3240:	b90e                	fsd	ft3,176(sp)
    3242:	0005                	c.nop	1
    3244:	2200                	fld	fs0,0(a2)
    3246:	000009d3          	fadd.s	fs3,ft0,ft0,rne
    324a:	1101                	addi	sp,sp,-32
    324c:	3401                	addiw	s0,s0,-32
    324e:	0000                	unimp
    3250:	0000                	unimp
    3252:	00068123          	sb	zero,2(a3)
    3256:	0100                	addi	s0,sp,128
    3258:	0146                	slli	sp,sp,0x11
    325a:	0378                	addi	a4,sp,396
    325c:	0001                	nop
    325e:	0000                	unimp
    3260:	0000                	unimp
    3262:	00c2                	slli	ra,ra,0x10
    3264:	0000                	unimp
    3266:	0000                	unimp
    3268:	0000                	unimp
    326a:	9c01                	subw	s0,s0,s0
    326c:	09fe                	slli	s3,s3,0x1f
    326e:	0000                	unimp
    3270:	9924                	0x9924
    3272:	0006                	c.slli	zero,0x1
    3274:	0100                	addi	s0,sp,128
    3276:	1746                	slli	a4,a4,0x31
    3278:	0034                	addi	a3,sp,8
    327a:	0000                	unimp
    327c:	0410                	addi	a2,sp,512
    327e:	0000                	unimp
    3280:	6425                	lui	s0,0x9
    3282:	0100                	addi	s0,sp,128
    3284:	2346                	fld	ft6,80(sp)
    3286:	0106                	slli	sp,sp,0x1
    3288:	0000                	unimp
    328a:	0449                	addi	s0,s0,18
    328c:	0000                	unimp
    328e:	7026                	0x7026
    3290:	0100                	addi	s0,sp,128
    3292:	1c48                	addi	a0,sp,564
    3294:	02b9                	addi	t0,t0,14
    3296:	0000                	unimp
    3298:	04a8                	addi	a0,sp,584
    329a:	0000                	unimp
    329c:	0009ec27          	0x9ec27
    32a0:	0100                	addi	s0,sp,128
    32a2:	1449                	addi	s0,s0,-14
    32a4:	09fe                	slli	s3,s3,0x1f
    32a6:	0000                	unimp
    32a8:	0506                	slli	a0,a0,0x1
    32aa:	0000                	unimp
    32ac:	00021727          	0x21727
    32b0:	0100                	addi	s0,sp,128
    32b2:	234a                	fld	ft6,144(sp)
    32b4:	0a04                	addi	s1,sp,272
    32b6:	0000                	unimp
    32b8:	0542                	slli	a0,a0,0x10
    32ba:	0000                	unimp
    32bc:	6e26                	ld	t3,72(sp)
    32be:	0100                	addi	s0,sp,128
    32c0:	0034104b          	fnmsub.s	ft0,fs0,ft3,ft0,rtz
    32c4:	0000                	unimp
    32c6:	0594                	addi	a3,sp,704
    32c8:	0000                	unimp
    32ca:	6926                	ld	s2,72(sp)
    32cc:	0100                	addi	s0,sp,128
    32ce:	074c                	addi	a1,sp,900
    32d0:	0034                	addi	a3,sp,8
    32d2:	0000                	unimp
    32d4:	05f8                	addi	a4,sp,716
    32d6:	0000                	unimp
    32d8:	6626                	ld	a2,72(sp)
    32da:	006e                	c.slli	zero,0x1b
    32dc:	4d01                	li	s10,0
    32de:	cf0a                	sw	sp,156(sp)
    32e0:	0002                	c.slli64	zero
    32e2:	3600                	fld	fs0,40(a2)
    32e4:	0006                	c.slli	zero,0x1
    32e6:	2800                	fld	fs0,16(s0)
    32e8:	09f2                	slli	s3,s3,0x1c
    32ea:	0000                	unimp
    32ec:	5401                	li	s0,-32
    32ee:	2902                	fld	fs2,0(sp)
    32f0:	0000                	unimp
    32f2:	0000                	unimp
    32f4:	6926                	ld	s2,72(sp)
    32f6:	646e                	ld	s0,216(sp)
    32f8:	0100                	addi	s0,sp,128
    32fa:	0861                	addi	a6,a6,24
    32fc:	0034                	addi	a3,sp,8
    32fe:	0000                	unimp
    3300:	067f                	0x67f
    3302:	0000                	unimp
    3304:	2c2a                	fld	fs8,136(sp)
    3306:	0104                	addi	s1,sp,128
    3308:	0000                	unimp
    330a:	0000                	unimp
    330c:	2b00                	fld	fs0,16(a4)
    330e:	5a01                	li	s4,-32
    3310:	8602                	jr	a2
    3312:	0000                	unimp
    3314:	0000                	unimp
    3316:	02b9080f          	0x2b9080f
    331a:	0000                	unimp
    331c:	021f080f          	0x21f080f
    3320:	0000                	unimp
    3322:	df00                	sw	s0,56(a4)
    3324:	0400000b          	0x400000b
    3328:	5700                	lw	s0,40(a4)
    332a:	000c                	0xc
    332c:	0800                	addi	s0,sp,16
    332e:	6801                	0x6801
    3330:	000a                	c.slli	zero,0x2
    3332:	0c00                	addi	s0,sp,528
    3334:	0ac6                	slli	s5,s5,0x11
    3336:	0000                	unimp
    3338:	0000003b          	addw	zero,zero,zero
    333c:	043a                	slli	s0,s0,0xe
    333e:	0001                	nop
    3340:	0000                	unimp
    3342:	0000                	unimp
    3344:	002c                	addi	a1,sp,8
    3346:	0000                	unimp
    3348:	0000                	unimp
    334a:	0000                	unimp
    334c:	112d                	addi	sp,sp,-21
    334e:	0000                	unimp
    3350:	0402                	c.slli64	s0
    3352:	6905                	lui	s2,0x1
    3354:	746e                	ld	s0,248(sp)
    3356:	0300                	addi	s0,sp,384
    3358:	0508                	addi	a0,sp,640
    335a:	018c                	addi	a1,sp,192
    335c:	0000                	unimp
    335e:	3b070803          	lb	a6,944(a4) # 519a0 <__global_pointer$+0x3fd20>
    3362:	0001                	nop
    3364:	0300                	addi	s0,sp,384
    3366:	0508                	addi	a0,sp,640
    3368:	00000187          	0x187
    336c:	74041003          	lh	zero,1856(s0) # 9740 <_start-0x6970>
    3370:	04000003          	lb	zero,64(zero) # 40 <_start-0x10070>
    3374:	0345                	addi	t1,t1,17
    3376:	0000                	unimp
    3378:	17015e03          	lhu	t3,368(sp) # 1924a <__global_pointer$+0x75ca>
    337c:	005d                	c.nop	23
    337e:	0000                	unimp
    3380:	40070403          	lb	s0,1024(a4)
    3384:	0001                	nop
    3386:	0300                	addi	s0,sp,384
    3388:	0601                	addi	a2,a2,0
    338a:	043d                	addi	s0,s0,15
    338c:	0000                	unimp
    338e:	3b080103          	lb	sp,944(a6) # 62436 <__global_pointer$+0x507b6>
    3392:	0004                	0x4
    3394:	0300                	addi	s0,sp,384
    3396:	0502                	c.slli64	a0
    3398:	00000457          	0x457
    339c:	02070203          	lb	tp,32(a4)
    33a0:	05000003          	lb	zero,80(zero) # 50 <_start-0x10060>
    33a4:	0000040f          	0x40f
    33a8:	2e04                	fld	fs1,24(a2)
    33aa:	340e                	fld	fs0,224(sp)
    33ac:	0000                	unimp
    33ae:	0500                	addi	s0,sp,640
    33b0:	00000513          	li	a0,0
    33b4:	7404                	ld	s1,40(s0)
    33b6:	340e                	fld	fs0,224(sp)
    33b8:	0000                	unimp
    33ba:	0500                	addi	s0,sp,640
    33bc:	000005a7          	0x5a7
    33c0:	9304                	0x9304
    33c2:	00003417          	auipc	s0,0x3
    33c6:	0600                	addi	s0,sp,768
    33c8:	0404                	addi	s1,sp,512
    33ca:	03a5                	addi	t2,t2,9
    33cc:	00c6                	slli	ra,ra,0x11
    33ce:	0000                	unimp
    33d0:	00033f07          	fld	ft10,0(t1)
    33d4:	0400                	addi	s0,sp,512
    33d6:	00500ca7          	0x500ca7
    33da:	0000                	unimp
    33dc:	0002de07          	0x2de07
    33e0:	0400                	addi	s0,sp,512
    33e2:	13a8                	addi	a0,sp,488
    33e4:	00c6                	slli	ra,ra,0x11
    33e6:	0000                	unimp
    33e8:	0800                	addi	s0,sp,16
    33ea:	0000006b          	0x6b
    33ee:	00d6                	slli	ra,ra,0x15
    33f0:	0000                	unimp
    33f2:	3b09                	addiw	s6,s6,-30
    33f4:	0000                	unimp
    33f6:	0300                	addi	s0,sp,384
    33f8:	0a00                	addi	s0,sp,272
    33fa:	0408                	addi	a0,sp,512
    33fc:	09a2                	slli	s3,s3,0x8
    33fe:	00fa                	slli	ra,ra,0x1e
    3400:	0000                	unimp
    3402:	0004fd0b          	0x4fd0b
    3406:	0400                	addi	s0,sp,512
    3408:	07a4                	addi	s1,sp,968
    340a:	002d                	c.nop	11
    340c:	0000                	unimp
    340e:	0b00                	addi	s0,sp,400
    3410:	0505                	addi	a0,a0,1
    3412:	0000                	unimp
    3414:	a904                	fsd	fs1,16(a0)
    3416:	a405                	j	3636 <_start-0xca7a>
    3418:	0000                	unimp
    341a:	0400                	addi	s0,sp,512
    341c:	0500                	addi	s0,sp,640
    341e:	047f                	0x47f
    3420:	0000                	unimp
    3422:	aa04                	fsd	fs1,16(a2)
    3424:	0000d603          	lhu	a2,0(ra)
    3428:	0c00                	addi	s0,sp,528
    342a:	0508                	addi	a0,sp,640
    342c:	055d                	addi	a0,a0,23
    342e:	0000                	unimp
    3430:	1905                	addi	s2,s2,-31
    3432:	5d19                	li	s10,-26
    3434:	0000                	unimp
    3436:	0500                	addi	s0,sp,640
    3438:	0429                	addi	s0,s0,10
    343a:	0000                	unimp
    343c:	0c06                	slli	s8,s8,0x1
    343e:	2d0d                	addiw	s10,s10,3
    3440:	0000                	unimp
    3442:	0500                	addi	s0,sp,640
    3444:	02a1                	addi	t0,t0,8
    3446:	0000                	unimp
    3448:	2305                	addiw	t1,t1,1
    344a:	0001141b          	slliw	s0,sp,0x0
    344e:	0d00                	addi	s0,sp,656
    3450:	02b2                	slli	t0,t0,0xc
    3452:	0000                	unimp
    3454:	0520                	addi	s0,sp,648
    3456:	0834                	addi	a3,sp,24
    3458:	0186                	slli	gp,gp,0x1
    345a:	0000                	unimp
    345c:	0004a00b          	0x4a00b
    3460:	0500                	addi	s0,sp,640
    3462:	1336                	slli	t1,t1,0x2d
    3464:	0186                	slli	gp,gp,0x1
    3466:	0000                	unimp
    3468:	0e00                	addi	s0,sp,784
    346a:	6b5f 0500 0737      	0x73705006b5f
    3470:	002d                	c.nop	11
    3472:	0000                	unimp
    3474:	0b08                	addi	a0,sp,400
    3476:	04e8                	addi	a0,sp,588
    3478:	0000                	unimp
    347a:	3705                	addiw	a4,a4,-31
    347c:	00002d0b          	0x2d0b
    3480:	0c00                	addi	s0,sp,528
    3482:	00029b0b          	0x29b0b
    3486:	0500                	addi	s0,sp,640
    3488:	002d1437          	lui	s0,0x2d1
    348c:	0000                	unimp
    348e:	0b10                	addi	a2,sp,400
    3490:	0592                	slli	a1,a1,0x4
    3492:	0000                	unimp
    3494:	3705                	addiw	a4,a4,-31
    3496:	00002d1b          	0x2d1b
    349a:	1400                	addi	s0,sp,544
    349c:	5f0e                	lw	t5,224(sp)
    349e:	0078                	addi	a4,sp,12
    34a0:	3805                	addiw	a6,a6,-31
    34a2:	00018c0b          	0x18c0b
    34a6:	1800                	addi	s0,sp,48
    34a8:	0f00                	addi	s0,sp,912
    34aa:	2c08                	fld	fa0,24(s0)
    34ac:	0001                	nop
    34ae:	0800                	addi	s0,sp,16
    34b0:	0108                	addi	a0,sp,128
    34b2:	0000                	unimp
    34b4:	019c                	addi	a5,sp,192
    34b6:	0000                	unimp
    34b8:	3b09                	addiw	s6,s6,-30
    34ba:	0000                	unimp
    34bc:	0000                	unimp
    34be:	0d00                	addi	s0,sp,656
    34c0:	02d9                	addi	t0,t0,22
    34c2:	0000                	unimp
    34c4:	0524                	addi	s1,sp,648
    34c6:	083c                	addi	a5,sp,24
    34c8:	021f 0000 7e0b      	0x7e0b0000021f
    34ce:	0001                	nop
    34d0:	0500                	addi	s0,sp,640
    34d2:	093e                	slli	s2,s2,0xf
    34d4:	002d                	c.nop	11
    34d6:	0000                	unimp
    34d8:	0b00                	addi	s0,sp,400
    34da:	0000051b          	sext.w	a0,zero
    34de:	3f05                	addiw	t5,t5,-31
    34e0:	2d09                	addiw	s10,s10,2
    34e2:	0000                	unimp
    34e4:	0400                	addi	s0,sp,512
    34e6:	0001ff0b          	0x1ff0b
    34ea:	0500                	addi	s0,sp,640
    34ec:	0940                	addi	s0,sp,148
    34ee:	002d                	c.nop	11
    34f0:	0000                	unimp
    34f2:	0b08                	addi	a0,sp,400
    34f4:	061a                	slli	a2,a2,0x6
    34f6:	0000                	unimp
    34f8:	4105                	li	sp,1
    34fa:	2d09                	addiw	s10,s10,2
    34fc:	0000                	unimp
    34fe:	0c00                	addi	s0,sp,528
    3500:	0003f10b          	0x3f10b
    3504:	0500                	addi	s0,sp,640
    3506:	0942                	slli	s2,s2,0x10
    3508:	002d                	c.nop	11
    350a:	0000                	unimp
    350c:	0b10                	addi	a2,sp,400
    350e:	0361                	addi	t1,t1,24
    3510:	0000                	unimp
    3512:	4305                	li	t1,1
    3514:	2d09                	addiw	s10,s10,2
    3516:	0000                	unimp
    3518:	1400                	addi	s0,sp,544
    351a:	0005970b          	0x5970b
    351e:	0500                	addi	s0,sp,640
    3520:	0944                	addi	s1,sp,148
    3522:	002d                	c.nop	11
    3524:	0000                	unimp
    3526:	0b18                	addi	a4,sp,400
    3528:	0461                	addi	s0,s0,24
    352a:	0000                	unimp
    352c:	4505                	li	a0,1
    352e:	2d09                	addiw	s10,s10,2
    3530:	0000                	unimp
    3532:	1c00                	addi	s0,sp,560
    3534:	0005d20b          	0x5d20b
    3538:	0500                	addi	s0,sp,640
    353a:	0946                	slli	s2,s2,0x11
    353c:	002d                	c.nop	11
    353e:	0000                	unimp
    3540:	0020                	addi	s0,sp,8
    3542:	0e10                	addi	a2,sp,784
    3544:	0002                	c.slli64	zero
    3546:	0800                	addi	s0,sp,16
    3548:	0502                	c.slli64	a0
    354a:	0265084f          	fnmadd.d	fa6,fa0,ft6,ft0,rne
    354e:	0000                	unimp
    3550:	00028e0b          	0x28e0b
    3554:	0500                	addi	s0,sp,640
    3556:	0a50                	addi	a2,sp,276
    3558:	0265                	addi	tp,tp,25
    355a:	0000                	unimp
    355c:	1100                	addi	s0,sp,160
    355e:	00b0                	addi	a2,sp,72
    3560:	0000                	unimp
    3562:	5105                	li	sp,-31
    3564:	6509                	lui	a0,0x2
    3566:	0002                	c.slli64	zero
    3568:	0000                	unimp
    356a:	1101                	addi	sp,sp,-32
    356c:	00000543          	fmadd.s	fa0,ft0,ft0,ft0,rne
    3570:	5305                	li	t1,-31
    3572:	080a                	slli	a6,a6,0x2
    3574:	0001                	nop
    3576:	0000                	unimp
    3578:	1102                	slli	sp,sp,0x20
    357a:	00000233          	add	tp,zero,zero
    357e:	5605                	li	a2,-31
    3580:	080a                	slli	a6,a6,0x2
    3582:	0001                	nop
    3584:	0400                	addi	s0,sp,512
    3586:	0002                	c.slli64	zero
    3588:	0608                	addi	a0,sp,768
    358a:	0001                	nop
    358c:	7500                	ld	s0,40(a0)
    358e:	0002                	c.slli64	zero
    3590:	0900                	addi	s0,sp,144
    3592:	0000003b          	addw	zero,zero,zero
    3596:	001f 5010 0005      	0x55010001f
    359c:	1800                	addi	s0,sp,48
    359e:	08620503          	lb	a0,134(tp) # 4a02e <__global_pointer$+0x383ae>
    35a2:	02b9                	addi	t0,t0,14
    35a4:	0000                	unimp
    35a6:	0004a00b          	0x4a00b
    35aa:	0500                	addi	s0,sp,640
    35ac:	02b91263          	bne	s2,a1,35d0 <_start-0xcae0>
    35b0:	0000                	unimp
    35b2:	0b00                	addi	s0,sp,400
    35b4:	04b8                	addi	a4,sp,584
    35b6:	0000                	unimp
    35b8:	6405                	lui	s0,0x1
    35ba:	2d06                	fld	fs10,64(sp)
    35bc:	0000                	unimp
    35be:	0800                	addi	s0,sp,16
    35c0:	0002960b          	0x2960b
    35c4:	0500                	addi	s0,sp,640
    35c6:	0966                	slli	s2,s2,0x19
    35c8:	000002bf 020e1110 	0x20e1110000002bf
    35d0:	0000                	unimp
    35d2:	6705                	lui	a4,0x1
    35d4:	1f1e                	slli	t5,t5,0x27
    35d6:	0002                	c.slli64	zero
    35d8:	1000                	addi	s0,sp,32
    35da:	0001                	nop
    35dc:	0275080f          	0x275080f
    35e0:	0000                	unimp
    35e2:	cf08                	sw	a0,24(a4)
    35e4:	0002                	c.slli64	zero
    35e6:	cf00                	sw	s0,24(a4)
    35e8:	0002                	c.slli64	zero
    35ea:	0900                	addi	s0,sp,144
    35ec:	0000003b          	addw	zero,zero,zero
    35f0:	001f 080f 02d5      	0x2d5080f001f
    35f6:	0000                	unimp
    35f8:	0d12                	slli	s10,s10,0x4
    35fa:	0000046b          	0x46b
    35fe:	0510                	addi	a2,sp,640
    3600:	087a                	slli	a6,a6,0x1e
    3602:	02fe                	slli	t0,t0,0x1f
    3604:	0000                	unimp
    3606:	0001f90b          	0x1f90b
    360a:	0500                	addi	s0,sp,640
    360c:	02fe117b          	0x2fe117b
    3610:	0000                	unimp
    3612:	0b00                	addi	s0,sp,400
    3614:	00bc                	addi	a5,sp,72
    3616:	0000                	unimp
    3618:	7c05                	lui	s8,0xfffe1
    361a:	2d06                	fld	fs10,64(sp)
    361c:	0000                	unimp
    361e:	0800                	addi	s0,sp,16
    3620:	0f00                	addi	s0,sp,912
    3622:	6b08                	ld	a0,16(a4)
    3624:	0000                	unimp
    3626:	0d00                	addi	s0,sp,656
    3628:	048a                	slli	s1,s1,0x2
    362a:	0000                	unimp
    362c:	05b0                	addi	a2,sp,712
    362e:	08ba                	slli	a7,a7,0xe
    3630:	00000447          	fmsub.s	fs0,ft0,ft0,ft0,rne
    3634:	5f0e                	lw	t5,224(sp)
    3636:	0070                	addi	a2,sp,12
    3638:	bb05                	j	3368 <_start-0xcd48>
    363a:	fe12                	sd	tp,312(sp)
    363c:	0002                	c.slli64	zero
    363e:	0000                	unimp
    3640:	5f0e                	lw	t5,224(sp)
    3642:	0072                	c.slli	zero,0x1c
    3644:	bc05                	j	3074 <_start-0xd03c>
    3646:	00002d07          	flw	fs10,0(zero) # 0 <_start-0x100b0>
    364a:	0800                	addi	s0,sp,16
    364c:	5f0e                	lw	t5,224(sp)
    364e:	bd050077          	0xbd050077
    3652:	00002d07          	flw	fs10,0(zero) # 0 <_start-0x100b0>
    3656:	0c00                	addi	s0,sp,528
    3658:	00022c0b          	0x22c0b
    365c:	0500                	addi	s0,sp,640
    365e:	09be                	slli	s3,s3,0xf
    3660:	0072                	c.slli	zero,0x1c
    3662:	0000                	unimp
    3664:	0b10                	addi	a2,sp,400
    3666:	02f5                	addi	t0,t0,29
    3668:	0000                	unimp
    366a:	bf05                	j	359a <_start-0xcb16>
    366c:	7209                	lui	tp,0xfffe2
    366e:	0000                	unimp
    3670:	1200                	addi	s0,sp,288
    3672:	5f0e                	lw	t5,224(sp)
    3674:	6662                	ld	a2,24(sp)
    3676:	0500                	addi	s0,sp,640
    3678:	11c0                	addi	s0,sp,228
    367a:	02d6                	slli	t0,t0,0x15
    367c:	0000                	unimp
    367e:	0b18                	addi	a4,sp,400
    3680:	014d                	addi	sp,sp,19
    3682:	0000                	unimp
    3684:	c105                	beqz	a0,36a4 <_start-0xca0c>
    3686:	00002d07          	flw	fs10,0(zero) # 0 <_start-0x100b0>
    368a:	2800                	fld	fs0,16(s0)
    368c:	00021c0b          	0x21c0b
    3690:	0500                	addi	s0,sp,640
    3692:	0ac8                	addi	a0,sp,340
    3694:	0106                	slli	sp,sp,0x1
    3696:	0000                	unimp
    3698:	0b30                	addi	a2,sp,408
    369a:	02c9                	addi	t0,t0,18
    369c:	0000                	unimp
    369e:	ca05                	beqz	a2,36ce <_start-0xc9e2>
    36a0:	cb1d                	beqz	a4,36d6 <_start-0xc9da>
    36a2:	0005                	c.nop	1
    36a4:	3800                	fld	fs0,48(s0)
    36a6:	00035a0b          	0x35a0b
    36aa:	0500                	addi	s0,sp,640
    36ac:	1dcc                	addi	a1,sp,756
    36ae:	05fa                	slli	a1,a1,0x1e
    36b0:	0000                	unimp
    36b2:	0b40                	addi	s0,sp,404
    36b4:	050d                	addi	a0,a0,3
    36b6:	0000                	unimp
    36b8:	cf05                	beqz	a4,36f0 <_start-0xc9c0>
    36ba:	1e0d                	addi	t3,t3,-29
    36bc:	0006                	c.slli	zero,0x1
    36be:	4800                	lw	s0,16(s0)
    36c0:	0005ec0b          	0x5ec0b
    36c4:	0500                	addi	s0,sp,640
    36c6:	09d0                	addi	a2,sp,212
    36c8:	0638                	addi	a4,sp,776
    36ca:	0000                	unimp
    36cc:	0e50                	addi	a2,sp,788
    36ce:	755f 0062 d305      	0xd3050062755f
    36d4:	d611                	beqz	a2,35e0 <_start-0xcad0>
    36d6:	0002                	c.slli64	zero
    36d8:	5800                	lw	s0,48(s0)
    36da:	5f0e                	lw	t5,224(sp)
    36dc:	7075                	c.lui	zero,0xffffd
    36de:	0500                	addi	s0,sp,640
    36e0:	12d4                	addi	a3,sp,356
    36e2:	02fe                	slli	t0,t0,0x1f
    36e4:	0000                	unimp
    36e6:	0e68                	addi	a0,sp,796
    36e8:	755f 0072 d505      	0xd5050072755f
    36ee:	00002d07          	flw	fs10,0(zero) # 0 <_start-0x100b0>
    36f2:	7000                	ld	s0,32(s0)
    36f4:	0001950b          	0x1950b
    36f8:	0500                	addi	s0,sp,640
    36fa:	11d8                	addi	a4,sp,228
    36fc:	063e                	slli	a2,a2,0xf
    36fe:	0000                	unimp
    3700:	0b74                	addi	a3,sp,412
    3702:	05c4                	addi	s1,sp,708
    3704:	0000                	unimp
    3706:	d905                	beqz	a0,3636 <_start-0xca7a>
    3708:	4e11                	li	t3,4
    370a:	0006                	c.slli	zero,0x1
    370c:	7700                	ld	s0,40(a4)
    370e:	5f0e                	lw	t5,224(sp)
    3710:	626c                	ld	a1,192(a2)
    3712:	0500                	addi	s0,sp,640
    3714:	11dc                	addi	a5,sp,228
    3716:	02d6                	slli	t0,t0,0x15
    3718:	0000                	unimp
    371a:	0b78                	addi	a4,sp,412
    371c:	0242                	slli	tp,tp,0x10
    371e:	0000                	unimp
    3720:	df05                	beqz	a4,3658 <_start-0xca58>
    3722:	00002d07          	flw	fs10,0(zero) # 0 <_start-0x100b0>
    3726:	8800                	0x8800
    3728:	0002670b          	0x2670b
    372c:	0500                	addi	s0,sp,640
    372e:	0ae0                	addi	s0,sp,348
    3730:	0080                	addi	s0,sp,64
    3732:	0000                	unimp
    3734:	0b90                	addi	a2,sp,464
    3736:	07c6                	slli	a5,a5,0x11
    3738:	0000                	unimp
    373a:	e305                	bnez	a4,375a <_start-0xc956>
    373c:	6512                	ld	a0,256(sp)
    373e:	0004                	0x4
    3740:	9800                	0x9800
    3742:	00034c0b          	0x34c0b
    3746:	0500                	addi	s0,sp,640
    3748:	01200ce7          	jalr	s9,18(zero) # 0 <_start-0x100b0>
    374c:	0000                	unimp
    374e:	0ba0                	addi	s0,sp,472
    3750:	0492                	slli	s1,s1,0x4
    3752:	0000                	unimp
    3754:	e905                	bnez	a0,3784 <_start-0xc92c>
    3756:	fa0e                	sd	gp,304(sp)
    3758:	0000                	unimp
    375a:	a400                	fsd	fs0,8(s0)
    375c:	0003520b          	0x3520b
    3760:	0500                	addi	s0,sp,640
    3762:	09ea                	slli	s3,s3,0x1a
    3764:	002d                	c.nop	11
    3766:	0000                	unimp
    3768:	00ac                	addi	a1,sp,72
    376a:	00009813          	slli	a6,ra,0x0
    376e:	6500                	ld	s0,8(a0)
    3770:	0004                	0x4
    3772:	1400                	addi	s0,sp,544
    3774:	0465                	addi	s0,s0,25
    3776:	0000                	unimp
    3778:	0614                	addi	a3,sp,768
    377a:	0001                	nop
    377c:	1400                	addi	s0,sp,544
    377e:	05b9                	addi	a1,a1,14
    3780:	0000                	unimp
    3782:	2d14                	fld	fa3,24(a0)
    3784:	0000                	unimp
    3786:	0000                	unimp
    3788:	0470080f          	0x470080f
    378c:	0000                	unimp
    378e:	6515                	lui	a0,0x5
    3790:	0004                	0x4
    3792:	1600                	addi	s0,sp,800
    3794:	04f0                	addi	a2,sp,588
    3796:	0000                	unimp
    3798:	0748                	addi	a0,sp,900
    379a:	6505                	lui	a0,0x1
    379c:	0802                	c.slli64	a6
    379e:	05b9                	addi	a1,a1,14
    37a0:	0000                	unimp
    37a2:	000a6117          	auipc	sp,0xa6
    37a6:	0500                	addi	s0,sp,640
    37a8:	2d070267          	jalr	tp,720(a4) # 12d0 <_start-0xede0>
    37ac:	0000                	unimp
    37ae:	0000                	unimp
    37b0:	00023b17          	auipc	s6,0x23
    37b4:	0500                	addi	s0,sp,640
    37b6:	026c                	addi	a1,sp,268
    37b8:	0006aa0b          	0x6aa0b
    37bc:	0800                	addi	s0,sp,16
    37be:	0002e517          	auipc	a0,0x2e
    37c2:	0500                	addi	s0,sp,640
    37c4:	026c                	addi	a1,sp,268
    37c6:	aa14                	fsd	fa3,16(a2)
    37c8:	0006                	c.slli	zero,0x1
    37ca:	1000                	addi	s0,sp,32
    37cc:	0002aa17          	auipc	s4,0x2a
    37d0:	0500                	addi	s0,sp,640
    37d2:	026c                	addi	a1,sp,268
    37d4:	aa1e                	fsd	ft7,272(sp)
    37d6:	0006                	c.slli	zero,0x1
    37d8:	1800                	addi	s0,sp,48
    37da:	0004b317          	auipc	t1,0x4b
    37de:	0500                	addi	s0,sp,640
    37e0:	026e                	slli	tp,tp,0x1b
    37e2:	2d08                	fld	fa0,24(a0)
    37e4:	0000                	unimp
    37e6:	2000                	fld	fs0,0(s0)
    37e8:	00010b17          	auipc	s6,0x10
    37ec:	0500                	addi	s0,sp,640
    37ee:	b308026f          	jal	tp,fffffffffff83b1e <__global_pointer$+0xfffffffffff71e9e>
    37f2:	0008                	0x8
    37f4:	2400                	fld	fs0,8(s0)
    37f6:	0004cf17          	auipc	t5,0x4c
    37fa:	0500                	addi	s0,sp,640
    37fc:	0272                	slli	tp,tp,0x1c
    37fe:	00002d07          	flw	fs10,0(zero) # 0 <_start-0x100b0>
    3802:	4000                	lw	s0,0(s0)
    3804:	0004bd17          	auipc	s10,0x4b
    3808:	0500                	addi	s0,sp,640
    380a:	c8160273          	0xc8160273
    380e:	0008                	0x8
    3810:	4800                	lw	s0,16(s0)
    3812:	00040417          	auipc	s0,0x40
    3816:	0500                	addi	s0,sp,640
    3818:	0275                	addi	tp,tp,29
    381a:	00002d07          	flw	fs10,0(zero) # 0 <_start-0x100b0>
    381e:	5000                	lw	s0,32(s0)
    3820:	0004c517          	auipc	a0,0x4c
    3824:	0500                	addi	s0,sp,640
    3826:	d90a0277          	0xd90a0277
    382a:	0008                	0x8
    382c:	5800                	lw	s0,48(s0)
    382e:	00033717          	auipc	a4,0x33
    3832:	0500                	addi	s0,sp,640
    3834:	027a                	slli	tp,tp,0x1e
    3836:	00018613          	mv	a2,gp
    383a:	6000                	ld	s0,0(s0)
    383c:	0002cf17          	auipc	t5,0x2c
    3840:	0500                	addi	s0,sp,640
    3842:	2d07027b          	0x2d07027b
    3846:	0000                	unimp
    3848:	6800                	ld	s0,16(s0)
    384a:	00060617          	auipc	a2,0x60
    384e:	0500                	addi	s0,sp,640
    3850:	027c                	addi	a5,sp,268
    3852:	00018613          	mv	a2,gp
    3856:	7000                	ld	s0,32(s0)
    3858:	00041f17          	auipc	t5,0x41
    385c:	0500                	addi	s0,sp,640
    385e:	027d                	addi	tp,tp,31
    3860:	df14                	sw	a3,56(a4)
    3862:	0008                	0x8
    3864:	7800                	ld	s0,48(s0)
    3866:	0002ed17          	auipc	s10,0x2e
    386a:	0500                	addi	s0,sp,640
    386c:	0280                	addi	s0,sp,320
    386e:	00002d07          	flw	fs10,0(zero) # 0 <_start-0x100b0>
    3872:	8000                	0x8000
    3874:	00025f17          	auipc	t5,0x25
    3878:	0500                	addi	s0,sp,640
    387a:	0281                	addi	t0,t0,0
    387c:	b909                	j	348e <_start-0xcc22>
    387e:	0005                	c.nop	1
    3880:	8800                	0x8800
    3882:	00044917          	auipc	s2,0x44
    3886:	0500                	addi	s0,sp,640
    3888:	02a4                	addi	s1,sp,328
    388a:	00088d07          	0x88d07
    388e:	9000                	0x9000
    3890:	5018                	lw	a4,32(s0)
    3892:	0005                	c.nop	1
    3894:	0500                	addi	s0,sp,640
    3896:	02a8                	addi	a0,sp,328
    3898:	0002b913          	sltiu	s2,t0,0
    389c:	f800                	sd	s0,48(s0)
    389e:	1801                	addi	a6,a6,-32
    38a0:	0315                	addi	t1,t1,5
    38a2:	0000                	unimp
    38a4:	a905                	j	3cd4 <_start-0xc3dc>
    38a6:	1202                	slli	tp,tp,0x20
    38a8:	0275                	addi	tp,tp,29
    38aa:	0000                	unimp
    38ac:	0200                	addi	s0,sp,256
    38ae:	ba18                	fsd	fa4,48(a2)
    38b0:	0005                	c.nop	1
    38b2:	0500                	addi	s0,sp,640
    38b4:	02ad                	addi	t0,t0,11
    38b6:	f00c                	sd	a1,32(s0)
    38b8:	0008                	0x8
    38ba:	1800                	addi	s0,sp,48
    38bc:	1805                	addi	a6,a6,-31
    38be:	0224                	addi	s1,sp,264
    38c0:	0000                	unimp
    38c2:	b205                	j	31e2 <_start-0xcece>
    38c4:	1002                	c.slli	zero,0x20
    38c6:	0000066b          	0x66b
    38ca:	0520                	addi	s0,sp,648
    38cc:	0918                	addi	a4,sp,144
    38ce:	0002                	c.slli64	zero
    38d0:	0500                	addi	s0,sp,640
    38d2:	02b4                	addi	a3,sp,328
    38d4:	fc0a                	sd	sp,56(sp)
    38d6:	0008                	0x8
    38d8:	3800                	fld	fs0,48(s0)
    38da:	0005                	c.nop	1
    38dc:	05bf080f          	0x5bf080f
    38e0:	0000                	unimp
    38e2:	44080103          	lb	sp,1088(a6)
    38e6:	0004                	0x4
    38e8:	1500                	addi	s0,sp,672
    38ea:	000005bf 0447080f 	0x447080f000005bf
    38f2:	0000                	unimp
    38f4:	00009813          	slli	a6,ra,0x0
    38f8:	ef00                	sd	s0,24(a4)
    38fa:	0005                	c.nop	1
    38fc:	1400                	addi	s0,sp,544
    38fe:	0465                	addi	s0,s0,25
    3900:	0000                	unimp
    3902:	0614                	addi	a3,sp,768
    3904:	0001                	nop
    3906:	1400                	addi	s0,sp,544
    3908:	000005ef          	jal	a1,3908 <_start-0xc7a8>
    390c:	2d14                	fld	fa3,24(a0)
    390e:	0000                	unimp
    3910:	0000                	unimp
    3912:	05c6080f          	0x5c6080f
    3916:	0000                	unimp
    3918:	ef15                	bnez	a4,3954 <_start-0xc75c>
    391a:	0005                	c.nop	1
    391c:	0f00                	addi	s0,sp,912
    391e:	d108                	sw	a0,32(a0)
    3920:	0005                	c.nop	1
    3922:	1300                	addi	s0,sp,416
    3924:	008c                	addi	a1,sp,64
    3926:	0000                	unimp
    3928:	061e                	slli	a2,a2,0x7
    392a:	0000                	unimp
    392c:	6514                	ld	a3,8(a0)
    392e:	0004                	0x4
    3930:	1400                	addi	s0,sp,544
    3932:	0106                	slli	sp,sp,0x1
    3934:	0000                	unimp
    3936:	8c14                	0x8c14
    3938:	0000                	unimp
    393a:	1400                	addi	s0,sp,544
    393c:	002d                	c.nop	11
    393e:	0000                	unimp
    3940:	0f00                	addi	s0,sp,912
    3942:	0008                	0x8
    3944:	0006                	c.slli	zero,0x1
    3946:	1300                	addi	s0,sp,416
    3948:	002d                	c.nop	11
    394a:	0000                	unimp
    394c:	0638                	addi	a4,sp,776
    394e:	0000                	unimp
    3950:	6514                	ld	a3,8(a0)
    3952:	0004                	0x4
    3954:	1400                	addi	s0,sp,544
    3956:	0106                	slli	sp,sp,0x1
    3958:	0000                	unimp
    395a:	0f00                	addi	s0,sp,912
    395c:	2408                	fld	fa0,8(s0)
    395e:	0006                	c.slli	zero,0x1
    3960:	0800                	addi	s0,sp,16
    3962:	0000006b          	0x6b
    3966:	064e                	slli	a2,a2,0x13
    3968:	0000                	unimp
    396a:	3b09                	addiw	s6,s6,-30
    396c:	0000                	unimp
    396e:	0200                	addi	s0,sp,256
    3970:	0800                	addi	s0,sp,16
    3972:	0000006b          	0x6b
    3976:	065e                	slli	a2,a2,0x17
    3978:	0000                	unimp
    397a:	3b09                	addiw	s6,s6,-30
    397c:	0000                	unimp
    397e:	0000                	unimp
    3980:	0400                	addi	s0,sp,512
    3982:	0478                	addi	a4,sp,524
    3984:	0000                	unimp
    3986:	2405                	addiw	s0,s0,1
    3988:	1a01                	addi	s4,s4,-32
    398a:	0304                	addi	s1,sp,384
    398c:	0000                	unimp
    398e:	a119                	j	3d94 <_start-0xc31c>
    3990:	0005                	c.nop	1
    3992:	1800                	addi	s0,sp,48
    3994:	2805                	addiw	a6,a6,1
    3996:	0801                	addi	a6,a6,0
    3998:	06a4                	addi	s1,sp,840
    399a:	0000                	unimp
    399c:	0004a017          	auipc	zero,0x4a
    39a0:	0500                	addi	s0,sp,640
    39a2:	012a                	slli	sp,sp,0xa
    39a4:	a411                	j	3ba8 <_start-0xc508>
    39a6:	0006                	c.slli	zero,0x1
    39a8:	0000                	unimp
    39aa:	0002fb17          	auipc	s6,0x2f
    39ae:	0500                	addi	s0,sp,640
    39b0:	2d07012b          	0x2d07012b
    39b4:	0000                	unimp
    39b6:	0800                	addi	s0,sp,16
    39b8:	00047217          	auipc	tp,0x47
    39bc:	0500                	addi	s0,sp,640
    39be:	012c                	addi	a1,sp,136
    39c0:	0006aa0b          	0x6aa0b
    39c4:	1000                	addi	s0,sp,32
    39c6:	0f00                	addi	s0,sp,912
    39c8:	6b08                	ld	a0,16(a4)
    39ca:	0006                	c.slli	zero,0x1
    39cc:	0f00                	addi	s0,sp,912
    39ce:	5e08                	lw	a0,56(a2)
    39d0:	0006                	c.slli	zero,0x1
    39d2:	1900                	addi	s0,sp,176
    39d4:	00000103          	lb	sp,0(zero) # 0 <_start-0x100b0>
    39d8:	050e                	slli	a0,a0,0x3
    39da:	0144                	addi	s1,sp,132
    39dc:	e908                	sd	a0,16(a0)
    39de:	0006                	c.slli	zero,0x1
    39e0:	1700                	addi	s0,sp,928
    39e2:	000004f7          	0x4f7
    39e6:	4505                	li	a0,1
    39e8:	1201                	addi	tp,tp,-32
    39ea:	06e9                	addi	a3,a3,26
    39ec:	0000                	unimp
    39ee:	1700                	addi	s0,sp,928
    39f0:	0524                	addi	s1,sp,648
    39f2:	0000                	unimp
    39f4:	4605                	li	a2,1
    39f6:	1201                	addi	tp,tp,-32
    39f8:	06e9                	addi	a3,a3,26
    39fa:	0000                	unimp
    39fc:	1706                	slli	a4,a4,0x21
    39fe:	0558                	addi	a4,sp,644
    3a00:	0000                	unimp
    3a02:	4705                	li	a4,1
    3a04:	1201                	addi	tp,tp,-32
    3a06:	0079                	c.nop	30
    3a08:	0000                	unimp
    3a0a:	000c                	0xc
    3a0c:	7908                	ld	a0,48(a0)
    3a0e:	0000                	unimp
    3a10:	f900                	sd	s0,48(a0)
    3a12:	0006                	c.slli	zero,0x1
    3a14:	0900                	addi	s0,sp,144
    3a16:	0000003b          	addw	zero,zero,zero
    3a1a:	0002                	c.slli64	zero
    3a1c:	d81a                	sw	t1,48(sp)
    3a1e:	8505                	srai	a0,a0,0x1
    3a20:	0702                	c.slli64	a4
    3a22:	080e                	slli	a6,a6,0x3
    3a24:	0000                	unimp
    3a26:	00058517          	auipc	a0,0x58
    3a2a:	0500                	addi	s0,sp,640
    3a2c:	5d180287          	0x5d180287
    3a30:	0000                	unimp
    3a32:	0000                	unimp
    3a34:	00052a17          	auipc	s4,0x52
    3a38:	0500                	addi	s0,sp,640
    3a3a:	0288                	addi	a0,sp,320
    3a3c:	b912                	fsd	ft4,176(sp)
    3a3e:	0005                	c.nop	1
    3a40:	0800                	addi	s0,sp,16
    3a42:	00032a17          	auipc	s4,0x32
    3a46:	0500                	addi	s0,sp,640
    3a48:	0289                	addi	t0,t0,2
    3a4a:	0e10                	addi	a2,sp,784
    3a4c:	0008                	0x8
    3a4e:	1000                	addi	s0,sp,32
    3a50:	0005dd17          	auipc	s10,0x5d
    3a54:	0500                	addi	s0,sp,640
    3a56:	028a                	slli	t0,t0,0x2
    3a58:	00019c17          	auipc	s8,0x19
    3a5c:	2c00                	fld	fs0,24(s0)
    3a5e:	0002ba17          	auipc	s4,0x2b
    3a62:	0500                	addi	s0,sp,640
    3a64:	2d0f028b          	0x2d0f028b
    3a68:	0000                	unimp
    3a6a:	5000                	lw	s0,32(s0)
    3a6c:	00049b17          	auipc	s6,0x49
    3a70:	0500                	addi	s0,sp,640
    3a72:	028c                	addi	a1,sp,320
    3a74:	1e2c                	addi	a1,sp,824
    3a76:	0008                	0x8
    3a78:	5800                	lw	s0,48(s0)
    3a7a:	0005f317          	auipc	t1,0x5f
    3a7e:	0500                	addi	s0,sp,640
    3a80:	028d                	addi	t0,t0,3
    3a82:	b01a                	fsd	ft6,32(sp)
    3a84:	0006                	c.slli	zero,0x1
    3a86:	6000                	ld	s0,0(s0)
    3a88:	0004a617          	auipc	a2,0x4a
    3a8c:	0500                	addi	s0,sp,640
    3a8e:	028e                	slli	t0,t0,0x3
    3a90:	fa16                	sd	t0,304(sp)
    3a92:	0000                	unimp
    3a94:	7000                	ld	s0,32(s0)
    3a96:	0005f817          	auipc	a6,0x5f
    3a9a:	0500                	addi	s0,sp,640
    3a9c:	fa16028f          	0xfa16028f
    3aa0:	0000                	unimp
    3aa2:	7800                	ld	s0,48(s0)
    3aa4:	00017017          	auipc	zero,0x17
    3aa8:	0500                	addi	s0,sp,640
    3aaa:	0290                	addi	a2,sp,320
    3aac:	fa16                	sd	t0,304(sp)
    3aae:	0000                	unimp
    3ab0:	8000                	0x8000
    3ab2:	0005b017          	auipc	zero,0x5b
    3ab6:	0500                	addi	s0,sp,640
    3ab8:	0291                	addi	t0,t0,4
    3aba:	2510                	fld	fa2,8(a0)
    3abc:	0008                	0x8
    3abe:	8800                	0x8800
    3ac0:	00031e17          	auipc	t3,0x31
    3ac4:	0500                	addi	s0,sp,640
    3ac6:	0292                	slli	t0,t0,0x4
    3ac8:	3510                	fld	fa2,40(a0)
    3aca:	0008                	0x8
    3acc:	9000                	0x9000
    3ace:	00056517          	auipc	a0,0x56
    3ad2:	0500                	addi	s0,sp,640
    3ad4:	2d0f0293          	addi	t0,t5,720 # 28b44 <__global_pointer$+0x16ec4>
    3ad8:	0000                	unimp
    3ada:	a800                	fsd	fs0,16(s0)
    3adc:	00028017          	auipc	zero,0x28
    3ae0:	0500                	addi	s0,sp,640
    3ae2:	0294                	addi	a3,sp,320
    3ae4:	fa16                	sd	t0,304(sp)
    3ae6:	0000                	unimp
    3ae8:	ac00                	fsd	fs0,24(s0)
    3aea:	00016117          	auipc	sp,0x16
    3aee:	0500                	addi	s0,sp,640
    3af0:	0295                	addi	t0,t0,5
    3af2:	fa16                	sd	t0,304(sp)
    3af4:	0000                	unimp
    3af6:	b400                	fsd	fs0,40(s0)
    3af8:	00026f17          	auipc	t5,0x26
    3afc:	0500                	addi	s0,sp,640
    3afe:	0296                	slli	t0,t0,0x5
    3b00:	fa16                	sd	t0,304(sp)
    3b02:	0000                	unimp
    3b04:	bc00                	fsd	fs0,56(s0)
    3b06:	00011617          	auipc	a2,0x11
    3b0a:	0500                	addi	s0,sp,640
    3b0c:	fa160297          	auipc	t0,0xfa160
    3b10:	0000                	unimp
    3b12:	c400                	sw	s0,8(s0)
    3b14:	00012517          	auipc	a0,0x12
    3b18:	0500                	addi	s0,sp,640
    3b1a:	0298                	addi	a4,sp,320
    3b1c:	fa16                	sd	t0,304(sp)
    3b1e:	0000                	unimp
    3b20:	cc00                	sw	s0,24(s0)
    3b22:	00044e17          	auipc	t3,0x44
    3b26:	0500                	addi	s0,sp,640
    3b28:	0299                	addi	t0,t0,6
    3b2a:	2d08                	fld	fa0,24(a0)
    3b2c:	0000                	unimp
    3b2e:	d400                	sw	s0,40(s0)
    3b30:	0800                	addi	s0,sp,16
    3b32:	000005bf 0000081e 	0x81e000005bf
    3b3a:	3b09                	addiw	s6,s6,-30
    3b3c:	0000                	unimp
    3b3e:	1900                	addi	s0,sp,176
    3b40:	0300                	addi	s0,sp,384
    3b42:	0708                	addi	a0,sp,896
    3b44:	0136                	slli	sp,sp,0xd
    3b46:	0000                	unimp
    3b48:	bf08                	fsd	fa0,56(a4)
    3b4a:	0005                	c.nop	1
    3b4c:	3500                	fld	fs0,40(a0)
    3b4e:	0008                	0x8
    3b50:	0900                	addi	s0,sp,144
    3b52:	0000003b          	addw	zero,zero,zero
    3b56:	bf080007          	0xbf080007
    3b5a:	0005                	c.nop	1
    3b5c:	4500                	lw	s0,8(a0)
    3b5e:	0008                	0x8
    3b60:	0900                	addi	s0,sp,144
    3b62:	0000003b          	addw	zero,zero,zero
    3b66:	681b0017          	auipc	zero,0x681b0
    3b6a:	0501                	addi	a0,a0,0
    3b6c:	029e                	slli	t0,t0,0x7
    3b6e:	00086d07          	0x86d07
    3b72:	1700                	addi	s0,sp,928
    3b74:	0380                	addi	s0,sp,448
    3b76:	0000                	unimp
    3b78:	a105                	j	3f98 <_start-0xc118>
    3b7a:	1b02                	slli	s6,s6,0x20
    3b7c:	086d                	addi	a6,a6,27
    3b7e:	0000                	unimp
    3b80:	1700                	addi	s0,sp,928
    3b82:	0000036b          	0x36b
    3b86:	a205                	j	3ca6 <_start-0xc40a>
    3b88:	1802                	slli	a6,a6,0x20
    3b8a:	087d                	addi	a6,a6,31
    3b8c:	0000                	unimp
    3b8e:	00f0                	addi	a2,sp,76
    3b90:	fe08                	sd	a0,56(a2)
    3b92:	0002                	c.slli64	zero
    3b94:	7d00                	ld	s0,56(a0)
    3b96:	0008                	0x8
    3b98:	0900                	addi	s0,sp,144
    3b9a:	0000003b          	addw	zero,zero,zero
    3b9e:	001d                	c.nop	7
    3ba0:	5d08                	lw	a0,56(a0)
    3ba2:	0000                	unimp
    3ba4:	8d00                	0x8d00
    3ba6:	0008                	0x8
    3ba8:	0900                	addi	s0,sp,144
    3baa:	0000003b          	addw	zero,zero,zero
    3bae:	001d                	c.nop	7
    3bb0:	681c                	ld	a5,16(s0)
    3bb2:	0501                	addi	a0,a0,0
    3bb4:	b3030283          	lb	t0,-1232(t1) # 625aa <__global_pointer$+0x5092a>
    3bb8:	0008                	0x8
    3bba:	1d00                	addi	s0,sp,688
    3bbc:	04f0                	addi	a2,sp,588
    3bbe:	0000                	unimp
    3bc0:	9a05                	andi	a2,a2,-31
    3bc2:	0b02                	c.slli64	s6
    3bc4:	06f9                	addi	a3,a3,30
    3bc6:	0000                	unimp
    3bc8:	ca1d                	beqz	a2,3bfe <_start-0xc4b2>
    3bca:	0005                	c.nop	1
    3bcc:	0500                	addi	s0,sp,640
    3bce:	450b02a3          	sb	a6,1093(s6) # 4ceb1 <__global_pointer$+0x3b231>
    3bd2:	0008                	0x8
    3bd4:	0000                	unimp
    3bd6:	bf08                	fsd	fa0,56(a4)
    3bd8:	0005                	c.nop	1
    3bda:	c300                	sw	s0,0(a4)
    3bdc:	0008                	0x8
    3bde:	0900                	addi	s0,sp,144
    3be0:	0000003b          	addw	zero,zero,zero
    3be4:	0018                	0x18
    3be6:	561e                	lw	a2,228(sp)
    3be8:	0001                	nop
    3bea:	0f00                	addi	s0,sp,912
    3bec:	c308                	sw	a0,0(a4)
    3bee:	0008                	0x8
    3bf0:	1f00                	addi	s0,sp,944
    3bf2:	08d9                	addi	a7,a7,22
    3bf4:	0000                	unimp
    3bf6:	6514                	ld	a3,8(a0)
    3bf8:	0004                	0x4
    3bfa:	0000                	unimp
    3bfc:	08ce080f          	0x8ce080f
    3c00:	0000                	unimp
    3c02:	0186080f          	0x186080f
    3c06:	0000                	unimp
    3c08:	f01f 0008 1400      	0x14000008f01f
    3c0e:	002d                	c.nop	11
    3c10:	0000                	unimp
    3c12:	0f00                	addi	s0,sp,912
    3c14:	f608                	sd	a0,40(a2)
    3c16:	0008                	0x8
    3c18:	0f00                	addi	s0,sp,912
    3c1a:	e508                	sd	a0,8(a0)
    3c1c:	0008                	0x8
    3c1e:	0800                	addi	s0,sp,16
    3c20:	065e                	slli	a2,a2,0x17
    3c22:	0000                	unimp
    3c24:	090c                	addi	a1,sp,144
    3c26:	0000                	unimp
    3c28:	3b09                	addiw	s6,s6,-30
    3c2a:	0000                	unimp
    3c2c:	0200                	addi	s0,sp,256
    3c2e:	2000                	fld	fs0,0(s0)
    3c30:	0579                	addi	a0,a0,30
    3c32:	0000                	unimp
    3c34:	3305                	addiw	t1,t1,-31
    3c36:	04651703          	lh	a4,70(a0) # 15b5a <__global_pointer$+0x3eda>
    3c3a:	0000                	unimp
    3c3c:	7220                	ld	s0,96(a2)
    3c3e:	0005                	c.nop	1
    3c40:	0500                	addi	s0,sp,640
    3c42:	0334                	addi	a3,sp,392
    3c44:	6b1d                	lui	s6,0x7
    3c46:	0004                	0x4
    3c48:	0800                	addi	s0,sp,16
    3c4a:	05f5                	addi	a1,a1,29
    3c4c:	0000                	unimp
    3c4e:	0931                	addi	s2,s2,12
    3c50:	0000                	unimp
    3c52:	0021                	c.nop	8
    3c54:	2615                	addiw	a2,a2,5
    3c56:	0009                	c.nop	2
    3c58:	2200                	fld	fs0,0(a2)
    3c5a:	00000a9b          	sext.w	s5,zero
    3c5e:	31241407          	0x31241407
    3c62:	0009                	c.nop	2
    3c64:	2200                	fld	fs0,0(a2)
    3c66:	0b11                	addi	s6,s6,4
    3c68:	0000                	unimp
    3c6a:	2d151507          	0x2d151507
    3c6e:	0000                	unimp
    3c70:	2300                	fld	fs0,0(a4)
    3c72:	0624                	addi	s1,sp,776
    3c74:	0000                	unimp
    3c76:	0601                	addi	a2,a2,0
    3c78:	3a01                	addiw	s4,s4,-32
    3c7a:	0104                	addi	s1,sp,128
    3c7c:	0000                	unimp
    3c7e:	0000                	unimp
    3c80:	2c00                	fld	fs0,24(s0)
    3c82:	0000                	unimp
    3c84:	0000                	unimp
    3c86:	0000                	unimp
    3c88:	0100                	addi	s0,sp,128
    3c8a:	989c                	0x989c
    3c8c:	000a                	c.slli	zero,0x2
    3c8e:	2400                	fld	fs0,8(s0)
    3c90:	0b05                	addi	s6,s6,1
    3c92:	0000                	unimp
    3c94:	0601                	addi	a2,a2,0
    3c96:	00002d0b          	0x2d0b
    3c9a:	b500                	fsd	fs0,40(a0)
    3c9c:	0006                	c.slli	zero,0x1
    3c9e:	2500                	fld	fs0,8(a0)
    3ca0:	0a98                	addi	a4,sp,336
    3ca2:	0000                	unimp
    3ca4:	043a                	slli	s0,s0,0xe
    3ca6:	0001                	nop
    3ca8:	0000                	unimp
    3caa:	0000                	unimp
    3cac:	0040                	addi	s0,sp,4
    3cae:	0000                	unimp
    3cb0:	0801                	addi	a6,a6,0
    3cb2:	0aef2603          	lw	a2,174(t5) # 29ba6 <__global_pointer$+0x17f26>
    3cb6:	0000                	unimp
    3cb8:	06ee                	slli	a3,a3,0x1b
    3cba:	0000                	unimp
    3cbc:	e326                	sd	s1,384(sp)
    3cbe:	000a                	c.slli	zero,0x2
    3cc0:	ee00                	sd	s0,24(a2)
    3cc2:	0006                	c.slli	zero,0x1
    3cc4:	2600                	fld	fs0,8(a2)
    3cc6:	00000ad7          	0xad7
    3cca:	06ee                	slli	a3,a3,0x1b
    3ccc:	0000                	unimp
    3cce:	cb26                	sw	s1,148(sp)
    3cd0:	000a                	c.slli	zero,0x2
    3cd2:	ee00                	sd	s0,24(a2)
    3cd4:	0006                	c.slli	zero,0x1
    3cd6:	2600                	fld	fs0,8(a2)
    3cd8:	00000abf 000006ee 	0x6ee00000abf
    3ce0:	b326                	fsd	fs1,416(sp)
    3ce2:	000a                	c.slli	zero,0x2
    3ce4:	2600                	fld	fs0,8(a2)
    3ce6:	26000007          	0x26000007
    3cea:	0aa9                	addi	s5,s5,10
    3cec:	0000                	unimp
    3cee:	0751                	addi	a4,a4,20
    3cf0:	0000                	unimp
    3cf2:	00004027          	fsq	ft0,0(zero) # 0 <_start-0x100b0>
    3cf6:	2800                	fld	fs0,16(s0)
    3cf8:	00000afb          	0xafb
    3cfc:	0000078b          	0x78b
    3d00:	0729                	addi	a4,a4,10
    3d02:	3a00000b          	0x3a00000b
    3d06:	0104                	addi	s1,sp,128
    3d08:	0000                	unimp
    3d0a:	0000                	unimp
    3d0c:	1200                	addi	s0,sp,288
    3d0e:	0000                	unimp
    3d10:	0000                	unimp
    3d12:	0000                	unimp
    3d14:	0200                	addi	s0,sp,256
    3d16:	0d31                	addi	s10,s10,12
    3d18:	0a6a                	slli	s4,s4,0x1a
    3d1a:	0000                	unimp
    3d1c:	5e26                	lw	t3,104(sp)
    3d1e:	ae00000b          	0xae00000b
    3d22:	26000007          	0x26000007
    3d26:	0b52                	slli	s6,s6,0x14
    3d28:	0000                	unimp
    3d2a:	07ae                	slli	a5,a5,0xb
    3d2c:	0000                	unimp
    3d2e:	4626                	lw	a2,72(sp)
    3d30:	ae00000b          	0xae00000b
    3d34:	26000007          	0x26000007
    3d38:	0b3a                	slli	s6,s6,0xe
    3d3a:	0000                	unimp
    3d3c:	07ae                	slli	a5,a5,0xb
    3d3e:	0000                	unimp
    3d40:	2e26                	fld	ft8,72(sp)
    3d42:	ae00000b          	0xae00000b
    3d46:	26000007          	0x26000007
    3d4a:	0b22                	slli	s6,s6,0x8
    3d4c:	0000                	unimp
    3d4e:	0726                	slli	a4,a4,0x9
    3d50:	0000                	unimp
    3d52:	1826                	slli	a6,a6,0x29
    3d54:	d200000b          	0xd200000b
    3d58:	2a000007          	0x2a000007
    3d5c:	0b6a                	slli	s6,s6,0x1a
    3d5e:	0000                	unimp
    3d60:	5a01                	li	s4,-32
    3d62:	752a                	ld	a0,168(sp)
    3d64:	0100000b          	0x100000b
    3d68:	0b802a5b          	0xb802a5b
    3d6c:	0000                	unimp
    3d6e:	5c01                	li	s8,-32
    3d70:	8b2a                	mv	s6,a0
    3d72:	0100000b          	0x100000b
    3d76:	2a5d                	addiw	s4,s4,23
    3d78:	0b96                	slli	s7,s7,0x5
    3d7a:	0000                	unimp
    3d7c:	5e01                	li	t3,-32
    3d7e:	a12a                	fsd	fa0,128(sp)
    3d80:	0100000b          	0x100000b
    3d84:	2a5f 0bac 0000      	0xbac2a5f
    3d8a:	6101                	0x6101
    3d8c:	2500                	fld	fs0,8(a0)
    3d8e:	0bb9                	addi	s7,s7,14
    3d90:	0000                	unimp
    3d92:	0458                	addi	a4,sp,516
    3d94:	0001                	nop
    3d96:	0000                	unimp
    3d98:	0000                	unimp
    3d9a:	0060                	addi	s0,sp,12
    3d9c:	0000                	unimp
    3d9e:	3402                	fld	fs0,32(sp)
    3da0:	260c                	fld	fa1,8(a2)
    3da2:	0bca                	slli	s7,s7,0x12
    3da4:	0000                	unimp
    3da6:	000007f7          	0x7f7
    3daa:	0104622b          	0x104622b
    3dae:	0000                	unimp
    3db0:	0000                	unimp
    3db2:	d600                	sw	s0,40(a2)
    3db4:	0000000b          	0xb
    3db8:	0000                	unimp
    3dba:	2c00                	fld	fs0,24(s0)
    3dbc:	0aa8                	addi	a0,sp,344
    3dbe:	0000                	unimp
    3dc0:	2f02                	fld	ft10,0(sp)
    3dc2:	3401                	addiw	s0,s0,-32
    3dc4:	0000                	unimp
    3dc6:	0300                	addi	s0,sp,384
    3dc8:	00000b07          	0xb07
    3dcc:	6e2d                	lui	t3,0xb
    3dce:	0200                	addi	s0,sp,256
    3dd0:	0034142f          	0x34142f
    3dd4:	0000                	unimp
    3dd6:	5f2d                	li	t5,-21
    3dd8:	3061                	0x3061
    3dda:	0200                	addi	s0,sp,256
    3ddc:	00341c2f          	0x341c2f
    3de0:	0000                	unimp
    3de2:	5f2d                	li	t5,-21
    3de4:	3161                	addiw	sp,sp,-8
    3de6:	0200                	addi	s0,sp,256
    3de8:	0034262f          	amoadd.w	a2,gp,(s0)
    3dec:	0000                	unimp
    3dee:	5f2d                	li	t5,-21
    3df0:	3261                	addiw	tp,tp,-8
    3df2:	0200                	addi	s0,sp,256
    3df4:	0034302f          	amoadd.d	zero,gp,(s0)
    3df8:	0000                	unimp
    3dfa:	5f2d                	li	t5,-21
    3dfc:	3361                	addiw	t1,t1,-8
    3dfe:	0200                	addi	s0,sp,256
    3e00:	00343a2f          	amoadd.d	s4,gp,(s0)
    3e04:	0000                	unimp
    3e06:	5f2d                	li	t5,-21
    3e08:	3461                	addiw	s0,s0,-8
    3e0a:	0200                	addi	s0,sp,256
    3e0c:	0034442f          	0x34442f
    3e10:	0000                	unimp
    3e12:	5f2d                	li	t5,-21
    3e14:	3561                	addiw	a0,a0,-8
    3e16:	0200                	addi	s0,sp,256
    3e18:	00344e2f          	0x344e2f
    3e1c:	0000                	unimp
    3e1e:	612e                	ld	sp,200(sp)
    3e20:	0030                	addi	a2,sp,8
    3e22:	3102                	fld	ft2,32(sp)
    3e24:	3408                	fld	fa0,40(s0)
    3e26:	0000                	unimp
    3e28:	0000                	unimp
    3e2a:	422c                	lw	a1,64(a2)
    3e2c:	000a                	c.slli	zero,0x2
    3e2e:	0200                	addi	s0,sp,256
    3e30:	0119                	addi	sp,sp,6
    3e32:	0034                	addi	a3,sp,8
    3e34:	0000                	unimp
    3e36:	000bb903          	ld	s2,0(s7)
    3e3a:	2d00                	fld	fs0,24(a0)
    3e3c:	006e                	c.slli	zero,0x1b
    3e3e:	1902                	slli	s2,s2,0x20
    3e40:	3419                	addiw	s0,s0,-26
    3e42:	0000                	unimp
    3e44:	2d00                	fld	fs0,24(a0)
    3e46:	615f 0030 1902      	0x19020030615f
    3e4c:	3421                	addiw	s0,s0,-24
    3e4e:	0000                	unimp
    3e50:	2d00                	fld	fs0,24(a0)
    3e52:	615f 0031 1902      	0x19020031615f
    3e58:	0000342b          	0x342b
    3e5c:	2d00                	fld	fs0,24(a0)
    3e5e:	615f 0032 1902      	0x19020032615f
    3e64:	3435                	addiw	s0,s0,-19
    3e66:	0000                	unimp
    3e68:	2d00                	fld	fs0,24(a0)
    3e6a:	615f 0033 1902      	0x19020033615f
    3e70:	0000343f 615f2d00 	0x615f2d000000343f
    3e78:	0034                	addi	a3,sp,8
    3e7a:	1902                	slli	s2,s2,0x20
    3e7c:	3449                	addiw	s0,s0,-14
    3e7e:	0000                	unimp
    3e80:	2d00                	fld	fs0,24(a0)
    3e82:	615f 0035 1902      	0x19020035615f
    3e88:	00003453          	fadd.s	fs0,ft0,ft0,rup
    3e8c:	2e00                	fld	fs0,24(a2)
    3e8e:	3061                	0x3061
    3e90:	0200                	addi	s0,sp,256
    3e92:	0034111b          	slliw	sp,s0,0x3
    3e96:	0000                	unimp
    3e98:	612e                	ld	sp,200(sp)
    3e9a:	0031                	c.nop	12
    3e9c:	1c02                	slli	s8,s8,0x20
    3e9e:	3411                	addiw	s0,s0,-28
    3ea0:	0000                	unimp
    3ea2:	2e00                	fld	fs0,24(a2)
    3ea4:	3261                	addiw	tp,tp,-8
    3ea6:	0200                	addi	s0,sp,256
    3ea8:	111d                	addi	sp,sp,-25
    3eaa:	0034                	addi	a3,sp,8
    3eac:	0000                	unimp
    3eae:	612e                	ld	sp,200(sp)
    3eb0:	1e020033          	0x1e020033
    3eb4:	3411                	addiw	s0,s0,-28
    3eb6:	0000                	unimp
    3eb8:	2e00                	fld	fs0,24(a2)
    3eba:	3461                	addiw	s0,s0,-8
    3ebc:	0200                	addi	s0,sp,256
    3ebe:	111f 0034 0000      	0x34111f
    3ec4:	612e                	ld	sp,200(sp)
    3ec6:	0035                	c.nop	13
    3ec8:	2002                	fld	ft0,0(sp)
    3eca:	3411                	addiw	s0,s0,-28
    3ecc:	0000                	unimp
    3ece:	2f00                	fld	fs0,24(a4)
    3ed0:	0a55                	addi	s4,s4,21
    3ed2:	0000                	unimp
    3ed4:	2502                	fld	fa0,0(sp)
    3ed6:	3411                	addiw	s0,s0,-28
    3ed8:	0000                	unimp
    3eda:	0000                	unimp
    3edc:	b62c                	fsd	fa1,104(a2)
    3ede:	000a                	c.slli	zero,0x2
    3ee0:	0200                	addi	s0,sp,256
    3ee2:	0112                	slli	sp,sp,0x4
    3ee4:	0034                	addi	a3,sp,8
    3ee6:	0000                	unimp
    3ee8:	000bd603          	lhu	a2,0(s7)
    3eec:	2d00                	fld	fs0,24(a0)
    3eee:	3061                	0x3061
    3ef0:	0200                	addi	s0,sp,256
    3ef2:	1612                	slli	a2,a2,0x24
    3ef4:	0034                	addi	a3,sp,8
    3ef6:	0000                	unimp
    3ef8:	3000                	fld	fs0,32(s0)
    3efa:	0a60                	addi	s0,sp,284
    3efc:	0000                	unimp
    3efe:	0a60                	addi	s0,sp,284
    3f00:	0000                	unimp
    3f02:	000d0f07          	0xd0f07
    3f06:	0000096f          	jal	s2,3f06 <_start-0xc1aa>
    3f0a:	0004                	0x4
    3f0c:	0ef6                	slli	t4,t4,0x1d
    3f0e:	0000                	unimp
    3f10:	0108                	addi	a0,sp,128
    3f12:	0000019b          	sext.w	gp,zero
    3f16:	840c                	0x840c
    3f18:	1b00000b          	0x1b00000b
    3f1c:	6600000b          	0x6600000b
    3f20:	0104                	addi	s1,sp,128
    3f22:	0000                	unimp
    3f24:	0000                	unimp
    3f26:	0600                	addi	s0,sp,768
    3f28:	0000                	unimp
    3f2a:	0000                	unimp
    3f2c:	0000                	unimp
    3f2e:	d400                	sw	s0,40(s0)
    3f30:	02000013          	li	zero,32
    3f34:	0504                	addi	s1,sp,640
    3f36:	6e69                	lui	t3,0x1a
    3f38:	0074                	addi	a3,sp,12
    3f3a:	8c050803          	lb	a6,-1856(a0)
    3f3e:	0001                	nop
    3f40:	0300                	addi	s0,sp,384
    3f42:	0708                	addi	a0,sp,896
    3f44:	0000013b          	addw	sp,zero,zero
    3f48:	87050803          	lb	a6,-1936(a0)
    3f4c:	0001                	nop
    3f4e:	0300                	addi	s0,sp,384
    3f50:	0410                	addi	a2,sp,512
    3f52:	0374                	addi	a3,sp,396
    3f54:	0000                	unimp
    3f56:	4504                	lw	s1,8(a0)
    3f58:	02000003          	lb	zero,32(zero) # 20 <_start-0x10090>
    3f5c:	015e                	slli	sp,sp,0x17
    3f5e:	00005d17          	auipc	s10,0x5
    3f62:	0300                	addi	s0,sp,384
    3f64:	0704                	addi	s1,sp,896
    3f66:	0140                	addi	s0,sp,132
    3f68:	0000                	unimp
    3f6a:	3d060103          	lb	sp,976(a2) # 14ed6 <__global_pointer$+0x3256>
    3f6e:	0004                	0x4
    3f70:	0300                	addi	s0,sp,384
    3f72:	0801                	addi	a6,a6,0
    3f74:	0000043b          	addw	s0,zero,zero
    3f78:	57050203          	lb	tp,1392(a0)
    3f7c:	0004                	0x4
    3f7e:	0300                	addi	s0,sp,384
    3f80:	0702                	c.slli64	a4
    3f82:	0302                	c.slli64	t1
    3f84:	0000                	unimp
    3f86:	0f05                	addi	t5,t5,1
    3f88:	0004                	0x4
    3f8a:	0300                	addi	s0,sp,384
    3f8c:	0e2e                	slli	t3,t3,0xb
    3f8e:	0034                	addi	a3,sp,8
    3f90:	0000                	unimp
    3f92:	1305                	addi	t1,t1,-31
    3f94:	0005                	c.nop	1
    3f96:	0300                	addi	s0,sp,384
    3f98:	0e74                	addi	a3,sp,796
    3f9a:	0034                	addi	a3,sp,8
    3f9c:	0000                	unimp
    3f9e:	a705                	j	46be <_start-0xb9f2>
    3fa0:	0005                	c.nop	1
    3fa2:	0300                	addi	s0,sp,384
    3fa4:	00341793          	slli	a5,s0,0x3
    3fa8:	0000                	unimp
    3faa:	0406                	slli	s0,s0,0x1
    3fac:	c603a503          	lw	a0,-928(t2)
    3fb0:	0000                	unimp
    3fb2:	0700                	addi	s0,sp,896
    3fb4:	0000033f 500ca703 	0x500ca7030000033f
    3fbc:	0000                	unimp
    3fbe:	0700                	addi	s0,sp,896
    3fc0:	02de                	slli	t0,t0,0x17
    3fc2:	0000                	unimp
    3fc4:	c613a803          	lw	a6,-927(t2)
    3fc8:	0000                	unimp
    3fca:	0000                	unimp
    3fcc:	6b08                	ld	a0,16(a4)
    3fce:	0000                	unimp
    3fd0:	d600                	sw	s0,40(a2)
    3fd2:	0000                	unimp
    3fd4:	0900                	addi	s0,sp,144
    3fd6:	0000003b          	addw	zero,zero,zero
    3fda:	080a0003          	lb	zero,128(s4) # 2eade <__global_pointer$+0x1ce5e>
    3fde:	fa09a203          	lw	tp,-96(s3)
    3fe2:	0000                	unimp
    3fe4:	0b00                	addi	s0,sp,400
    3fe6:	04fd                	addi	s1,s1,31
    3fe8:	0000                	unimp
    3fea:	2d07a403          	lw	s0,720(a5)
    3fee:	0000                	unimp
    3ff0:	0000                	unimp
    3ff2:	0005050b          	0x5050b
    3ff6:	0300                	addi	s0,sp,384
    3ff8:	05a9                	addi	a1,a1,10
    3ffa:	00a4                	addi	s1,sp,72
    3ffc:	0000                	unimp
    3ffe:	0004                	0x4
    4000:	7f05                	lui	t5,0xfffe1
    4002:	0004                	0x4
    4004:	0300                	addi	s0,sp,384
    4006:	03aa                	slli	t2,t2,0xa
    4008:	00d6                	slli	ra,ra,0x15
    400a:	0000                	unimp
    400c:	080c                	addi	a1,sp,16
    400e:	5d05                	li	s10,-31
    4010:	0005                	c.nop	1
    4012:	0400                	addi	s0,sp,512
    4014:	1919                	addi	s2,s2,-26
    4016:	005d                	c.nop	23
    4018:	0000                	unimp
    401a:	2905                	addiw	s2,s2,1
    401c:	0004                	0x4
    401e:	0500                	addi	s0,sp,640
    4020:	0d0c                	addi	a1,sp,656
    4022:	002d                	c.nop	11
    4024:	0000                	unimp
    4026:	a105                	j	4446 <_start-0xbc6a>
    4028:	0002                	c.slli64	zero
    402a:	0400                	addi	s0,sp,512
    402c:	01141b23          	sh	a7,22(s0) # 43828 <__global_pointer$+0x31ba8>
    4030:	0000                	unimp
    4032:	b20d                	j	3954 <_start-0xc75c>
    4034:	0002                	c.slli64	zero
    4036:	2000                	fld	fs0,0(s0)
    4038:	3404                	fld	fs1,40(s0)
    403a:	8608                	0x8608
    403c:	0001                	nop
    403e:	0b00                	addi	s0,sp,400
    4040:	04a0                	addi	s0,sp,584
    4042:	0000                	unimp
    4044:	3604                	fld	fs1,40(a2)
    4046:	00018613          	mv	a2,gp
    404a:	0000                	unimp
    404c:	5f0e                	lw	t5,224(sp)
    404e:	3704006b          	0x3704006b
    4052:	00002d07          	flw	fs10,0(zero) # 0 <_start-0x100b0>
    4056:	0800                	addi	s0,sp,16
    4058:	0004e80b          	0x4e80b
    405c:	0400                	addi	s0,sp,512
    405e:	002d0b37          	lui	s6,0x2d0
    4062:	0000                	unimp
    4064:	0b0c                	addi	a1,sp,400
    4066:	0000029b          	sext.w	t0,zero
    406a:	3704                	fld	fs1,40(a4)
    406c:	2d14                	fld	fa3,24(a0)
    406e:	0000                	unimp
    4070:	1000                	addi	s0,sp,32
    4072:	0005920b          	0x5920b
    4076:	0400                	addi	s0,sp,512
    4078:	002d1b37          	lui	s6,0x2d1
    407c:	0000                	unimp
    407e:	0e14                	addi	a3,sp,784
    4080:	785f 0400 0b38      	0xb380400785f
    4086:	018c                	addi	a1,sp,192
    4088:	0000                	unimp
    408a:	0018                	0x18
    408c:	012c080f          	0x12c080f
    4090:	0000                	unimp
    4092:	0808                	addi	a0,sp,16
    4094:	0001                	nop
    4096:	9c00                	0x9c00
    4098:	0001                	nop
    409a:	0900                	addi	s0,sp,144
    409c:	0000003b          	addw	zero,zero,zero
    40a0:	0000                	unimp
    40a2:	d90d                	beqz	a0,3fd4 <_start-0xc0dc>
    40a4:	0002                	c.slli64	zero
    40a6:	2400                	fld	fs0,8(s0)
    40a8:	3c04                	fld	fs1,56(s0)
    40aa:	1f08                	addi	a0,sp,944
    40ac:	0002                	c.slli64	zero
    40ae:	0b00                	addi	s0,sp,400
    40b0:	017e                	slli	sp,sp,0x1f
    40b2:	0000                	unimp
    40b4:	3e04                	fld	fs1,56(a2)
    40b6:	2d09                	addiw	s10,s10,2
    40b8:	0000                	unimp
    40ba:	0000                	unimp
    40bc:	00051b0b          	0x51b0b
    40c0:	0400                	addi	s0,sp,512
    40c2:	002d093f 0b040000 	0xb040000002d093f
    40ca:	01ff                	0x1ff
    40cc:	0000                	unimp
    40ce:	4004                	lw	s1,0(s0)
    40d0:	2d09                	addiw	s10,s10,2
    40d2:	0000                	unimp
    40d4:	0800                	addi	s0,sp,16
    40d6:	00061a0b          	0x61a0b
    40da:	0400                	addi	s0,sp,512
    40dc:	0941                	addi	s2,s2,16
    40de:	002d                	c.nop	11
    40e0:	0000                	unimp
    40e2:	0b0c                	addi	a1,sp,400
    40e4:	03f1                	addi	t2,t2,28
    40e6:	0000                	unimp
    40e8:	4204                	lw	s1,0(a2)
    40ea:	2d09                	addiw	s10,s10,2
    40ec:	0000                	unimp
    40ee:	1000                	addi	s0,sp,32
    40f0:	0003610b          	0x3610b
    40f4:	0400                	addi	s0,sp,512
    40f6:	002d0943          	fmadd.s	fs2,fs10,ft2,ft0,rne
    40fa:	0000                	unimp
    40fc:	0b14                	addi	a3,sp,400
    40fe:	00000597          	auipc	a1,0x0
    4102:	4404                	lw	s1,8(s0)
    4104:	2d09                	addiw	s10,s10,2
    4106:	0000                	unimp
    4108:	1800                	addi	s0,sp,48
    410a:	0004610b          	0x4610b
    410e:	0400                	addi	s0,sp,512
    4110:	0945                	addi	s2,s2,17
    4112:	002d                	c.nop	11
    4114:	0000                	unimp
    4116:	0b1c                	addi	a5,sp,400
    4118:	05d2                	slli	a1,a1,0x14
    411a:	0000                	unimp
    411c:	4604                	lw	s1,8(a2)
    411e:	2d09                	addiw	s10,s10,2
    4120:	0000                	unimp
    4122:	2000                	fld	fs0,0(s0)
    4124:	1000                	addi	s0,sp,32
    4126:	020e                	slli	tp,tp,0x3
    4128:	0000                	unimp
    412a:	0208                	addi	a0,sp,256
    412c:	4f04                	lw	s1,24(a4)
    412e:	6508                	ld	a0,8(a0)
    4130:	0002                	c.slli64	zero
    4132:	0b00                	addi	s0,sp,400
    4134:	028e                	slli	t0,t0,0x3
    4136:	0000                	unimp
    4138:	5004                	lw	s1,32(s0)
    413a:	650a                	ld	a0,128(sp)
    413c:	0002                	c.slli64	zero
    413e:	0000                	unimp
    4140:	b011                	j	3944 <_start-0xc76c>
    4142:	0000                	unimp
    4144:	0400                	addi	s0,sp,512
    4146:	0951                	addi	s2,s2,20
    4148:	0265                	addi	tp,tp,25
    414a:	0000                	unimp
    414c:	0100                	addi	s0,sp,128
    414e:	4311                	li	t1,4
    4150:	0005                	c.nop	1
    4152:	0400                	addi	s0,sp,512
    4154:	01080a53          	fadd.s	fs4,fa6,fa6,rne
    4158:	0000                	unimp
    415a:	0200                	addi	s0,sp,256
    415c:	3311                	addiw	t1,t1,-28
    415e:	0002                	c.slli64	zero
    4160:	0400                	addi	s0,sp,512
    4162:	0a56                	slli	s4,s4,0x15
    4164:	0108                	addi	a0,sp,128
    4166:	0000                	unimp
    4168:	0204                	addi	s1,sp,256
    416a:	0800                	addi	s0,sp,16
    416c:	0106                	slli	sp,sp,0x1
    416e:	0000                	unimp
    4170:	0275                	addi	tp,tp,29
    4172:	0000                	unimp
    4174:	3b09                	addiw	s6,s6,-30
    4176:	0000                	unimp
    4178:	1f00                	addi	s0,sp,944
    417a:	1000                	addi	s0,sp,32
    417c:	0550                	addi	a2,sp,644
    417e:	0000                	unimp
    4180:	0318                	addi	a4,sp,384
    4182:	6204                	ld	s1,0(a2)
    4184:	b908                	fsd	fa0,48(a0)
    4186:	0002                	c.slli64	zero
    4188:	0b00                	addi	s0,sp,400
    418a:	04a0                	addi	s0,sp,584
    418c:	0000                	unimp
    418e:	6304                	ld	s1,0(a4)
    4190:	b912                	fsd	ft4,176(sp)
    4192:	0002                	c.slli64	zero
    4194:	0000                	unimp
    4196:	0004b80b          	0x4b80b
    419a:	0400                	addi	s0,sp,512
    419c:	0664                	addi	s1,sp,780
    419e:	002d                	c.nop	11
    41a0:	0000                	unimp
    41a2:	0b08                	addi	a0,sp,400
    41a4:	0296                	slli	t0,t0,0x5
    41a6:	0000                	unimp
    41a8:	6604                	ld	s1,8(a2)
    41aa:	bf09                	j	40bc <_start-0xbff4>
    41ac:	0002                	c.slli64	zero
    41ae:	1000                	addi	s0,sp,32
    41b0:	0e11                	addi	t3,t3,4
    41b2:	0002                	c.slli64	zero
    41b4:	0400                	addi	s0,sp,512
    41b6:	021f1e67          	0x21f1e67
    41ba:	0000                	unimp
    41bc:	0110                	addi	a2,sp,128
    41be:	0f00                	addi	s0,sp,912
    41c0:	7508                	ld	a0,40(a0)
    41c2:	0002                	c.slli64	zero
    41c4:	0800                	addi	s0,sp,16
    41c6:	000002cf          	fnmadd.s	ft5,ft0,ft0,ft0,rne
    41ca:	000002cf          	fnmadd.s	ft5,ft0,ft0,ft0,rne
    41ce:	3b09                	addiw	s6,s6,-30
    41d0:	0000                	unimp
    41d2:	1f00                	addi	s0,sp,944
    41d4:	0f00                	addi	s0,sp,912
    41d6:	d508                	sw	a0,40(a0)
    41d8:	0002                	c.slli64	zero
    41da:	1200                	addi	s0,sp,288
    41dc:	6b0d                	lui	s6,0x3
    41de:	0004                	0x4
    41e0:	1000                	addi	s0,sp,32
    41e2:	7a04                	ld	s1,48(a2)
    41e4:	fe08                	sd	a0,56(a2)
    41e6:	0002                	c.slli64	zero
    41e8:	0b00                	addi	s0,sp,400
    41ea:	01f9                	addi	gp,gp,30
    41ec:	0000                	unimp
    41ee:	7b04                	ld	s1,48(a4)
    41f0:	fe11                	bnez	a2,410c <_start-0xbfa4>
    41f2:	0002                	c.slli64	zero
    41f4:	0000                	unimp
    41f6:	0000bc0b          	0xbc0b
    41fa:	0400                	addi	s0,sp,512
    41fc:	067c                	addi	a5,sp,780
    41fe:	002d                	c.nop	11
    4200:	0000                	unimp
    4202:	0008                	0x8
    4204:	006b080f          	0x6b080f
    4208:	0000                	unimp
    420a:	8a0d                	andi	a2,a2,3
    420c:	0004                	0x4
    420e:	b000                	fsd	fs0,32(s0)
    4210:	ba04                	fsd	fs1,48(a2)
    4212:	4708                	lw	a0,8(a4)
    4214:	0004                	0x4
    4216:	0e00                	addi	s0,sp,784
    4218:	705f 0400 12bb      	0x12bb0400705f
    421e:	02fe                	slli	t0,t0,0x1f
    4220:	0000                	unimp
    4222:	0e00                	addi	s0,sp,784
    4224:	725f 0400 07bc      	0x7bc0400725f
    422a:	002d                	c.nop	11
    422c:	0000                	unimp
    422e:	0e08                	addi	a0,sp,784
    4230:	775f 0400 07bd      	0x7bd0400775f
    4236:	002d                	c.nop	11
    4238:	0000                	unimp
    423a:	0b0c                	addi	a1,sp,400
    423c:	022c                	addi	a1,sp,264
    423e:	0000                	unimp
    4240:	be04                	fsd	fs1,56(a2)
    4242:	7209                	lui	tp,0xfffe2
    4244:	0000                	unimp
    4246:	1000                	addi	s0,sp,32
    4248:	0002f50b          	0x2f50b
    424c:	0400                	addi	s0,sp,512
    424e:	007209bf 0e120000 	0xe120000007209bf
    4256:	625f 0066 c004      	0xc0040066625f
    425c:	d611                	beqz	a2,4168 <_start-0xbf48>
    425e:	0002                	c.slli64	zero
    4260:	1800                	addi	s0,sp,48
    4262:	00014d0b          	0x14d0b
    4266:	0400                	addi	s0,sp,512
    4268:	07c1                	addi	a5,a5,16
    426a:	002d                	c.nop	11
    426c:	0000                	unimp
    426e:	0b28                	addi	a0,sp,408
    4270:	021c                	addi	a5,sp,256
    4272:	0000                	unimp
    4274:	c804                	sw	s1,16(s0)
    4276:	060a                	slli	a2,a2,0x2
    4278:	0001                	nop
    427a:	3000                	fld	fs0,32(s0)
    427c:	0002c90b          	0x2c90b
    4280:	0400                	addi	s0,sp,512
    4282:	1dca                	slli	s11,s11,0x32
    4284:	000005cb          	fnmsub.s	fa1,ft0,ft0,ft0,rne
    4288:	0b38                	addi	a4,sp,408
    428a:	035a                	slli	t1,t1,0x16
    428c:	0000                	unimp
    428e:	cc04                	sw	s1,24(s0)
    4290:	fa1d                	bnez	a2,41c6 <_start-0xbeea>
    4292:	0005                	c.nop	1
    4294:	4000                	lw	s0,0(s0)
    4296:	00050d0b          	0x50d0b
    429a:	0400                	addi	s0,sp,512
    429c:	061e0dcf          	fnmadd.q	fs11,ft8,ft1,ft0,rne
    42a0:	0000                	unimp
    42a2:	0b48                	addi	a0,sp,404
    42a4:	05ec                	addi	a1,sp,716
    42a6:	0000                	unimp
    42a8:	d004                	sw	s1,32(s0)
    42aa:	3809                	addiw	a6,a6,-30
    42ac:	0006                	c.slli	zero,0x1
    42ae:	5000                	lw	s0,32(s0)
    42b0:	5f0e                	lw	t5,224(sp)
    42b2:	6275                	lui	tp,0x1d
    42b4:	0400                	addi	s0,sp,512
    42b6:	02d611d3          	fadd.d	ft3,fa2,fa3,rtz
    42ba:	0000                	unimp
    42bc:	0e58                	addi	a4,sp,788
    42be:	755f 0070 d404      	0xd4040070755f
    42c4:	fe12                	sd	tp,312(sp)
    42c6:	0002                	c.slli64	zero
    42c8:	6800                	ld	s0,16(s0)
    42ca:	5f0e                	lw	t5,224(sp)
    42cc:	7275                	lui	tp,0xffffd
    42ce:	0400                	addi	s0,sp,512
    42d0:	07d5                	addi	a5,a5,21
    42d2:	002d                	c.nop	11
    42d4:	0000                	unimp
    42d6:	0b70                	addi	a2,sp,412
    42d8:	0195                	addi	gp,gp,5
    42da:	0000                	unimp
    42dc:	d804                	sw	s1,48(s0)
    42de:	3e11                	addiw	t3,t3,-28
    42e0:	0006                	c.slli	zero,0x1
    42e2:	7400                	ld	s0,40(s0)
    42e4:	0005c40b          	0x5c40b
    42e8:	0400                	addi	s0,sp,512
    42ea:	11d9                	addi	gp,gp,-10
    42ec:	064e                	slli	a2,a2,0x13
    42ee:	0000                	unimp
    42f0:	6c5f0e77          	0x6c5f0e77
    42f4:	0062                	c.slli	zero,0x18
    42f6:	dc04                	sw	s1,56(s0)
    42f8:	d611                	beqz	a2,4204 <_start-0xbeac>
    42fa:	0002                	c.slli64	zero
    42fc:	7800                	ld	s0,48(s0)
    42fe:	0002420b          	0x2420b
    4302:	0400                	addi	s0,sp,512
    4304:	07df 002d 0000      	0x2d07df
    430a:	0b88                	addi	a0,sp,464
    430c:	00000267          	jalr	tp,zero # 0 <_start-0x100b0>
    4310:	e004                	sd	s1,0(s0)
    4312:	800a                	c.mv	zero,sp
    4314:	0000                	unimp
    4316:	9000                	0x9000
    4318:	0007c60b          	0x7c60b
    431c:	0400                	addi	s0,sp,512
    431e:	046512e3          	bne	a0,t1,4b62 <_start-0xb54e>
    4322:	0000                	unimp
    4324:	0b98                	addi	a4,sp,464
    4326:	034c                	addi	a1,sp,388
    4328:	0000                	unimp
    432a:	e704                	sd	s1,8(a4)
    432c:	200c                	fld	fa1,0(s0)
    432e:	0001                	nop
    4330:	a000                	fsd	fs0,0(s0)
    4332:	0004920b          	0x4920b
    4336:	0400                	addi	s0,sp,512
    4338:	0ee9                	addi	t4,t4,26
    433a:	00fa                	slli	ra,ra,0x1e
    433c:	0000                	unimp
    433e:	0ba4                	addi	s1,sp,472
    4340:	0352                	slli	t1,t1,0x14
    4342:	0000                	unimp
    4344:	ea04                	sd	s1,16(a2)
    4346:	2d09                	addiw	s10,s10,2
    4348:	0000                	unimp
    434a:	ac00                	fsd	fs0,24(s0)
    434c:	1300                	addi	s0,sp,416
    434e:	0098                	addi	a4,sp,64
    4350:	0000                	unimp
    4352:	0465                	addi	s0,s0,25
    4354:	0000                	unimp
    4356:	6514                	ld	a3,8(a0)
    4358:	0004                	0x4
    435a:	1400                	addi	s0,sp,544
    435c:	0106                	slli	sp,sp,0x1
    435e:	0000                	unimp
    4360:	b914                	fsd	fa3,48(a0)
    4362:	0005                	c.nop	1
    4364:	1400                	addi	s0,sp,544
    4366:	002d                	c.nop	11
    4368:	0000                	unimp
    436a:	0f00                	addi	s0,sp,912
    436c:	7008                	ld	a0,32(s0)
    436e:	0004                	0x4
    4370:	1500                	addi	s0,sp,672
    4372:	0465                	addi	s0,s0,25
    4374:	0000                	unimp
    4376:	f016                	sd	t0,32(sp)
    4378:	0004                	0x4
    437a:	4800                	lw	s0,16(s0)
    437c:	02650407          	0x2650407
    4380:	b908                	fsd	fa0,48(a0)
    4382:	0005                	c.nop	1
    4384:	1700                	addi	s0,sp,928
    4386:	0a61                	addi	s4,s4,24
    4388:	0000                	unimp
    438a:	6704                	ld	s1,8(a4)
    438c:	0702                	c.slli64	a4
    438e:	002d                	c.nop	11
    4390:	0000                	unimp
    4392:	1700                	addi	s0,sp,928
    4394:	0000023b          	addw	tp,zero,zero
    4398:	6c04                	ld	s1,24(s0)
    439a:	0b02                	c.slli64	s6
    439c:	06aa                	slli	a3,a3,0xa
    439e:	0000                	unimp
    43a0:	1708                	addi	a0,sp,928
    43a2:	02e5                	addi	t0,t0,25
    43a4:	0000                	unimp
    43a6:	6c04                	ld	s1,24(s0)
    43a8:	1402                	slli	s0,s0,0x20
    43aa:	06aa                	slli	a3,a3,0xa
    43ac:	0000                	unimp
    43ae:	1710                	addi	a2,sp,928
    43b0:	02aa                	slli	t0,t0,0xa
    43b2:	0000                	unimp
    43b4:	6c04                	ld	s1,24(s0)
    43b6:	1e02                	slli	t3,t3,0x20
    43b8:	06aa                	slli	a3,a3,0xa
    43ba:	0000                	unimp
    43bc:	1718                	addi	a4,sp,928
    43be:	000004b3          	add	s1,zero,zero
    43c2:	6e04                	ld	s1,24(a2)
    43c4:	0802                	c.slli64	a6
    43c6:	002d                	c.nop	11
    43c8:	0000                	unimp
    43ca:	1720                	addi	s0,sp,936
    43cc:	0000010b          	0x10b
    43d0:	6f04                	ld	s1,24(a4)
    43d2:	0802                	c.slli64	a6
    43d4:	000008b3          	add	a7,zero,zero
    43d8:	1724                	addi	s1,sp,936
    43da:	000004cf          	fnmadd.s	fs1,ft0,ft0,ft0,rne
    43de:	7204                	ld	s1,32(a2)
    43e0:	0702                	c.slli64	a4
    43e2:	002d                	c.nop	11
    43e4:	0000                	unimp
    43e6:	1740                	addi	s0,sp,932
    43e8:	04bd                	addi	s1,s1,15
    43ea:	0000                	unimp
    43ec:	7304                	ld	s1,32(a4)
    43ee:	1602                	slli	a2,a2,0x20
    43f0:	08c8                	addi	a0,sp,84
    43f2:	0000                	unimp
    43f4:	1748                	addi	a0,sp,932
    43f6:	0404                	addi	s1,sp,512
    43f8:	0000                	unimp
    43fa:	7504                	ld	s1,40(a0)
    43fc:	0702                	c.slli64	a4
    43fe:	002d                	c.nop	11
    4400:	0000                	unimp
    4402:	1750                	addi	a2,sp,932
    4404:	04c5                	addi	s1,s1,17
    4406:	0000                	unimp
    4408:	7704                	ld	s1,40(a4)
    440a:	0a02                	c.slli64	s4
    440c:	08d9                	addi	a7,a7,22
    440e:	0000                	unimp
    4410:	1758                	addi	a4,sp,932
    4412:	00000337          	lui	t1,0x0
    4416:	7a04                	ld	s1,48(a2)
    4418:	1302                	slli	t1,t1,0x20
    441a:	0186                	slli	gp,gp,0x1
    441c:	0000                	unimp
    441e:	1760                	addi	s0,sp,940
    4420:	000002cf          	fnmadd.s	ft5,ft0,ft0,ft0,rne
    4424:	7b04                	ld	s1,48(a4)
    4426:	0702                	c.slli64	a4
    4428:	002d                	c.nop	11
    442a:	0000                	unimp
    442c:	1768                	addi	a0,sp,940
    442e:	0606                	slli	a2,a2,0x1
    4430:	0000                	unimp
    4432:	7c04                	ld	s1,56(s0)
    4434:	1302                	slli	t1,t1,0x20
    4436:	0186                	slli	gp,gp,0x1
    4438:	0000                	unimp
    443a:	1770                	addi	a2,sp,940
    443c:	041f 0000 7d04      	0x7d040000041f
    4442:	1402                	slli	s0,s0,0x20
    4444:	08df 0000 1778      	0x1778000008df
    444a:	02ed                	addi	t0,t0,27
    444c:	0000                	unimp
    444e:	8004                	0x8004
    4450:	0702                	c.slli64	a4
    4452:	002d                	c.nop	11
    4454:	0000                	unimp
    4456:	1780                	addi	s0,sp,992
    4458:	025f 0000 8104      	0x81040000025f
    445e:	0902                	c.slli64	s2
    4460:	05b9                	addi	a1,a1,14
    4462:	0000                	unimp
    4464:	1788                	addi	a0,sp,992
    4466:	0449                	addi	s0,s0,18
    4468:	0000                	unimp
    446a:	a404                	fsd	fs1,8(s0)
    446c:	0702                	c.slli64	a4
    446e:	088d                	addi	a7,a7,3
    4470:	0000                	unimp
    4472:	1890                	addi	a2,sp,112
    4474:	0550                	addi	a2,sp,644
    4476:	0000                	unimp
    4478:	a804                	fsd	fs1,16(s0)
    447a:	1302                	slli	t1,t1,0x20
    447c:	02b9                	addi	t0,t0,14
    447e:	0000                	unimp
    4480:	01f8                	addi	a4,sp,204
    4482:	1518                	addi	a4,sp,672
    4484:	04000003          	lb	zero,64(zero) # 40 <_start-0x10070>
    4488:	02a9                	addi	t0,t0,10
    448a:	7512                	ld	a0,288(sp)
    448c:	0002                	c.slli64	zero
    448e:	0000                	unimp
    4490:	1802                	slli	a6,a6,0x20
    4492:	05ba                	slli	a1,a1,0xe
    4494:	0000                	unimp
    4496:	ad04                	fsd	fs1,24(a0)
    4498:	0c02                	c.slli64	s8
    449a:	08f0                	addi	a2,sp,92
    449c:	0000                	unimp
    449e:	0518                	addi	a4,sp,640
    44a0:	2418                	fld	fa4,8(s0)
    44a2:	0002                	c.slli64	zero
    44a4:	0400                	addi	s0,sp,512
    44a6:	02b2                	slli	t0,t0,0xc
    44a8:	6b10                	ld	a2,16(a4)
    44aa:	0006                	c.slli	zero,0x1
    44ac:	2000                	fld	fs0,0(s0)
    44ae:	1805                	addi	a6,a6,-31
    44b0:	0209                	addi	tp,tp,2
    44b2:	0000                	unimp
    44b4:	b404                	fsd	fs1,40(s0)
    44b6:	0a02                	c.slli64	s4
    44b8:	08fc                	addi	a5,sp,92
    44ba:	0000                	unimp
    44bc:	0538                	addi	a4,sp,648
    44be:	0f00                	addi	s0,sp,912
    44c0:	bf08                	fsd	fa0,56(a4)
    44c2:	0005                	c.nop	1
    44c4:	0300                	addi	s0,sp,384
    44c6:	0801                	addi	a6,a6,0
    44c8:	0444                	addi	s1,sp,516
    44ca:	0000                	unimp
    44cc:	bf15                	j	4400 <_start-0xbcb0>
    44ce:	0005                	c.nop	1
    44d0:	0f00                	addi	s0,sp,912
    44d2:	4708                	lw	a0,8(a4)
    44d4:	0004                	0x4
    44d6:	1300                	addi	s0,sp,416
    44d8:	0098                	addi	a4,sp,64
    44da:	0000                	unimp
    44dc:	000005ef          	jal	a1,44dc <_start-0xbbd4>
    44e0:	6514                	ld	a3,8(a0)
    44e2:	0004                	0x4
    44e4:	1400                	addi	s0,sp,544
    44e6:	0106                	slli	sp,sp,0x1
    44e8:	0000                	unimp
    44ea:	ef14                	sd	a3,24(a4)
    44ec:	0005                	c.nop	1
    44ee:	1400                	addi	s0,sp,544
    44f0:	002d                	c.nop	11
    44f2:	0000                	unimp
    44f4:	0f00                	addi	s0,sp,912
    44f6:	c608                	sw	a0,8(a2)
    44f8:	0005                	c.nop	1
    44fa:	1500                	addi	s0,sp,672
    44fc:	000005ef          	jal	a1,44fc <_start-0xbbb4>
    4500:	05d1080f          	0x5d1080f
    4504:	0000                	unimp
    4506:	00008c13          	mv	s8,ra
    450a:	1e00                	addi	s0,sp,816
    450c:	0006                	c.slli	zero,0x1
    450e:	1400                	addi	s0,sp,544
    4510:	0465                	addi	s0,s0,25
    4512:	0000                	unimp
    4514:	0614                	addi	a3,sp,768
    4516:	0001                	nop
    4518:	1400                	addi	s0,sp,544
    451a:	008c                	addi	a1,sp,64
    451c:	0000                	unimp
    451e:	2d14                	fld	fa3,24(a0)
    4520:	0000                	unimp
    4522:	0000                	unimp
    4524:	0600080f          	0x600080f
    4528:	0000                	unimp
    452a:	00002d13          	slti	s10,zero,0
    452e:	3800                	fld	fs0,48(s0)
    4530:	0006                	c.slli	zero,0x1
    4532:	1400                	addi	s0,sp,544
    4534:	0465                	addi	s0,s0,25
    4536:	0000                	unimp
    4538:	0614                	addi	a3,sp,768
    453a:	0001                	nop
    453c:	0000                	unimp
    453e:	0624080f          	0x624080f
    4542:	0000                	unimp
    4544:	6b08                	ld	a0,16(a4)
    4546:	0000                	unimp
    4548:	4e00                	lw	s0,24(a2)
    454a:	0006                	c.slli	zero,0x1
    454c:	0900                	addi	s0,sp,144
    454e:	0000003b          	addw	zero,zero,zero
    4552:	0002                	c.slli64	zero
    4554:	6b08                	ld	a0,16(a4)
    4556:	0000                	unimp
    4558:	5e00                	lw	s0,56(a2)
    455a:	0006                	c.slli	zero,0x1
    455c:	0900                	addi	s0,sp,144
    455e:	0000003b          	addw	zero,zero,zero
    4562:	0000                	unimp
    4564:	7804                	ld	s1,48(s0)
    4566:	0004                	0x4
    4568:	0400                	addi	s0,sp,512
    456a:	0124                	addi	s1,sp,136
    456c:	041a                	slli	s0,s0,0x6
    456e:	19000003          	lb	zero,400(zero) # 190 <_start-0xff20>
    4572:	05a1                	addi	a1,a1,8
    4574:	0000                	unimp
    4576:	0418                	addi	a4,sp,512
    4578:	0128                	addi	a0,sp,136
    457a:	a408                	fsd	fa0,8(s0)
    457c:	0006                	c.slli	zero,0x1
    457e:	1700                	addi	s0,sp,928
    4580:	04a0                	addi	s0,sp,584
    4582:	0000                	unimp
    4584:	2a04                	fld	fs1,16(a2)
    4586:	1101                	addi	sp,sp,-32
    4588:	06a4                	addi	s1,sp,840
    458a:	0000                	unimp
    458c:	1700                	addi	s0,sp,928
    458e:	000002fb          	0x2fb
    4592:	2b04                	fld	fs1,16(a4)
    4594:	0701                	addi	a4,a4,0
    4596:	002d                	c.nop	11
    4598:	0000                	unimp
    459a:	1708                	addi	a0,sp,928
    459c:	0472                	slli	s0,s0,0x1c
    459e:	0000                	unimp
    45a0:	2c04                	fld	fs1,24(s0)
    45a2:	0b01                	addi	s6,s6,0
    45a4:	06aa                	slli	a3,a3,0xa
    45a6:	0000                	unimp
    45a8:	0010                	0x10
    45aa:	066b080f          	0x66b080f
    45ae:	0000                	unimp
    45b0:	065e080f          	0x65e080f
    45b4:	0000                	unimp
    45b6:	0319                	addi	t1,t1,6
    45b8:	0001                	nop
    45ba:	0e00                	addi	s0,sp,784
    45bc:	4404                	lw	s1,8(s0)
    45be:	0801                	addi	a6,a6,0
    45c0:	06e9                	addi	a3,a3,26
    45c2:	0000                	unimp
    45c4:	0004f717          	auipc	a4,0x4f
    45c8:	0400                	addi	s0,sp,512
    45ca:	0145                	addi	sp,sp,17
    45cc:	e912                	sd	tp,144(sp)
    45ce:	0006                	c.slli	zero,0x1
    45d0:	0000                	unimp
    45d2:	00052417          	auipc	s0,0x52
    45d6:	0400                	addi	s0,sp,512
    45d8:	0146                	slli	sp,sp,0x11
    45da:	e912                	sd	tp,144(sp)
    45dc:	0006                	c.slli	zero,0x1
    45de:	0600                	addi	s0,sp,768
    45e0:	00055817          	auipc	a6,0x55
    45e4:	0400                	addi	s0,sp,512
    45e6:	79120147          	fmsub.s	ft2,ft4,fa7,fa5,rne
    45ea:	0000                	unimp
    45ec:	0c00                	addi	s0,sp,528
    45ee:	0800                	addi	s0,sp,16
    45f0:	0079                	c.nop	30
    45f2:	0000                	unimp
    45f4:	06f9                	addi	a3,a3,30
    45f6:	0000                	unimp
    45f8:	3b09                	addiw	s6,s6,-30
    45fa:	0000                	unimp
    45fc:	0200                	addi	s0,sp,256
    45fe:	1a00                	addi	s0,sp,304
    4600:	04d8                	addi	a4,sp,580
    4602:	0285                	addi	t0,t0,1
    4604:	00080e07          	0x80e07
    4608:	1700                	addi	s0,sp,928
    460a:	0585                	addi	a1,a1,1
    460c:	0000                	unimp
    460e:	8704                	0x8704
    4610:	1802                	slli	a6,a6,0x20
    4612:	005d                	c.nop	23
    4614:	0000                	unimp
    4616:	1700                	addi	s0,sp,928
    4618:	052a                	slli	a0,a0,0xa
    461a:	0000                	unimp
    461c:	8804                	0x8804
    461e:	1202                	slli	tp,tp,0x20
    4620:	05b9                	addi	a1,a1,14
    4622:	0000                	unimp
    4624:	1708                	addi	a0,sp,928
    4626:	032a                	slli	t1,t1,0xa
    4628:	0000                	unimp
    462a:	8904                	0x8904
    462c:	1002                	c.slli	zero,0x20
    462e:	080e                	slli	a6,a6,0x3
    4630:	0000                	unimp
    4632:	1710                	addi	a2,sp,928
    4634:	05dd                	addi	a1,a1,23
    4636:	0000                	unimp
    4638:	8a04                	0x8a04
    463a:	1702                	slli	a4,a4,0x20
    463c:	019c                	addi	a5,sp,192
    463e:	0000                	unimp
    4640:	172c                	addi	a1,sp,936
    4642:	02ba                	slli	t0,t0,0xe
    4644:	0000                	unimp
    4646:	8b04                	0x8b04
    4648:	0f02                	c.slli64	t5
    464a:	002d                	c.nop	11
    464c:	0000                	unimp
    464e:	1750                	addi	a2,sp,932
    4650:	0000049b          	sext.w	s1,zero
    4654:	8c04                	0x8c04
    4656:	2c02                	fld	fs8,0(sp)
    4658:	081e                	slli	a6,a6,0x7
    465a:	0000                	unimp
    465c:	1758                	addi	a4,sp,932
    465e:	000005f3          	0x5f3
    4662:	8d04                	0x8d04
    4664:	1a02                	slli	s4,s4,0x20
    4666:	06b0                	addi	a2,sp,840
    4668:	0000                	unimp
    466a:	1760                	addi	s0,sp,940
    466c:	04a6                	slli	s1,s1,0x9
    466e:	0000                	unimp
    4670:	8e04                	0x8e04
    4672:	1602                	slli	a2,a2,0x20
    4674:	00fa                	slli	ra,ra,0x1e
    4676:	0000                	unimp
    4678:	1770                	addi	a2,sp,940
    467a:	05f8                	addi	a4,sp,716
    467c:	0000                	unimp
    467e:	8f04                	0x8f04
    4680:	1602                	slli	a2,a2,0x20
    4682:	00fa                	slli	ra,ra,0x1e
    4684:	0000                	unimp
    4686:	1778                	addi	a4,sp,940
    4688:	0170                	addi	a2,sp,140
    468a:	0000                	unimp
    468c:	9004                	0x9004
    468e:	1602                	slli	a2,a2,0x20
    4690:	00fa                	slli	ra,ra,0x1e
    4692:	0000                	unimp
    4694:	1780                	addi	s0,sp,992
    4696:	05b0                	addi	a2,sp,712
    4698:	0000                	unimp
    469a:	9104                	0x9104
    469c:	1002                	c.slli	zero,0x20
    469e:	0825                	addi	a6,a6,9
    46a0:	0000                	unimp
    46a2:	1788                	addi	a0,sp,992
    46a4:	031e                	slli	t1,t1,0x7
    46a6:	0000                	unimp
    46a8:	9204                	0x9204
    46aa:	1002                	c.slli	zero,0x20
    46ac:	0835                	addi	a6,a6,13
    46ae:	0000                	unimp
    46b0:	1790                	addi	a2,sp,992
    46b2:	0565                	addi	a0,a0,25
    46b4:	0000                	unimp
    46b6:	9304                	0x9304
    46b8:	0f02                	c.slli64	t5
    46ba:	002d                	c.nop	11
    46bc:	0000                	unimp
    46be:	17a8                	addi	a0,sp,1000
    46c0:	0280                	addi	s0,sp,320
    46c2:	0000                	unimp
    46c4:	9404                	0x9404
    46c6:	1602                	slli	a2,a2,0x20
    46c8:	00fa                	slli	ra,ra,0x1e
    46ca:	0000                	unimp
    46cc:	17ac                	addi	a1,sp,1000
    46ce:	0161                	addi	sp,sp,24
    46d0:	0000                	unimp
    46d2:	9504                	0x9504
    46d4:	1602                	slli	a2,a2,0x20
    46d6:	00fa                	slli	ra,ra,0x1e
    46d8:	0000                	unimp
    46da:	17b4                	addi	a3,sp,1000
    46dc:	0000026f          	jal	tp,46dc <_start-0xb9d4>
    46e0:	9604                	0x9604
    46e2:	1602                	slli	a2,a2,0x20
    46e4:	00fa                	slli	ra,ra,0x1e
    46e6:	0000                	unimp
    46e8:	17bc                	addi	a5,sp,1000
    46ea:	0116                	slli	sp,sp,0x5
    46ec:	0000                	unimp
    46ee:	9704                	0x9704
    46f0:	1602                	slli	a2,a2,0x20
    46f2:	00fa                	slli	ra,ra,0x1e
    46f4:	0000                	unimp
    46f6:	17c4                	addi	s1,sp,996
    46f8:	0125                	addi	sp,sp,9
    46fa:	0000                	unimp
    46fc:	9804                	0x9804
    46fe:	1602                	slli	a2,a2,0x20
    4700:	00fa                	slli	ra,ra,0x1e
    4702:	0000                	unimp
    4704:	17cc                	addi	a1,sp,996
    4706:	044e                	slli	s0,s0,0x13
    4708:	0000                	unimp
    470a:	9904                	0x9904
    470c:	0802                	c.slli64	a6
    470e:	002d                	c.nop	11
    4710:	0000                	unimp
    4712:	00d4                	addi	a3,sp,68
    4714:	bf08                	fsd	fa0,56(a4)
    4716:	0005                	c.nop	1
    4718:	1e00                	addi	s0,sp,816
    471a:	0008                	0x8
    471c:	0900                	addi	s0,sp,144
    471e:	0000003b          	addw	zero,zero,zero
    4722:	0019                	c.nop	6
    4724:	36070803          	lb	a6,864(a4) # 53924 <__global_pointer$+0x41ca4>
    4728:	0001                	nop
    472a:	0800                	addi	s0,sp,16
    472c:	000005bf 00000835 	0x835000005bf
    4734:	3b09                	addiw	s6,s6,-30
    4736:	0000                	unimp
    4738:	0700                	addi	s0,sp,896
    473a:	0800                	addi	s0,sp,16
    473c:	000005bf 00000845 	0x845000005bf
    4744:	3b09                	addiw	s6,s6,-30
    4746:	0000                	unimp
    4748:	1700                	addi	s0,sp,928
    474a:	1b00                	addi	s0,sp,432
    474c:	0168                	addi	a0,sp,140
    474e:	9e04                	0x9e04
    4750:	0702                	c.slli64	a4
    4752:	086d                	addi	a6,a6,27
    4754:	0000                	unimp
    4756:	00038017          	auipc	zero,0x38
    475a:	0400                	addi	s0,sp,512
    475c:	02a1                	addi	t0,t0,8
    475e:	00086d1b          	0x86d1b
    4762:	0000                	unimp
    4764:	00036b17          	auipc	s6,0x36
    4768:	0400                	addi	s0,sp,512
    476a:	02a2                	slli	t0,t0,0x8
    476c:	7d18                	ld	a4,56(a0)
    476e:	0008                	0x8
    4770:	f000                	sd	s0,32(s0)
    4772:	0800                	addi	s0,sp,16
    4774:	02fe                	slli	t0,t0,0x1f
    4776:	0000                	unimp
    4778:	087d                	addi	a6,a6,31
    477a:	0000                	unimp
    477c:	3b09                	addiw	s6,s6,-30
    477e:	0000                	unimp
    4780:	1d00                	addi	s0,sp,688
    4782:	0800                	addi	s0,sp,16
    4784:	005d                	c.nop	23
    4786:	0000                	unimp
    4788:	088d                	addi	a7,a7,3
    478a:	0000                	unimp
    478c:	3b09                	addiw	s6,s6,-30
    478e:	0000                	unimp
    4790:	1d00                	addi	s0,sp,688
    4792:	1c00                	addi	s0,sp,560
    4794:	0168                	addi	a0,sp,140
    4796:	8304                	0x8304
    4798:	0302                	c.slli64	t1
    479a:	000008b3          	add	a7,zero,zero
    479e:	f01d                	bnez	s0,46c4 <_start-0xb9ec>
    47a0:	0004                	0x4
    47a2:	0400                	addi	s0,sp,512
    47a4:	029a                	slli	t0,t0,0x6
    47a6:	0006f90b          	0x6f90b
    47aa:	1d00                	addi	s0,sp,688
    47ac:	05ca                	slli	a1,a1,0x12
    47ae:	0000                	unimp
    47b0:	a304                	fsd	fs1,0(a4)
    47b2:	0b02                	c.slli64	s6
    47b4:	0845                	addi	a6,a6,17
    47b6:	0000                	unimp
    47b8:	0800                	addi	s0,sp,16
    47ba:	000005bf 000008c3 	0x8c3000005bf
    47c2:	3b09                	addiw	s6,s6,-30
    47c4:	0000                	unimp
    47c6:	1800                	addi	s0,sp,48
    47c8:	1e00                	addi	s0,sp,816
    47ca:	0156                	slli	sp,sp,0x15
    47cc:	0000                	unimp
    47ce:	08c3080f          	0x8c3080f
    47d2:	0000                	unimp
    47d4:	d91f 0008 1400      	0x14000008d91f
    47da:	0465                	addi	s0,s0,25
    47dc:	0000                	unimp
    47de:	0f00                	addi	s0,sp,912
    47e0:	ce08                	sw	a0,24(a2)
    47e2:	0008                	0x8
    47e4:	0f00                	addi	s0,sp,912
    47e6:	8608                	0x8608
    47e8:	0001                	nop
    47ea:	1f00                	addi	s0,sp,944
    47ec:	08f0                	addi	a2,sp,92
    47ee:	0000                	unimp
    47f0:	2d14                	fld	fa3,24(a0)
    47f2:	0000                	unimp
    47f4:	0000                	unimp
    47f6:	08f6080f          	0x8f6080f
    47fa:	0000                	unimp
    47fc:	08e5080f          	0x8e5080f
    4800:	0000                	unimp
    4802:	5e08                	lw	a0,56(a2)
    4804:	0006                	c.slli	zero,0x1
    4806:	0c00                	addi	s0,sp,528
    4808:	0009                	c.nop	2
    480a:	0900                	addi	s0,sp,144
    480c:	0000003b          	addw	zero,zero,zero
    4810:	0002                	c.slli64	zero
    4812:	7920                	ld	s0,112(a0)
    4814:	0005                	c.nop	1
    4816:	0400                	addi	s0,sp,512
    4818:	65170333          	0x65170333
    481c:	0004                	0x4
    481e:	2000                	fld	fs0,0(s0)
    4820:	0572                	slli	a0,a0,0x1c
    4822:	0000                	unimp
    4824:	3404                	fld	fs1,40(s0)
    4826:	046b1d03          	lh	s10,70(s6) # 3a7aa <__global_pointer$+0x28b2a>
    482a:	0000                	unimp
    482c:	f508                	sd	a0,40(a0)
    482e:	0005                	c.nop	1
    4830:	3100                	fld	fs0,32(a0)
    4832:	0009                	c.nop	2
    4834:	2100                	fld	fs0,0(a0)
    4836:	1500                	addi	s0,sp,672
    4838:	0926                	slli	s2,s2,0x9
    483a:	0000                	unimp
    483c:	9b22                	add	s6,s6,s0
    483e:	000a                	c.slli	zero,0x2
    4840:	0600                	addi	s0,sp,768
    4842:	2414                	fld	fa3,8(s0)
    4844:	0931                	addi	s2,s2,12
    4846:	0000                	unimp
    4848:	1122                	slli	sp,sp,0x28
    484a:	0600000b          	0x600000b
    484e:	1515                	addi	a0,a0,-27
    4850:	002d                	c.nop	11
    4852:	0000                	unimp
    4854:	000a6023          	0xa6023
    4858:	0600                	addi	s0,sp,768
    485a:	096c0d0f          	0x96c0d0f
    485e:	0000                	unimp
    4860:	0466                	slli	s0,s0,0x19
    4862:	0001                	nop
    4864:	0000                	unimp
    4866:	0000                	unimp
    4868:	0006                	c.slli	zero,0x1
    486a:	0000                	unimp
    486c:	0000                	unimp
    486e:	0000                	unimp
    4870:	9c01                	subw	s0,s0,s0
    4872:	002d080f          	0x2d080f
    4876:	0000                	unimp
	...

Disassembly of section .debug_abbrev:

0000000000000000 <.debug_abbrev>:
       0:	1101                	addi	sp,sp,-32
       2:	1000                	addi	s0,sp,32
       4:	1106                	slli	sp,sp,0x21
       6:	1201                	addi	tp,tp,-32
       8:	0301                	addi	t1,t1,0
       a:	1b0e                	slli	s6,s6,0x23
       c:	250e                	fld	fa0,192(sp)
       e:	130e                	slli	t1,t1,0x23
      10:	0005                	c.nop	1
      12:	0000                	unimp
      14:	1101                	addi	sp,sp,-32
      16:	2501                	sext.w	a0,a0
      18:	130e                	slli	t1,t1,0x23
      1a:	1b0e030b          	0x1b0e030b
      1e:	110e                	slli	sp,sp,0x23
      20:	1201                	addi	tp,tp,-32
      22:	00171007          	0x171007
      26:	0200                	addi	s0,sp,256
      28:	0024                	addi	s1,sp,8
      2a:	0b3e0b0b          	0xb3e0b0b
      2e:	00000e03          	lb	t3,0(zero) # 0 <_start-0x100b0>
      32:	0b002403          	lw	s0,176(zero) # b0 <_start-0x10000>
      36:	030b3e0b          	0x30b3e0b
      3a:	0008                	0x8
      3c:	0400                	addi	s0,sp,512
      3e:	0016                	c.slli	zero,0x5
      40:	0b3a0e03          	lb	t3,179(s4)
      44:	0b39053b          	0xb39053b
      48:	1349                	addi	t1,t1,-14
      4a:	0000                	unimp
      4c:	1605                	addi	a2,a2,-31
      4e:	0300                	addi	s0,sp,384
      50:	3a0e                	fld	fs4,224(sp)
      52:	390b3b0b          	0x390b3b0b
      56:	0013490b          	0x13490b
      5a:	0600                	addi	s0,sp,768
      5c:	0b0b0117          	auipc	sp,0xb0b0
      60:	0b3a                	slli	s6,s6,0xe
      62:	0b390b3b          	0xb390b3b
      66:	1301                	addi	t1,t1,-32
      68:	0000                	unimp
      6a:	03000d07          	0x3000d07
      6e:	3a0e                	fld	fs4,224(sp)
      70:	390b3b0b          	0x390b3b0b
      74:	0013490b          	0x13490b
      78:	0800                	addi	s0,sp,16
      7a:	0101                	addi	sp,sp,0
      7c:	1349                	addi	t1,t1,-14
      7e:	1301                	addi	t1,t1,-32
      80:	0000                	unimp
      82:	2109                	addiw	sp,sp,2
      84:	4900                	lw	s0,16(a0)
      86:	000b2f13          	slti	t5,s6,0
      8a:	0a00                	addi	s0,sp,272
      8c:	0b0b0113          	addi	sp,s6,176
      90:	0b3a                	slli	s6,s6,0xe
      92:	0b390b3b          	0xb390b3b
      96:	1301                	addi	t1,t1,-32
      98:	0000                	unimp
      9a:	03000d0b          	0x3000d0b
      9e:	3a0e                	fld	fs4,224(sp)
      a0:	390b3b0b          	0x390b3b0b
      a4:	3813490b          	0x3813490b
      a8:	0c00000b          	0xc00000b
      ac:	0b0b000f          	0xb0b000f
      b0:	0000                	unimp
      b2:	130d                	addi	t1,t1,-29
      b4:	0301                	addi	t1,t1,0
      b6:	0b0e                	slli	s6,s6,0x3
      b8:	3b0b3a0b          	0x3b0b3a0b
      bc:	010b390b          	0x10b390b
      c0:	0e000013          	li	zero,224
      c4:	000d                	c.nop	3
      c6:	0b3a0803          	lb	a6,179(s4)
      ca:	0b390b3b          	0xb390b3b
      ce:	1349                	addi	t1,t1,-14
      d0:	0b38                	addi	a4,sp,408
      d2:	0000                	unimp
      d4:	0b000f0f          	0xb000f0f
      d8:	0013490b          	0x13490b
      dc:	1000                	addi	s0,sp,32
      de:	0e030113          	addi	sp,t1,224 # e0 <_start-0xffd0>
      e2:	0b3a050b          	0xb3a050b
      e6:	0b390b3b          	0xb390b3b
      ea:	1301                	addi	t1,t1,-32
      ec:	0000                	unimp
      ee:	0d11                	addi	s10,s10,4
      f0:	0300                	addi	s0,sp,384
      f2:	3a0e                	fld	fs4,224(sp)
      f4:	390b3b0b          	0x390b3b0b
      f8:	3813490b          	0x3813490b
      fc:	0005                	c.nop	1
      fe:	1200                	addi	s0,sp,288
     100:	0015                	c.nop	5
     102:	00001927          	0x1927
     106:	27011513          	0x27011513
     10a:	4919                	li	s2,6
     10c:	00130113          	addi	sp,t1,1
     110:	1400                	addi	s0,sp,544
     112:	0005                	c.nop	1
     114:	1349                	addi	t1,t1,-14
     116:	0000                	unimp
     118:	2615                	addiw	a2,a2,5
     11a:	4900                	lw	s0,16(a0)
     11c:	16000013          	li	zero,352
     120:	0e030113          	addi	sp,t1,224
     124:	0b3a050b          	0xb3a050b
     128:	0b39053b          	0xb39053b
     12c:	1301                	addi	t1,t1,-32
     12e:	0000                	unimp
     130:	03000d17          	auipc	s10,0x3000
     134:	3a0e                	fld	fs4,224(sp)
     136:	39053b0b          	0x39053b0b
     13a:	3813490b          	0x3813490b
     13e:	1800000b          	0x1800000b
     142:	000d                	c.nop	3
     144:	0b3a0e03          	lb	t3,179(s4)
     148:	0b39053b          	0xb39053b
     14c:	1349                	addi	t1,t1,-14
     14e:	0538                	addi	a4,sp,648
     150:	0000                	unimp
     152:	1319                	addi	t1,t1,-26
     154:	0301                	addi	t1,t1,0
     156:	0b0e                	slli	s6,s6,0x3
     158:	3b0b3a0b          	0x3b0b3a0b
     15c:	3905                	addiw	s2,s2,-31
     15e:	0013010b          	0x13010b
     162:	1a00                	addi	s0,sp,304
     164:	0b0b0113          	addi	sp,s6,176
     168:	0b3a                	slli	s6,s6,0xe
     16a:	0b39053b          	0xb39053b
     16e:	1301                	addi	t1,t1,-32
     170:	0000                	unimp
     172:	0b01131b          	0xb01131b
     176:	3a05                	addiw	s4,s4,-31
     178:	39053b0b          	0x39053b0b
     17c:	0013010b          	0x13010b
     180:	1c00                	addi	s0,sp,560
     182:	050b0117          	auipc	sp,0x50b0
     186:	0b3a                	slli	s6,s6,0xe
     188:	0b39053b          	0xb39053b
     18c:	1301                	addi	t1,t1,-32
     18e:	0000                	unimp
     190:	0d1d                	addi	s10,s10,7
     192:	0300                	addi	s0,sp,384
     194:	3a0e                	fld	fs4,224(sp)
     196:	39053b0b          	0x39053b0b
     19a:	0013490b          	0x13490b
     19e:	1e00                	addi	s0,sp,816
     1a0:	0e030013          	addi	zero,t1,224
     1a4:	193c                	addi	a5,sp,184
     1a6:	0000                	unimp
     1a8:	151f 2701 0119      	0x1192701151f
     1ae:	20000013          	li	zero,512
     1b2:	0034                	addi	a3,sp,8
     1b4:	0b3a0e03          	lb	t3,179(s4)
     1b8:	0b39053b          	0xb39053b
     1bc:	1349                	addi	t1,t1,-14
     1be:	193c193f 34210000 	0x34210000193c193f
     1c6:	0300                	addi	s0,sp,384
     1c8:	3a0e                	fld	fs4,224(sp)
     1ca:	390b3b0b          	0x390b3b0b
     1ce:	3f13490b          	0x3f13490b
     1d2:	3c19                	addiw	s8,s8,-26
     1d4:	0019                	c.nop	6
     1d6:	2200                	fld	fs0,0(a2)
     1d8:	0104                	addi	s1,sp,128
     1da:	0b3e0e03          	lb	t3,179(t3) # 1a0b3 <__global_pointer$+0x8433>
     1de:	13490b0b          	0x13490b0b
     1e2:	0b3a                	slli	s6,s6,0xe
     1e4:	0b390b3b          	0xb390b3b
     1e8:	1301                	addi	t1,t1,-32
     1ea:	0000                	unimp
     1ec:	03002823          	sw	a6,48(zero) # 30 <_start-0x10080>
     1f0:	1c0e                	slli	s8,s8,0x23
     1f2:	2400000b          	0x2400000b
     1f6:	012e                	slli	sp,sp,0xb
     1f8:	0e03193f 0b3b0b3a 	0xb3b0b3a0e03193f
     200:	0b39                	addi	s6,s6,14
     202:	13491927          	0x13491927
     206:	0111                	addi	sp,sp,4
     208:	0712                	slli	a4,a4,0x4
     20a:	1840                	addi	s0,sp,52
     20c:	01194297          	auipc	t0,0x1194
     210:	25000013          	li	zero,592
     214:	0005                	c.nop	1
     216:	0b3a0803          	lb	a6,179(s4)
     21a:	0b390b3b          	0xb390b3b
     21e:	1349                	addi	t1,t1,-14
     220:	1702                	slli	a4,a4,0x20
     222:	0000                	unimp
     224:	8926                	mv	s2,s1
     226:	0182                	c.slli64	gp
     228:	1101                	addi	sp,sp,-32
     22a:	9501                	srai	a0,a0,0x20
     22c:	1942                	slli	s2,s2,0x30
     22e:	1331                	addi	t1,t1,-20
     230:	0000                	unimp
     232:	01828a27          	0x1828a27
     236:	0200                	addi	s0,sp,256
     238:	9118                	0x9118
     23a:	1842                	slli	a6,a6,0x30
     23c:	0000                	unimp
     23e:	2e28                	fld	fa0,88(a2)
     240:	3f00                	fld	fs0,56(a4)
     242:	3c19                	addiw	s8,s8,-26
     244:	6e19                	lui	t3,0x6
     246:	030e                	slli	t1,t1,0x3
     248:	3a0e                	fld	fs4,224(sp)
     24a:	390b3b0b          	0x390b3b0b
     24e:	0000000b          	0xb
     252:	1101                	addi	sp,sp,-32
     254:	2501                	sext.w	a0,a0
     256:	130e                	slli	t1,t1,0x23
     258:	1b0e030b          	0x1b0e030b
     25c:	110e                	slli	sp,sp,0x23
     25e:	1201                	addi	tp,tp,-32
     260:	00171007          	0x171007
     264:	0200                	addi	s0,sp,256
     266:	0024                	addi	s1,sp,8
     268:	0b3e0b0b          	0xb3e0b0b
     26c:	00000e03          	lb	t3,0(zero) # 0 <_start-0x100b0>
     270:	0b002403          	lw	s0,176(zero) # b0 <_start-0x10000>
     274:	030b3e0b          	0x30b3e0b
     278:	0008                	0x8
     27a:	0400                	addi	s0,sp,512
     27c:	0016                	c.slli	zero,0x5
     27e:	0b3a0e03          	lb	t3,179(s4)
     282:	0b39053b          	0xb39053b
     286:	1349                	addi	t1,t1,-14
     288:	0000                	unimp
     28a:	1605                	addi	a2,a2,-31
     28c:	0300                	addi	s0,sp,384
     28e:	3a0e                	fld	fs4,224(sp)
     290:	390b3b0b          	0x390b3b0b
     294:	0013490b          	0x13490b
     298:	0600                	addi	s0,sp,768
     29a:	0b0b0117          	auipc	sp,0xb0b0
     29e:	0b3a                	slli	s6,s6,0xe
     2a0:	0b390b3b          	0xb390b3b
     2a4:	1301                	addi	t1,t1,-32
     2a6:	0000                	unimp
     2a8:	03000d07          	0x3000d07
     2ac:	3a0e                	fld	fs4,224(sp)
     2ae:	390b3b0b          	0x390b3b0b
     2b2:	0013490b          	0x13490b
     2b6:	0800                	addi	s0,sp,16
     2b8:	0101                	addi	sp,sp,0
     2ba:	1349                	addi	t1,t1,-14
     2bc:	1301                	addi	t1,t1,-32
     2be:	0000                	unimp
     2c0:	2109                	addiw	sp,sp,2
     2c2:	4900                	lw	s0,16(a0)
     2c4:	000b2f13          	slti	t5,s6,0
     2c8:	0a00                	addi	s0,sp,272
     2ca:	0b0b0113          	addi	sp,s6,176
     2ce:	0b3a                	slli	s6,s6,0xe
     2d0:	0b390b3b          	0xb390b3b
     2d4:	1301                	addi	t1,t1,-32
     2d6:	0000                	unimp
     2d8:	03000d0b          	0x3000d0b
     2dc:	3a0e                	fld	fs4,224(sp)
     2de:	390b3b0b          	0x390b3b0b
     2e2:	3813490b          	0x3813490b
     2e6:	0c00000b          	0xc00000b
     2ea:	0b0b000f          	0xb0b000f
     2ee:	0000                	unimp
     2f0:	130d                	addi	t1,t1,-29
     2f2:	0301                	addi	t1,t1,0
     2f4:	0b0e                	slli	s6,s6,0x3
     2f6:	3b0b3a0b          	0x3b0b3a0b
     2fa:	010b390b          	0x10b390b
     2fe:	0e000013          	li	zero,224
     302:	000d                	c.nop	3
     304:	0b3a0803          	lb	a6,179(s4)
     308:	0b390b3b          	0xb390b3b
     30c:	1349                	addi	t1,t1,-14
     30e:	0b38                	addi	a4,sp,408
     310:	0000                	unimp
     312:	0b000f0f          	0xb000f0f
     316:	0013490b          	0x13490b
     31a:	1000                	addi	s0,sp,32
     31c:	0e030113          	addi	sp,t1,224
     320:	0b3a050b          	0xb3a050b
     324:	0b390b3b          	0xb390b3b
     328:	1301                	addi	t1,t1,-32
     32a:	0000                	unimp
     32c:	0d11                	addi	s10,s10,4
     32e:	0300                	addi	s0,sp,384
     330:	3a0e                	fld	fs4,224(sp)
     332:	390b3b0b          	0x390b3b0b
     336:	3813490b          	0x3813490b
     33a:	0005                	c.nop	1
     33c:	1200                	addi	s0,sp,288
     33e:	0015                	c.nop	5
     340:	00001927          	0x1927
     344:	27011513          	0x27011513
     348:	4919                	li	s2,6
     34a:	00130113          	addi	sp,t1,1
     34e:	1400                	addi	s0,sp,544
     350:	0005                	c.nop	1
     352:	1349                	addi	t1,t1,-14
     354:	0000                	unimp
     356:	2615                	addiw	a2,a2,5
     358:	4900                	lw	s0,16(a0)
     35a:	16000013          	li	zero,352
     35e:	0e030113          	addi	sp,t1,224
     362:	0b3a050b          	0xb3a050b
     366:	0b39053b          	0xb39053b
     36a:	1301                	addi	t1,t1,-32
     36c:	0000                	unimp
     36e:	03000d17          	auipc	s10,0x3000
     372:	3a0e                	fld	fs4,224(sp)
     374:	39053b0b          	0x39053b0b
     378:	3813490b          	0x3813490b
     37c:	1800000b          	0x1800000b
     380:	000d                	c.nop	3
     382:	0b3a0e03          	lb	t3,179(s4)
     386:	0b39053b          	0xb39053b
     38a:	1349                	addi	t1,t1,-14
     38c:	0538                	addi	a4,sp,648
     38e:	0000                	unimp
     390:	1319                	addi	t1,t1,-26
     392:	0301                	addi	t1,t1,0
     394:	0b0e                	slli	s6,s6,0x3
     396:	3b0b3a0b          	0x3b0b3a0b
     39a:	3905                	addiw	s2,s2,-31
     39c:	0013010b          	0x13010b
     3a0:	1a00                	addi	s0,sp,304
     3a2:	0b0b0113          	addi	sp,s6,176
     3a6:	0b3a                	slli	s6,s6,0xe
     3a8:	0b39053b          	0xb39053b
     3ac:	1301                	addi	t1,t1,-32
     3ae:	0000                	unimp
     3b0:	0b01131b          	0xb01131b
     3b4:	3a05                	addiw	s4,s4,-31
     3b6:	39053b0b          	0x39053b0b
     3ba:	0013010b          	0x13010b
     3be:	1c00                	addi	s0,sp,560
     3c0:	050b0117          	auipc	sp,0x50b0
     3c4:	0b3a                	slli	s6,s6,0xe
     3c6:	0b39053b          	0xb39053b
     3ca:	1301                	addi	t1,t1,-32
     3cc:	0000                	unimp
     3ce:	0d1d                	addi	s10,s10,7
     3d0:	0300                	addi	s0,sp,384
     3d2:	3a0e                	fld	fs4,224(sp)
     3d4:	39053b0b          	0x39053b0b
     3d8:	0013490b          	0x13490b
     3dc:	1e00                	addi	s0,sp,816
     3de:	0e030013          	addi	zero,t1,224
     3e2:	193c                	addi	a5,sp,184
     3e4:	0000                	unimp
     3e6:	151f 2701 0119      	0x1192701151f
     3ec:	20000013          	li	zero,512
     3f0:	0034                	addi	a3,sp,8
     3f2:	0b3a0e03          	lb	t3,179(s4)
     3f6:	0b39053b          	0xb39053b
     3fa:	1349                	addi	t1,t1,-14
     3fc:	193c193f 34210000 	0x34210000193c193f
     404:	0300                	addi	s0,sp,384
     406:	3a0e                	fld	fs4,224(sp)
     408:	390b3b0b          	0x390b3b0b
     40c:	3f13490b          	0x3f13490b
     410:	3c19                	addiw	s8,s8,-26
     412:	0019                	c.nop	6
     414:	2200                	fld	fs0,0(a2)
     416:	012e                	slli	sp,sp,0xb
     418:	0e03193f 0b3b0b3a 	0xb3b0b3a0e03193f
     420:	0b39                	addi	s6,s6,14
     422:	01871927          	0x1871927
     426:	1119                	addi	sp,sp,-26
     428:	1201                	addi	tp,tp,-32
     42a:	96184007          	flq	ft0,-1695(a6) # 58f41 <__global_pointer$+0x472c1>
     42e:	1942                	slli	s2,s2,0x30
     430:	1301                	addi	t1,t1,-32
     432:	0000                	unimp
     434:	03000523          	sb	a6,42(zero) # 2a <_start-0x10086>
     438:	3a0e                	fld	fs4,224(sp)
     43a:	390b3b0b          	0x390b3b0b
     43e:	0213490b          	0x213490b
     442:	24000017          	auipc	zero,0x24000
     446:	8289                	srli	a3,a3,0x2
     448:	0101                	addi	sp,sp,0
     44a:	0111                	addi	sp,sp,4
     44c:	1331                	addi	t1,t1,-20
     44e:	1301                	addi	t1,t1,-32
     450:	0000                	unimp
     452:	8a25                	andi	a2,a2,9
     454:	0182                	c.slli64	gp
     456:	0200                	addi	s0,sp,256
     458:	9118                	0x9118
     45a:	1842                	slli	a6,a6,0x30
     45c:	0000                	unimp
     45e:	8926                	mv	s2,s1
     460:	0182                	c.slli64	gp
     462:	1101                	addi	sp,sp,-32
     464:	3101                	addiw	sp,sp,-32
     466:	27000013          	li	zero,624
     46a:	002e                	c.slli	zero,0xb
     46c:	193c193f 0e030e6e 	0xe030e6e193c193f
     474:	0b3a                	slli	s6,s6,0xe
     476:	0b390b3b          	0xb390b3b
     47a:	0000                	unimp
     47c:	0100                	addi	s0,sp,128
     47e:	0111                	addi	sp,sp,4
     480:	0e25                	addi	t3,t3,9
     482:	0e030b13          	addi	s6,t1,224
     486:	01110e1b          	addiw	t3,sp,17
     48a:	0712                	slli	a4,a4,0x4
     48c:	1710                	addi	a2,sp,928
     48e:	0000                	unimp
     490:	2402                	fld	fs0,0(sp)
     492:	0b00                	addi	s0,sp,400
     494:	030b3e0b          	0x30b3e0b
     498:	000e                	c.slli	zero,0x3
     49a:	0300                	addi	s0,sp,384
     49c:	0024                	addi	s1,sp,8
     49e:	0b3e0b0b          	0xb3e0b0b
     4a2:	00000803          	lb	a6,0(zero) # 0 <_start-0x100b0>
     4a6:	1604                	addi	s1,sp,800
     4a8:	0300                	addi	s0,sp,384
     4aa:	3a0e                	fld	fs4,224(sp)
     4ac:	390b3b0b          	0x390b3b0b
     4b0:	0013490b          	0x13490b
     4b4:	0500                	addi	s0,sp,640
     4b6:	0101                	addi	sp,sp,0
     4b8:	1349                	addi	t1,t1,-14
     4ba:	1301                	addi	t1,t1,-32
     4bc:	0000                	unimp
     4be:	2106                	fld	ft2,64(sp)
     4c0:	0000                	unimp
     4c2:	0700                	addi	s0,sp,896
     4c4:	0b0b000f          	0xb0b000f
     4c8:	1349                	addi	t1,t1,-14
     4ca:	0000                	unimp
     4cc:	1508                	addi	a0,sp,672
     4ce:	2700                	fld	fs0,8(a4)
     4d0:	0019                	c.nop	6
     4d2:	0900                	addi	s0,sp,144
     4d4:	0034                	addi	a3,sp,8
     4d6:	0b3a0e03          	lb	t3,179(s4)
     4da:	0b390b3b          	0xb390b3b
     4de:	1349                	addi	t1,t1,-14
     4e0:	193c193f 2e0a0000 	0x2e0a0000193c193f
     4e8:	3f01                	addiw	t5,t5,-32
     4ea:	0319                	addi	t1,t1,6
     4ec:	3a0e                	fld	fs4,224(sp)
     4ee:	390b3b0b          	0x390b3b0b
     4f2:	1119270b          	0x1119270b
     4f6:	1201                	addi	tp,tp,-32
     4f8:	96184007          	flq	ft0,-1695(a6)
     4fc:	1942                	slli	s2,s2,0x30
     4fe:	0000                	unimp
     500:	0300340b          	0x300340b
     504:	3a0e                	fld	fs4,224(sp)
     506:	390b3b0b          	0x390b3b0b
     50a:	0213490b          	0x213490b
     50e:	0c000017          	auipc	zero,0xc000
     512:	0034                	addi	a3,sp,8
     514:	0b3a0803          	lb	a6,179(s4)
     518:	0b390b3b          	0xb390b3b
     51c:	1349                	addi	t1,t1,-14
     51e:	1702                	slli	a4,a4,0x20
     520:	0000                	unimp
     522:	0100                	addi	s0,sp,128
     524:	0111                	addi	sp,sp,4
     526:	0e25                	addi	t3,t3,9
     528:	0e030b13          	addi	s6,t1,224
     52c:	17100e1b          	addiw	t3,zero,369
     530:	0000                	unimp
     532:	2402                	fld	fs0,0(sp)
     534:	0b00                	addi	s0,sp,400
     536:	030b3e0b          	0x30b3e0b
     53a:	000e                	c.slli	zero,0x3
     53c:	0300                	addi	s0,sp,384
     53e:	0024                	addi	s1,sp,8
     540:	0b3e0b0b          	0xb3e0b0b
     544:	00000803          	lb	a6,0(zero) # 0 <_start-0x100b0>
     548:	1604                	addi	s1,sp,800
     54a:	0300                	addi	s0,sp,384
     54c:	3a0e                	fld	fs4,224(sp)
     54e:	39053b0b          	0x39053b0b
     552:	0013490b          	0x13490b
     556:	0500                	addi	s0,sp,640
     558:	0016                	c.slli	zero,0x5
     55a:	0b3a0e03          	lb	t3,179(s4)
     55e:	0b390b3b          	0xb390b3b
     562:	1349                	addi	t1,t1,-14
     564:	0000                	unimp
     566:	1706                	slli	a4,a4,0x21
     568:	0b01                	addi	s6,s6,0
     56a:	3b0b3a0b          	0x3b0b3a0b
     56e:	010b390b          	0x10b390b
     572:	07000013          	li	zero,112
     576:	000d                	c.nop	3
     578:	0b3a0e03          	lb	t3,179(s4)
     57c:	0b390b3b          	0xb390b3b
     580:	1349                	addi	t1,t1,-14
     582:	0000                	unimp
     584:	0108                	addi	a0,sp,128
     586:	4901                	li	s2,0
     588:	00130113          	addi	sp,t1,1
     58c:	0900                	addi	s0,sp,144
     58e:	0021                	c.nop	8
     590:	1349                	addi	t1,t1,-14
     592:	00000b2f          	0xb2f
     596:	130a                	slli	t1,t1,0x22
     598:	0b01                	addi	s6,s6,0
     59a:	3b0b3a0b          	0x3b0b3a0b
     59e:	010b390b          	0x10b390b
     5a2:	0b000013          	li	zero,176
     5a6:	000d                	c.nop	3
     5a8:	0b3a0e03          	lb	t3,179(s4)
     5ac:	0b390b3b          	0xb390b3b
     5b0:	1349                	addi	t1,t1,-14
     5b2:	0b38                	addi	a4,sp,408
     5b4:	0000                	unimp
     5b6:	0f0c                	addi	a1,sp,912
     5b8:	0b00                	addi	s0,sp,400
     5ba:	0d00000b          	0xd00000b
     5be:	0e030113          	addi	sp,t1,224
     5c2:	0b3a0b0b          	0xb3a0b0b
     5c6:	0b390b3b          	0xb390b3b
     5ca:	1301                	addi	t1,t1,-32
     5cc:	0000                	unimp
     5ce:	0d0e                	slli	s10,s10,0x3
     5d0:	0300                	addi	s0,sp,384
     5d2:	3a08                	fld	fa0,48(a2)
     5d4:	390b3b0b          	0x390b3b0b
     5d8:	3813490b          	0x3813490b
     5dc:	0f00000b          	0xf00000b
     5e0:	0b0b000f          	0xb0b000f
     5e4:	1349                	addi	t1,t1,-14
     5e6:	0000                	unimp
     5e8:	1310                	addi	a2,sp,416
     5ea:	0301                	addi	t1,t1,0
     5ec:	0b0e                	slli	s6,s6,0x3
     5ee:	3a05                	addiw	s4,s4,-31
     5f0:	390b3b0b          	0x390b3b0b
     5f4:	0013010b          	0x13010b
     5f8:	1100                	addi	s0,sp,160
     5fa:	000d                	c.nop	3
     5fc:	0b3a0e03          	lb	t3,179(s4)
     600:	0b390b3b          	0xb390b3b
     604:	1349                	addi	t1,t1,-14
     606:	0538                	addi	a4,sp,648
     608:	0000                	unimp
     60a:	1512                	slli	a0,a0,0x24
     60c:	2700                	fld	fs0,8(a4)
     60e:	0019                	c.nop	6
     610:	1300                	addi	s0,sp,416
     612:	0115                	addi	sp,sp,5
     614:	13491927          	0x13491927
     618:	1301                	addi	t1,t1,-32
     61a:	0000                	unimp
     61c:	0514                	addi	a3,sp,640
     61e:	4900                	lw	s0,16(a0)
     620:	15000013          	li	zero,336
     624:	0026                	c.slli	zero,0x9
     626:	1349                	addi	t1,t1,-14
     628:	0000                	unimp
     62a:	1316                	slli	t1,t1,0x25
     62c:	0301                	addi	t1,t1,0
     62e:	0b0e                	slli	s6,s6,0x3
     630:	3a05                	addiw	s4,s4,-31
     632:	39053b0b          	0x39053b0b
     636:	0013010b          	0x13010b
     63a:	1700                	addi	s0,sp,928
     63c:	000d                	c.nop	3
     63e:	0b3a0e03          	lb	t3,179(s4)
     642:	0b39053b          	0xb39053b
     646:	1349                	addi	t1,t1,-14
     648:	0b38                	addi	a4,sp,408
     64a:	0000                	unimp
     64c:	0d18                	addi	a4,sp,656
     64e:	0300                	addi	s0,sp,384
     650:	3a0e                	fld	fs4,224(sp)
     652:	39053b0b          	0x39053b0b
     656:	3813490b          	0x3813490b
     65a:	0005                	c.nop	1
     65c:	1900                	addi	s0,sp,176
     65e:	0e030113          	addi	sp,t1,224
     662:	0b3a0b0b          	0xb3a0b0b
     666:	0b39053b          	0xb39053b
     66a:	1301                	addi	t1,t1,-32
     66c:	0000                	unimp
     66e:	131a                	slli	t1,t1,0x26
     670:	0b01                	addi	s6,s6,0
     672:	3b0b3a0b          	0x3b0b3a0b
     676:	3905                	addiw	s2,s2,-31
     678:	0013010b          	0x13010b
     67c:	1b00                	addi	s0,sp,432
     67e:	050b0113          	addi	sp,s6,80
     682:	0b3a                	slli	s6,s6,0xe
     684:	0b39053b          	0xb39053b
     688:	1301                	addi	t1,t1,-32
     68a:	0000                	unimp
     68c:	171c                	addi	a5,sp,928
     68e:	0b01                	addi	s6,s6,0
     690:	3a05                	addiw	s4,s4,-31
     692:	39053b0b          	0x39053b0b
     696:	0013010b          	0x13010b
     69a:	1d00                	addi	s0,sp,688
     69c:	000d                	c.nop	3
     69e:	0b3a0e03          	lb	t3,179(s4)
     6a2:	0b39053b          	0xb39053b
     6a6:	1349                	addi	t1,t1,-14
     6a8:	0000                	unimp
     6aa:	131e                	slli	t1,t1,0x27
     6ac:	0300                	addi	s0,sp,384
     6ae:	3c0e                	fld	fs8,224(sp)
     6b0:	0019                	c.nop	6
     6b2:	1f00                	addi	s0,sp,944
     6b4:	0115                	addi	sp,sp,5
     6b6:	13011927          	0x13011927
     6ba:	0000                	unimp
     6bc:	3420                	fld	fs0,104(s0)
     6be:	0300                	addi	s0,sp,384
     6c0:	3a0e                	fld	fs4,224(sp)
     6c2:	39053b0b          	0x39053b0b
     6c6:	3f13490b          	0x3f13490b
     6ca:	3c19                	addiw	s8,s8,-26
     6cc:	0019                	c.nop	6
     6ce:	2100                	fld	fs0,0(a0)
     6d0:	0034                	addi	a3,sp,8
     6d2:	0b3a0e03          	lb	t3,179(s4)
     6d6:	0b390b3b          	0xb390b3b
     6da:	1349                	addi	t1,t1,-14
     6dc:	1802                	slli	a6,a6,0x20
     6de:	0000                	unimp
     6e0:	3422                	fld	fs0,40(sp)
     6e2:	4700                	lw	s0,8(a4)
     6e4:	00180213          	addi	tp,a6,1
     6e8:	0000                	unimp
     6ea:	1101                	addi	sp,sp,-32
     6ec:	2501                	sext.w	a0,a0
     6ee:	130e                	slli	t1,t1,0x23
     6f0:	1b0e030b          	0x1b0e030b
     6f4:	110e                	slli	sp,sp,0x23
     6f6:	1201                	addi	tp,tp,-32
     6f8:	00171007          	0x171007
     6fc:	0200                	addi	s0,sp,256
     6fe:	0024                	addi	s1,sp,8
     700:	0b3e0b0b          	0xb3e0b0b
     704:	00000e03          	lb	t3,0(zero) # 0 <_start-0x100b0>
     708:	0b002403          	lw	s0,176(zero) # b0 <_start-0x10000>
     70c:	030b3e0b          	0x30b3e0b
     710:	0008                	0x8
     712:	0400                	addi	s0,sp,512
     714:	0016                	c.slli	zero,0x5
     716:	0b3a0e03          	lb	t3,179(s4)
     71a:	0b390b3b          	0xb390b3b
     71e:	1349                	addi	t1,t1,-14
     720:	0000                	unimp
     722:	0105                	addi	sp,sp,1
     724:	4901                	li	s2,0
     726:	00130113          	addi	sp,t1,1
     72a:	0600                	addi	s0,sp,768
     72c:	0021                	c.nop	8
     72e:	0000                	unimp
     730:	0b000f07          	0xb000f07
     734:	0013490b          	0x13490b
     738:	0800                	addi	s0,sp,16
     73a:	0015                	c.nop	5
     73c:	00001927          	0x1927
     740:	3409                	addiw	s0,s0,-30
     742:	0300                	addi	s0,sp,384
     744:	3a0e                	fld	fs4,224(sp)
     746:	390b3b0b          	0x390b3b0b
     74a:	3f13490b          	0x3f13490b
     74e:	3c19                	addiw	s8,s8,-26
     750:	0019                	c.nop	6
     752:	0a00                	addi	s0,sp,272
     754:	012e                	slli	sp,sp,0xb
     756:	0e03193f 0b3b0b3a 	0xb3b0b3a0e03193f
     75e:	0b39                	addi	s6,s6,14
     760:	01111927          	0x1111927
     764:	0712                	slli	a4,a4,0x4
     766:	1840                	addi	s0,sp,52
     768:	4296                	lw	t0,68(sp)
     76a:	0019                	c.nop	6
     76c:	0b00                	addi	s0,sp,400
     76e:	0034                	addi	a3,sp,8
     770:	0b3a0e03          	lb	t3,179(s4)
     774:	0b390b3b          	0xb390b3b
     778:	1349                	addi	t1,t1,-14
     77a:	1702                	slli	a4,a4,0x20
     77c:	0000                	unimp
     77e:	340c                	fld	fa1,40(s0)
     780:	0300                	addi	s0,sp,384
     782:	3a08                	fld	fa0,48(a2)
     784:	390b3b0b          	0x390b3b0b
     788:	0213490b          	0x213490b
     78c:	00000017          	auipc	zero,0x0
     790:	1101                	addi	sp,sp,-32
     792:	1000                	addi	s0,sp,32
     794:	1106                	slli	sp,sp,0x21
     796:	1201                	addi	tp,tp,-32
     798:	0301                	addi	t1,t1,0
     79a:	1b0e                	slli	s6,s6,0x23
     79c:	250e                	fld	fa0,192(sp)
     79e:	130e                	slli	t1,t1,0x23
     7a0:	0005                	c.nop	1
     7a2:	0000                	unimp
     7a4:	1101                	addi	sp,sp,-32
     7a6:	2501                	sext.w	a0,a0
     7a8:	130e                	slli	t1,t1,0x23
     7aa:	1b0e030b          	0x1b0e030b
     7ae:	110e                	slli	sp,sp,0x23
     7b0:	1201                	addi	tp,tp,-32
     7b2:	00171007          	0x171007
     7b6:	0200                	addi	s0,sp,256
     7b8:	0024                	addi	s1,sp,8
     7ba:	0b3e0b0b          	0xb3e0b0b
     7be:	00000e03          	lb	t3,0(zero) # 0 <_start-0x100b0>
     7c2:	0b002403          	lw	s0,176(zero) # b0 <_start-0x10000>
     7c6:	030b3e0b          	0x30b3e0b
     7ca:	0008                	0x8
     7cc:	0400                	addi	s0,sp,512
     7ce:	0016                	c.slli	zero,0x5
     7d0:	0b3a0e03          	lb	t3,179(s4)
     7d4:	0b39053b          	0xb39053b
     7d8:	1349                	addi	t1,t1,-14
     7da:	0000                	unimp
     7dc:	1605                	addi	a2,a2,-31
     7de:	0300                	addi	s0,sp,384
     7e0:	3a0e                	fld	fs4,224(sp)
     7e2:	390b3b0b          	0x390b3b0b
     7e6:	0013490b          	0x13490b
     7ea:	0600                	addi	s0,sp,768
     7ec:	0b0b0117          	auipc	sp,0xb0b0
     7f0:	0b3a                	slli	s6,s6,0xe
     7f2:	0b390b3b          	0xb390b3b
     7f6:	1301                	addi	t1,t1,-32
     7f8:	0000                	unimp
     7fa:	03000d07          	0x3000d07
     7fe:	3a0e                	fld	fs4,224(sp)
     800:	390b3b0b          	0x390b3b0b
     804:	0013490b          	0x13490b
     808:	0800                	addi	s0,sp,16
     80a:	0101                	addi	sp,sp,0
     80c:	1349                	addi	t1,t1,-14
     80e:	1301                	addi	t1,t1,-32
     810:	0000                	unimp
     812:	2109                	addiw	sp,sp,2
     814:	4900                	lw	s0,16(a0)
     816:	000b2f13          	slti	t5,s6,0
     81a:	0a00                	addi	s0,sp,272
     81c:	0b0b0113          	addi	sp,s6,176
     820:	0b3a                	slli	s6,s6,0xe
     822:	0b390b3b          	0xb390b3b
     826:	1301                	addi	t1,t1,-32
     828:	0000                	unimp
     82a:	03000d0b          	0x3000d0b
     82e:	3a0e                	fld	fs4,224(sp)
     830:	390b3b0b          	0x390b3b0b
     834:	3813490b          	0x3813490b
     838:	0c00000b          	0xc00000b
     83c:	0b0b000f          	0xb0b000f
     840:	0000                	unimp
     842:	130d                	addi	t1,t1,-29
     844:	0301                	addi	t1,t1,0
     846:	0b0e                	slli	s6,s6,0x3
     848:	3b0b3a0b          	0x3b0b3a0b
     84c:	010b390b          	0x10b390b
     850:	0e000013          	li	zero,224
     854:	000d                	c.nop	3
     856:	0b3a0803          	lb	a6,179(s4)
     85a:	0b390b3b          	0xb390b3b
     85e:	1349                	addi	t1,t1,-14
     860:	0b38                	addi	a4,sp,408
     862:	0000                	unimp
     864:	0b000f0f          	0xb000f0f
     868:	0013490b          	0x13490b
     86c:	1000                	addi	s0,sp,32
     86e:	0e030113          	addi	sp,t1,224
     872:	0b3a050b          	0xb3a050b
     876:	0b390b3b          	0xb390b3b
     87a:	1301                	addi	t1,t1,-32
     87c:	0000                	unimp
     87e:	0d11                	addi	s10,s10,4
     880:	0300                	addi	s0,sp,384
     882:	3a0e                	fld	fs4,224(sp)
     884:	390b3b0b          	0x390b3b0b
     888:	3813490b          	0x3813490b
     88c:	0005                	c.nop	1
     88e:	1200                	addi	s0,sp,288
     890:	0015                	c.nop	5
     892:	00001927          	0x1927
     896:	27011513          	0x27011513
     89a:	4919                	li	s2,6
     89c:	00130113          	addi	sp,t1,1
     8a0:	1400                	addi	s0,sp,544
     8a2:	0005                	c.nop	1
     8a4:	1349                	addi	t1,t1,-14
     8a6:	0000                	unimp
     8a8:	2615                	addiw	a2,a2,5
     8aa:	4900                	lw	s0,16(a0)
     8ac:	16000013          	li	zero,352
     8b0:	0e030113          	addi	sp,t1,224
     8b4:	0b3a050b          	0xb3a050b
     8b8:	0b39053b          	0xb39053b
     8bc:	1301                	addi	t1,t1,-32
     8be:	0000                	unimp
     8c0:	03000d17          	auipc	s10,0x3000
     8c4:	3a0e                	fld	fs4,224(sp)
     8c6:	39053b0b          	0x39053b0b
     8ca:	3813490b          	0x3813490b
     8ce:	1800000b          	0x1800000b
     8d2:	000d                	c.nop	3
     8d4:	0b3a0e03          	lb	t3,179(s4)
     8d8:	0b39053b          	0xb39053b
     8dc:	1349                	addi	t1,t1,-14
     8de:	0538                	addi	a4,sp,648
     8e0:	0000                	unimp
     8e2:	1319                	addi	t1,t1,-26
     8e4:	0301                	addi	t1,t1,0
     8e6:	0b0e                	slli	s6,s6,0x3
     8e8:	3b0b3a0b          	0x3b0b3a0b
     8ec:	3905                	addiw	s2,s2,-31
     8ee:	0013010b          	0x13010b
     8f2:	1a00                	addi	s0,sp,304
     8f4:	0b0b0113          	addi	sp,s6,176
     8f8:	0b3a                	slli	s6,s6,0xe
     8fa:	0b39053b          	0xb39053b
     8fe:	1301                	addi	t1,t1,-32
     900:	0000                	unimp
     902:	0b01131b          	0xb01131b
     906:	3a05                	addiw	s4,s4,-31
     908:	39053b0b          	0x39053b0b
     90c:	0013010b          	0x13010b
     910:	1c00                	addi	s0,sp,560
     912:	050b0117          	auipc	sp,0x50b0
     916:	0b3a                	slli	s6,s6,0xe
     918:	0b39053b          	0xb39053b
     91c:	1301                	addi	t1,t1,-32
     91e:	0000                	unimp
     920:	0d1d                	addi	s10,s10,7
     922:	0300                	addi	s0,sp,384
     924:	3a0e                	fld	fs4,224(sp)
     926:	39053b0b          	0x39053b0b
     92a:	0013490b          	0x13490b
     92e:	1e00                	addi	s0,sp,816
     930:	0e030013          	addi	zero,t1,224
     934:	193c                	addi	a5,sp,184
     936:	0000                	unimp
     938:	151f 2701 0119      	0x1192701151f
     93e:	20000013          	li	zero,512
     942:	0034                	addi	a3,sp,8
     944:	0b3a0e03          	lb	t3,179(s4)
     948:	0b39053b          	0xb39053b
     94c:	1349                	addi	t1,t1,-14
     94e:	193c193f 34210000 	0x34210000193c193f
     956:	0300                	addi	s0,sp,384
     958:	3a0e                	fld	fs4,224(sp)
     95a:	390b3b0b          	0x390b3b0b
     95e:	3f13490b          	0x3f13490b
     962:	3c19                	addiw	s8,s8,-26
     964:	0019                	c.nop	6
     966:	2200                	fld	fs0,0(a2)
     968:	0104                	addi	s1,sp,128
     96a:	0b3e0e03          	lb	t3,179(t3) # 60b3 <_start-0x9ffd>
     96e:	13490b0b          	0x13490b0b
     972:	0b3a                	slli	s6,s6,0xe
     974:	0b390b3b          	0xb390b3b
     978:	1301                	addi	t1,t1,-32
     97a:	0000                	unimp
     97c:	03002823          	sw	a6,48(zero) # 30 <_start-0x10080>
     980:	1c0e                	slli	s8,s8,0x23
     982:	2400000b          	0x2400000b
     986:	012e                	slli	sp,sp,0xb
     988:	0e03193f 0b3b0b3a 	0xb3b0b3a0e03193f
     990:	0b39                	addi	s6,s6,14
     992:	13491927          	0x13491927
     996:	0111                	addi	sp,sp,4
     998:	0712                	slli	a4,a4,0x4
     99a:	1840                	addi	s0,sp,52
     99c:	01194297          	auipc	t0,0x1194
     9a0:	25000013          	li	zero,592
     9a4:	0005                	c.nop	1
     9a6:	0b3a0e03          	lb	t3,179(s4)
     9aa:	0b390b3b          	0xb390b3b
     9ae:	1349                	addi	t1,t1,-14
     9b0:	1702                	slli	a4,a4,0x20
     9b2:	0000                	unimp
     9b4:	0526                	slli	a0,a0,0x9
     9b6:	0300                	addi	s0,sp,384
     9b8:	3a08                	fld	fa0,48(a2)
     9ba:	390b3b0b          	0x390b3b0b
     9be:	0213490b          	0x213490b
     9c2:	0018                	0x18
     9c4:	2700                	fld	fs0,8(a4)
     9c6:	0005                	c.nop	1
     9c8:	0b3a0803          	lb	a6,179(s4)
     9cc:	0b390b3b          	0xb390b3b
     9d0:	1349                	addi	t1,t1,-14
     9d2:	1702                	slli	a4,a4,0x20
     9d4:	0000                	unimp
     9d6:	3428                	fld	fa0,104(s0)
     9d8:	0300                	addi	s0,sp,384
     9da:	3a0e                	fld	fs4,224(sp)
     9dc:	390b3b0b          	0x390b3b0b
     9e0:	0213490b          	0x213490b
     9e4:	29000017          	auipc	zero,0x29000
     9e8:	0034                	addi	a3,sp,8
     9ea:	0b3a0803          	lb	a6,179(s4)
     9ee:	0b390b3b          	0xb390b3b
     9f2:	1349                	addi	t1,t1,-14
     9f4:	1702                	slli	a4,a4,0x20
     9f6:	0000                	unimp
     9f8:	0100                	addi	s0,sp,128
     9fa:	0111                	addi	sp,sp,4
     9fc:	0e25                	addi	t3,t3,9
     9fe:	0e030b13          	addi	s6,t1,224
     a02:	01110e1b          	addiw	t3,sp,17
     a06:	0712                	slli	a4,a4,0x4
     a08:	1710                	addi	a2,sp,928
     a0a:	0000                	unimp
     a0c:	2402                	fld	fs0,0(sp)
     a0e:	0b00                	addi	s0,sp,400
     a10:	030b3e0b          	0x30b3e0b
     a14:	000e                	c.slli	zero,0x3
     a16:	0300                	addi	s0,sp,384
     a18:	0024                	addi	s1,sp,8
     a1a:	0b3e0b0b          	0xb3e0b0b
     a1e:	00000803          	lb	a6,0(zero) # 0 <_start-0x100b0>
     a22:	1604                	addi	s1,sp,800
     a24:	0300                	addi	s0,sp,384
     a26:	3a0e                	fld	fs4,224(sp)
     a28:	39053b0b          	0x39053b0b
     a2c:	0013490b          	0x13490b
     a30:	0500                	addi	s0,sp,640
     a32:	0016                	c.slli	zero,0x5
     a34:	0b3a0e03          	lb	t3,179(s4)
     a38:	0b390b3b          	0xb390b3b
     a3c:	1349                	addi	t1,t1,-14
     a3e:	0000                	unimp
     a40:	1706                	slli	a4,a4,0x21
     a42:	0b01                	addi	s6,s6,0
     a44:	3b0b3a0b          	0x3b0b3a0b
     a48:	010b390b          	0x10b390b
     a4c:	07000013          	li	zero,112
     a50:	000d                	c.nop	3
     a52:	0b3a0e03          	lb	t3,179(s4)
     a56:	0b390b3b          	0xb390b3b
     a5a:	1349                	addi	t1,t1,-14
     a5c:	0000                	unimp
     a5e:	0108                	addi	a0,sp,128
     a60:	4901                	li	s2,0
     a62:	00130113          	addi	sp,t1,1
     a66:	0900                	addi	s0,sp,144
     a68:	0021                	c.nop	8
     a6a:	1349                	addi	t1,t1,-14
     a6c:	00000b2f          	0xb2f
     a70:	130a                	slli	t1,t1,0x22
     a72:	0b01                	addi	s6,s6,0
     a74:	3b0b3a0b          	0x3b0b3a0b
     a78:	010b390b          	0x10b390b
     a7c:	0b000013          	li	zero,176
     a80:	000d                	c.nop	3
     a82:	0b3a0e03          	lb	t3,179(s4)
     a86:	0b390b3b          	0xb390b3b
     a8a:	1349                	addi	t1,t1,-14
     a8c:	0b38                	addi	a4,sp,408
     a8e:	0000                	unimp
     a90:	0f0c                	addi	a1,sp,912
     a92:	0b00                	addi	s0,sp,400
     a94:	0d00000b          	0xd00000b
     a98:	0e030113          	addi	sp,t1,224
     a9c:	0b3a0b0b          	0xb3a0b0b
     aa0:	0b390b3b          	0xb390b3b
     aa4:	1301                	addi	t1,t1,-32
     aa6:	0000                	unimp
     aa8:	0d0e                	slli	s10,s10,0x3
     aaa:	0300                	addi	s0,sp,384
     aac:	3a08                	fld	fa0,48(a2)
     aae:	390b3b0b          	0x390b3b0b
     ab2:	3813490b          	0x3813490b
     ab6:	0f00000b          	0xf00000b
     aba:	0b0b000f          	0xb0b000f
     abe:	1349                	addi	t1,t1,-14
     ac0:	0000                	unimp
     ac2:	1310                	addi	a2,sp,416
     ac4:	0301                	addi	t1,t1,0
     ac6:	0b0e                	slli	s6,s6,0x3
     ac8:	3a05                	addiw	s4,s4,-31
     aca:	390b3b0b          	0x390b3b0b
     ace:	0013010b          	0x13010b
     ad2:	1100                	addi	s0,sp,160
     ad4:	000d                	c.nop	3
     ad6:	0b3a0e03          	lb	t3,179(s4)
     ada:	0b390b3b          	0xb390b3b
     ade:	1349                	addi	t1,t1,-14
     ae0:	0538                	addi	a4,sp,648
     ae2:	0000                	unimp
     ae4:	1512                	slli	a0,a0,0x24
     ae6:	2700                	fld	fs0,8(a4)
     ae8:	0019                	c.nop	6
     aea:	1300                	addi	s0,sp,416
     aec:	0115                	addi	sp,sp,5
     aee:	13491927          	0x13491927
     af2:	1301                	addi	t1,t1,-32
     af4:	0000                	unimp
     af6:	0514                	addi	a3,sp,640
     af8:	4900                	lw	s0,16(a0)
     afa:	15000013          	li	zero,336
     afe:	0026                	c.slli	zero,0x9
     b00:	1349                	addi	t1,t1,-14
     b02:	0000                	unimp
     b04:	1316                	slli	t1,t1,0x25
     b06:	0301                	addi	t1,t1,0
     b08:	0b0e                	slli	s6,s6,0x3
     b0a:	3a05                	addiw	s4,s4,-31
     b0c:	39053b0b          	0x39053b0b
     b10:	0013010b          	0x13010b
     b14:	1700                	addi	s0,sp,928
     b16:	000d                	c.nop	3
     b18:	0b3a0e03          	lb	t3,179(s4)
     b1c:	0b39053b          	0xb39053b
     b20:	1349                	addi	t1,t1,-14
     b22:	0b38                	addi	a4,sp,408
     b24:	0000                	unimp
     b26:	0d18                	addi	a4,sp,656
     b28:	0300                	addi	s0,sp,384
     b2a:	3a0e                	fld	fs4,224(sp)
     b2c:	39053b0b          	0x39053b0b
     b30:	3813490b          	0x3813490b
     b34:	0005                	c.nop	1
     b36:	1900                	addi	s0,sp,176
     b38:	0e030113          	addi	sp,t1,224
     b3c:	0b3a0b0b          	0xb3a0b0b
     b40:	0b39053b          	0xb39053b
     b44:	1301                	addi	t1,t1,-32
     b46:	0000                	unimp
     b48:	131a                	slli	t1,t1,0x26
     b4a:	0b01                	addi	s6,s6,0
     b4c:	3b0b3a0b          	0x3b0b3a0b
     b50:	3905                	addiw	s2,s2,-31
     b52:	0013010b          	0x13010b
     b56:	1b00                	addi	s0,sp,432
     b58:	050b0113          	addi	sp,s6,80
     b5c:	0b3a                	slli	s6,s6,0xe
     b5e:	0b39053b          	0xb39053b
     b62:	1301                	addi	t1,t1,-32
     b64:	0000                	unimp
     b66:	171c                	addi	a5,sp,928
     b68:	0b01                	addi	s6,s6,0
     b6a:	3a05                	addiw	s4,s4,-31
     b6c:	39053b0b          	0x39053b0b
     b70:	0013010b          	0x13010b
     b74:	1d00                	addi	s0,sp,688
     b76:	000d                	c.nop	3
     b78:	0b3a0e03          	lb	t3,179(s4)
     b7c:	0b39053b          	0xb39053b
     b80:	1349                	addi	t1,t1,-14
     b82:	0000                	unimp
     b84:	131e                	slli	t1,t1,0x27
     b86:	0300                	addi	s0,sp,384
     b88:	3c0e                	fld	fs8,224(sp)
     b8a:	0019                	c.nop	6
     b8c:	1f00                	addi	s0,sp,944
     b8e:	0115                	addi	sp,sp,5
     b90:	13011927          	0x13011927
     b94:	0000                	unimp
     b96:	3420                	fld	fs0,104(s0)
     b98:	0300                	addi	s0,sp,384
     b9a:	3a0e                	fld	fs4,224(sp)
     b9c:	39053b0b          	0x39053b0b
     ba0:	3f13490b          	0x3f13490b
     ba4:	3c19                	addiw	s8,s8,-26
     ba6:	0019                	c.nop	6
     ba8:	2100                	fld	fs0,0(a0)
     baa:	0034                	addi	a3,sp,8
     bac:	0b3a0e03          	lb	t3,179(s4)
     bb0:	0b390b3b          	0xb390b3b
     bb4:	1349                	addi	t1,t1,-14
     bb6:	193c193f 34220000 	0x34220000193c193f
     bbe:	0300                	addi	s0,sp,384
     bc0:	3a0e                	fld	fs4,224(sp)
     bc2:	390b3b0b          	0x390b3b0b
     bc6:	1c13490b          	0x1c13490b
     bca:	2300000b          	0x2300000b
     bce:	012e                	slli	sp,sp,0xb
     bd0:	0e03193f 0b3b0b3a 	0xb3b0b3a0e03193f
     bd8:	0b39                	addi	s6,s6,14
     bda:	01111927          	0x1111927
     bde:	0712                	slli	a4,a4,0x4
     be0:	1840                	addi	s0,sp,52
     be2:	4296                	lw	t0,68(sp)
     be4:	0119                	addi	sp,sp,6
     be6:	24000013          	li	zero,576
     bea:	0005                	c.nop	1
     bec:	0b3a0e03          	lb	t3,179(s4)
     bf0:	0b390b3b          	0xb390b3b
     bf4:	1349                	addi	t1,t1,-14
     bf6:	1702                	slli	a4,a4,0x20
     bf8:	0000                	unimp
     bfa:	0525                	addi	a0,a0,9
     bfc:	0300                	addi	s0,sp,384
     bfe:	3a08                	fld	fa0,48(a2)
     c00:	390b3b0b          	0x390b3b0b
     c04:	0213490b          	0x213490b
     c08:	26000017          	auipc	zero,0x26000
     c0c:	0034                	addi	a3,sp,8
     c0e:	0b3a0803          	lb	a6,179(s4)
     c12:	0b390b3b          	0xb390b3b
     c16:	1349                	addi	t1,t1,-14
     c18:	1702                	slli	a4,a4,0x20
     c1a:	0000                	unimp
     c1c:	03003427          	fsd	fa6,40(zero) # 28 <_start-0x10088>
     c20:	3a0e                	fld	fs4,224(sp)
     c22:	390b3b0b          	0x390b3b0b
     c26:	0213490b          	0x213490b
     c2a:	28000017          	auipc	zero,0x28000
     c2e:	000a                	c.slli	zero,0x2
     c30:	0b3a0e03          	lb	t3,179(s4)
     c34:	0b390b3b          	0xb390b3b
     c38:	0000                	unimp
     c3a:	0b29                	addi	s6,s6,10
     c3c:	5501                	li	a0,-32
     c3e:	2a000017          	auipc	zero,0x2a000
     c42:	8289                	srli	a3,a3,0x2
     c44:	0101                	addi	sp,sp,0
     c46:	0111                	addi	sp,sp,4
     c48:	0000                	unimp
     c4a:	01828a2b          	0x1828a2b
     c4e:	0200                	addi	s0,sp,256
     c50:	9118                	0x9118
     c52:	1842                	slli	a6,a6,0x30
     c54:	0000                	unimp
     c56:	0100                	addi	s0,sp,128
     c58:	0111                	addi	sp,sp,4
     c5a:	0e25                	addi	t3,t3,9
     c5c:	0e030b13          	addi	s6,t1,224
     c60:	01110e1b          	addiw	t3,sp,17
     c64:	0712                	slli	a4,a4,0x4
     c66:	1710                	addi	a2,sp,928
     c68:	0000                	unimp
     c6a:	2402                	fld	fs0,0(sp)
     c6c:	0b00                	addi	s0,sp,400
     c6e:	030b3e0b          	0x30b3e0b
     c72:	0008                	0x8
     c74:	0300                	addi	s0,sp,384
     c76:	0024                	addi	s1,sp,8
     c78:	0b3e0b0b          	0xb3e0b0b
     c7c:	00000e03          	lb	t3,0(zero) # 0 <_start-0x100b0>
     c80:	1604                	addi	s1,sp,800
     c82:	0300                	addi	s0,sp,384
     c84:	3a0e                	fld	fs4,224(sp)
     c86:	39053b0b          	0x39053b0b
     c8a:	0013490b          	0x13490b
     c8e:	0500                	addi	s0,sp,640
     c90:	0016                	c.slli	zero,0x5
     c92:	0b3a0e03          	lb	t3,179(s4)
     c96:	0b390b3b          	0xb390b3b
     c9a:	1349                	addi	t1,t1,-14
     c9c:	0000                	unimp
     c9e:	1706                	slli	a4,a4,0x21
     ca0:	0b01                	addi	s6,s6,0
     ca2:	3b0b3a0b          	0x3b0b3a0b
     ca6:	010b390b          	0x10b390b
     caa:	07000013          	li	zero,112
     cae:	000d                	c.nop	3
     cb0:	0b3a0e03          	lb	t3,179(s4)
     cb4:	0b390b3b          	0xb390b3b
     cb8:	1349                	addi	t1,t1,-14
     cba:	0000                	unimp
     cbc:	0108                	addi	a0,sp,128
     cbe:	4901                	li	s2,0
     cc0:	00130113          	addi	sp,t1,1
     cc4:	0900                	addi	s0,sp,144
     cc6:	0021                	c.nop	8
     cc8:	1349                	addi	t1,t1,-14
     cca:	00000b2f          	0xb2f
     cce:	130a                	slli	t1,t1,0x22
     cd0:	0b01                	addi	s6,s6,0
     cd2:	3b0b3a0b          	0x3b0b3a0b
     cd6:	010b390b          	0x10b390b
     cda:	0b000013          	li	zero,176
     cde:	000d                	c.nop	3
     ce0:	0b3a0e03          	lb	t3,179(s4)
     ce4:	0b390b3b          	0xb390b3b
     ce8:	1349                	addi	t1,t1,-14
     cea:	0b38                	addi	a4,sp,408
     cec:	0000                	unimp
     cee:	0f0c                	addi	a1,sp,912
     cf0:	0b00                	addi	s0,sp,400
     cf2:	0d00000b          	0xd00000b
     cf6:	0e030113          	addi	sp,t1,224
     cfa:	0b3a0b0b          	0xb3a0b0b
     cfe:	0b390b3b          	0xb390b3b
     d02:	1301                	addi	t1,t1,-32
     d04:	0000                	unimp
     d06:	0d0e                	slli	s10,s10,0x3
     d08:	0300                	addi	s0,sp,384
     d0a:	3a08                	fld	fa0,48(a2)
     d0c:	390b3b0b          	0x390b3b0b
     d10:	3813490b          	0x3813490b
     d14:	0f00000b          	0xf00000b
     d18:	0b0b000f          	0xb0b000f
     d1c:	1349                	addi	t1,t1,-14
     d1e:	0000                	unimp
     d20:	1310                	addi	a2,sp,416
     d22:	0301                	addi	t1,t1,0
     d24:	0b0e                	slli	s6,s6,0x3
     d26:	3a05                	addiw	s4,s4,-31
     d28:	390b3b0b          	0x390b3b0b
     d2c:	0013010b          	0x13010b
     d30:	1100                	addi	s0,sp,160
     d32:	000d                	c.nop	3
     d34:	0b3a0e03          	lb	t3,179(s4)
     d38:	0b390b3b          	0xb390b3b
     d3c:	1349                	addi	t1,t1,-14
     d3e:	0538                	addi	a4,sp,648
     d40:	0000                	unimp
     d42:	1512                	slli	a0,a0,0x24
     d44:	2700                	fld	fs0,8(a4)
     d46:	0019                	c.nop	6
     d48:	1300                	addi	s0,sp,416
     d4a:	0115                	addi	sp,sp,5
     d4c:	13491927          	0x13491927
     d50:	1301                	addi	t1,t1,-32
     d52:	0000                	unimp
     d54:	0514                	addi	a3,sp,640
     d56:	4900                	lw	s0,16(a0)
     d58:	15000013          	li	zero,336
     d5c:	0026                	c.slli	zero,0x9
     d5e:	1349                	addi	t1,t1,-14
     d60:	0000                	unimp
     d62:	1316                	slli	t1,t1,0x25
     d64:	0301                	addi	t1,t1,0
     d66:	0b0e                	slli	s6,s6,0x3
     d68:	3a05                	addiw	s4,s4,-31
     d6a:	39053b0b          	0x39053b0b
     d6e:	0013010b          	0x13010b
     d72:	1700                	addi	s0,sp,928
     d74:	000d                	c.nop	3
     d76:	0b3a0e03          	lb	t3,179(s4)
     d7a:	0b39053b          	0xb39053b
     d7e:	1349                	addi	t1,t1,-14
     d80:	0b38                	addi	a4,sp,408
     d82:	0000                	unimp
     d84:	0d18                	addi	a4,sp,656
     d86:	0300                	addi	s0,sp,384
     d88:	3a0e                	fld	fs4,224(sp)
     d8a:	39053b0b          	0x39053b0b
     d8e:	3813490b          	0x3813490b
     d92:	0005                	c.nop	1
     d94:	1900                	addi	s0,sp,176
     d96:	0e030113          	addi	sp,t1,224
     d9a:	0b3a0b0b          	0xb3a0b0b
     d9e:	0b39053b          	0xb39053b
     da2:	1301                	addi	t1,t1,-32
     da4:	0000                	unimp
     da6:	131a                	slli	t1,t1,0x26
     da8:	0b01                	addi	s6,s6,0
     daa:	3b0b3a0b          	0x3b0b3a0b
     dae:	3905                	addiw	s2,s2,-31
     db0:	0013010b          	0x13010b
     db4:	1b00                	addi	s0,sp,432
     db6:	050b0113          	addi	sp,s6,80
     dba:	0b3a                	slli	s6,s6,0xe
     dbc:	0b39053b          	0xb39053b
     dc0:	1301                	addi	t1,t1,-32
     dc2:	0000                	unimp
     dc4:	171c                	addi	a5,sp,928
     dc6:	0b01                	addi	s6,s6,0
     dc8:	3a05                	addiw	s4,s4,-31
     dca:	39053b0b          	0x39053b0b
     dce:	0013010b          	0x13010b
     dd2:	1d00                	addi	s0,sp,688
     dd4:	000d                	c.nop	3
     dd6:	0b3a0e03          	lb	t3,179(s4)
     dda:	0b39053b          	0xb39053b
     dde:	1349                	addi	t1,t1,-14
     de0:	0000                	unimp
     de2:	131e                	slli	t1,t1,0x27
     de4:	0300                	addi	s0,sp,384
     de6:	3c0e                	fld	fs8,224(sp)
     de8:	0019                	c.nop	6
     dea:	1f00                	addi	s0,sp,944
     dec:	0115                	addi	sp,sp,5
     dee:	13011927          	0x13011927
     df2:	0000                	unimp
     df4:	3420                	fld	fs0,104(s0)
     df6:	0300                	addi	s0,sp,384
     df8:	3a0e                	fld	fs4,224(sp)
     dfa:	39053b0b          	0x39053b0b
     dfe:	3f13490b          	0x3f13490b
     e02:	3c19                	addiw	s8,s8,-26
     e04:	0019                	c.nop	6
     e06:	2100                	fld	fs0,0(a0)
     e08:	0021                	c.nop	8
     e0a:	0000                	unimp
     e0c:	3422                	fld	fs0,40(sp)
     e0e:	0300                	addi	s0,sp,384
     e10:	3a0e                	fld	fs4,224(sp)
     e12:	390b3b0b          	0x390b3b0b
     e16:	3f13490b          	0x3f13490b
     e1a:	3c19                	addiw	s8,s8,-26
     e1c:	0019                	c.nop	6
     e1e:	2300                	fld	fs0,0(a4)
     e20:	012e                	slli	sp,sp,0xb
     e22:	0e03193f 0b3b0b3a 	0xb3b0b3a0e03193f
     e2a:	0b39                	addi	s6,s6,14
     e2c:	01871927          	0x1871927
     e30:	1119                	addi	sp,sp,-26
     e32:	1201                	addi	tp,tp,-32
     e34:	97184007          	flq	ft0,-1679(a6)
     e38:	1942                	slli	s2,s2,0x30
     e3a:	1301                	addi	t1,t1,-32
     e3c:	0000                	unimp
     e3e:	0524                	addi	s1,sp,648
     e40:	0300                	addi	s0,sp,384
     e42:	3a0e                	fld	fs4,224(sp)
     e44:	390b3b0b          	0x390b3b0b
     e48:	0213490b          	0x213490b
     e4c:	25000017          	auipc	zero,0x25000
     e50:	011d                	addi	sp,sp,7
     e52:	1331                	addi	t1,t1,-20
     e54:	0152                	slli	sp,sp,0x14
     e56:	1755                	addi	a4,a4,-11
     e58:	0b58                	addi	a4,sp,404
     e5a:	0b59                	addi	s6,s6,22
     e5c:	00000b57          	0xb57
     e60:	0526                	slli	a0,a0,0x9
     e62:	3100                	fld	fs0,32(a0)
     e64:	00170213          	addi	tp,a4,1
     e68:	2700                	fld	fs0,8(a4)
     e6a:	1755010b          	0x1755010b
     e6e:	0000                	unimp
     e70:	3428                	fld	fa0,104(s0)
     e72:	3100                	fld	fs0,32(a0)
     e74:	00170213          	addi	tp,a4,1
     e78:	2900                	fld	fs0,16(a0)
     e7a:	011d                	addi	sp,sp,7
     e7c:	1331                	addi	t1,t1,-20
     e7e:	0111                	addi	sp,sp,4
     e80:	0712                	slli	a4,a4,0x4
     e82:	0b58                	addi	a4,sp,404
     e84:	0b59                	addi	s6,s6,22
     e86:	13010b57          	0x13010b57
     e8a:	0000                	unimp
     e8c:	342a                	fld	fs0,168(sp)
     e8e:	3100                	fld	fs0,32(a0)
     e90:	00180213          	addi	tp,a6,1
     e94:	2b00                	fld	fs0,16(a4)
     e96:	8289                	srli	a3,a3,0x2
     e98:	0001                	nop
     e9a:	0111                	addi	sp,sp,4
     e9c:	1331                	addi	t1,t1,-20
     e9e:	0000                	unimp
     ea0:	2e2c                	fld	fa1,88(a2)
     ea2:	0301                	addi	t1,t1,0
     ea4:	3a0e                	fld	fs4,224(sp)
     ea6:	390b3b0b          	0x390b3b0b
     eaa:	4919270b          	0x4919270b
     eae:	010b2013          	slti	zero,s6,16
     eb2:	2d000013          	li	zero,720
     eb6:	0005                	c.nop	1
     eb8:	0b3a0803          	lb	a6,179(s4)
     ebc:	0b390b3b          	0xb390b3b
     ec0:	1349                	addi	t1,t1,-14
     ec2:	0000                	unimp
     ec4:	342e                	fld	fs0,232(sp)
     ec6:	0300                	addi	s0,sp,384
     ec8:	3a08                	fld	fa0,48(a2)
     eca:	390b3b0b          	0x390b3b0b
     ece:	0013490b          	0x13490b
     ed2:	2f00                	fld	fs0,24(a4)
     ed4:	0034                	addi	a3,sp,8
     ed6:	0b3a0e03          	lb	t3,179(s4)
     eda:	0b390b3b          	0xb390b3b
     ede:	1349                	addi	t1,t1,-14
     ee0:	0000                	unimp
     ee2:	2e30                	fld	fa2,88(a2)
     ee4:	3f00                	fld	fs0,56(a4)
     ee6:	3c19                	addiw	s8,s8,-26
     ee8:	6e19                	lui	t3,0x6
     eea:	030e                	slli	t1,t1,0x3
     eec:	3a0e                	fld	fs4,224(sp)
     eee:	390b3b0b          	0x390b3b0b
     ef2:	0000000b          	0xb
     ef6:	1101                	addi	sp,sp,-32
     ef8:	2501                	sext.w	a0,a0
     efa:	130e                	slli	t1,t1,0x23
     efc:	1b0e030b          	0x1b0e030b
     f00:	110e                	slli	sp,sp,0x23
     f02:	1201                	addi	tp,tp,-32
     f04:	00171007          	0x171007
     f08:	0200                	addi	s0,sp,256
     f0a:	0024                	addi	s1,sp,8
     f0c:	0b3e0b0b          	0xb3e0b0b
     f10:	00000803          	lb	a6,0(zero) # 0 <_start-0x100b0>
     f14:	0b002403          	lw	s0,176(zero) # b0 <_start-0x10000>
     f18:	030b3e0b          	0x30b3e0b
     f1c:	000e                	c.slli	zero,0x3
     f1e:	0400                	addi	s0,sp,512
     f20:	0016                	c.slli	zero,0x5
     f22:	0b3a0e03          	lb	t3,179(s4)
     f26:	0b39053b          	0xb39053b
     f2a:	1349                	addi	t1,t1,-14
     f2c:	0000                	unimp
     f2e:	1605                	addi	a2,a2,-31
     f30:	0300                	addi	s0,sp,384
     f32:	3a0e                	fld	fs4,224(sp)
     f34:	390b3b0b          	0x390b3b0b
     f38:	0013490b          	0x13490b
     f3c:	0600                	addi	s0,sp,768
     f3e:	0b0b0117          	auipc	sp,0xb0b0
     f42:	0b3a                	slli	s6,s6,0xe
     f44:	0b390b3b          	0xb390b3b
     f48:	1301                	addi	t1,t1,-32
     f4a:	0000                	unimp
     f4c:	03000d07          	0x3000d07
     f50:	3a0e                	fld	fs4,224(sp)
     f52:	390b3b0b          	0x390b3b0b
     f56:	0013490b          	0x13490b
     f5a:	0800                	addi	s0,sp,16
     f5c:	0101                	addi	sp,sp,0
     f5e:	1349                	addi	t1,t1,-14
     f60:	1301                	addi	t1,t1,-32
     f62:	0000                	unimp
     f64:	2109                	addiw	sp,sp,2
     f66:	4900                	lw	s0,16(a0)
     f68:	000b2f13          	slti	t5,s6,0
     f6c:	0a00                	addi	s0,sp,272
     f6e:	0b0b0113          	addi	sp,s6,176
     f72:	0b3a                	slli	s6,s6,0xe
     f74:	0b390b3b          	0xb390b3b
     f78:	1301                	addi	t1,t1,-32
     f7a:	0000                	unimp
     f7c:	03000d0b          	0x3000d0b
     f80:	3a0e                	fld	fs4,224(sp)
     f82:	390b3b0b          	0x390b3b0b
     f86:	3813490b          	0x3813490b
     f8a:	0c00000b          	0xc00000b
     f8e:	0b0b000f          	0xb0b000f
     f92:	0000                	unimp
     f94:	130d                	addi	t1,t1,-29
     f96:	0301                	addi	t1,t1,0
     f98:	0b0e                	slli	s6,s6,0x3
     f9a:	3b0b3a0b          	0x3b0b3a0b
     f9e:	010b390b          	0x10b390b
     fa2:	0e000013          	li	zero,224
     fa6:	000d                	c.nop	3
     fa8:	0b3a0803          	lb	a6,179(s4)
     fac:	0b390b3b          	0xb390b3b
     fb0:	1349                	addi	t1,t1,-14
     fb2:	0b38                	addi	a4,sp,408
     fb4:	0000                	unimp
     fb6:	0b000f0f          	0xb000f0f
     fba:	0013490b          	0x13490b
     fbe:	1000                	addi	s0,sp,32
     fc0:	0e030113          	addi	sp,t1,224
     fc4:	0b3a050b          	0xb3a050b
     fc8:	0b390b3b          	0xb390b3b
     fcc:	1301                	addi	t1,t1,-32
     fce:	0000                	unimp
     fd0:	0d11                	addi	s10,s10,4
     fd2:	0300                	addi	s0,sp,384
     fd4:	3a0e                	fld	fs4,224(sp)
     fd6:	390b3b0b          	0x390b3b0b
     fda:	3813490b          	0x3813490b
     fde:	0005                	c.nop	1
     fe0:	1200                	addi	s0,sp,288
     fe2:	0015                	c.nop	5
     fe4:	00001927          	0x1927
     fe8:	27011513          	0x27011513
     fec:	4919                	li	s2,6
     fee:	00130113          	addi	sp,t1,1
     ff2:	1400                	addi	s0,sp,544
     ff4:	0005                	c.nop	1
     ff6:	1349                	addi	t1,t1,-14
     ff8:	0000                	unimp
     ffa:	2615                	addiw	a2,a2,5
     ffc:	4900                	lw	s0,16(a0)
     ffe:	16000013          	li	zero,352
    1002:	0e030113          	addi	sp,t1,224
    1006:	0b3a050b          	0xb3a050b
    100a:	0b39053b          	0xb39053b
    100e:	1301                	addi	t1,t1,-32
    1010:	0000                	unimp
    1012:	03000d17          	auipc	s10,0x3000
    1016:	3a0e                	fld	fs4,224(sp)
    1018:	39053b0b          	0x39053b0b
    101c:	3813490b          	0x3813490b
    1020:	1800000b          	0x1800000b
    1024:	000d                	c.nop	3
    1026:	0b3a0e03          	lb	t3,179(s4)
    102a:	0b39053b          	0xb39053b
    102e:	1349                	addi	t1,t1,-14
    1030:	0538                	addi	a4,sp,648
    1032:	0000                	unimp
    1034:	1319                	addi	t1,t1,-26
    1036:	0301                	addi	t1,t1,0
    1038:	0b0e                	slli	s6,s6,0x3
    103a:	3b0b3a0b          	0x3b0b3a0b
    103e:	3905                	addiw	s2,s2,-31
    1040:	0013010b          	0x13010b
    1044:	1a00                	addi	s0,sp,304
    1046:	0b0b0113          	addi	sp,s6,176
    104a:	0b3a                	slli	s6,s6,0xe
    104c:	0b39053b          	0xb39053b
    1050:	1301                	addi	t1,t1,-32
    1052:	0000                	unimp
    1054:	0b01131b          	0xb01131b
    1058:	3a05                	addiw	s4,s4,-31
    105a:	39053b0b          	0x39053b0b
    105e:	0013010b          	0x13010b
    1062:	1c00                	addi	s0,sp,560
    1064:	050b0117          	auipc	sp,0x50b0
    1068:	0b3a                	slli	s6,s6,0xe
    106a:	0b39053b          	0xb39053b
    106e:	1301                	addi	t1,t1,-32
    1070:	0000                	unimp
    1072:	0d1d                	addi	s10,s10,7
    1074:	0300                	addi	s0,sp,384
    1076:	3a0e                	fld	fs4,224(sp)
    1078:	39053b0b          	0x39053b0b
    107c:	0013490b          	0x13490b
    1080:	1e00                	addi	s0,sp,816
    1082:	0e030013          	addi	zero,t1,224
    1086:	193c                	addi	a5,sp,184
    1088:	0000                	unimp
    108a:	151f 2701 0119      	0x1192701151f
    1090:	20000013          	li	zero,512
    1094:	0034                	addi	a3,sp,8
    1096:	0b3a0e03          	lb	t3,179(s4)
    109a:	0b39053b          	0xb39053b
    109e:	1349                	addi	t1,t1,-14
    10a0:	193c193f 21210000 	0x21210000193c193f
    10a8:	0000                	unimp
    10aa:	2200                	fld	fs0,0(a2)
    10ac:	0034                	addi	a3,sp,8
    10ae:	0b3a0e03          	lb	t3,179(s4)
    10b2:	0b390b3b          	0xb390b3b
    10b6:	1349                	addi	t1,t1,-14
    10b8:	193c193f 2e230000 	0x2e230000193c193f
    10c0:	3f00                	fld	fs0,56(a4)
    10c2:	0319                	addi	t1,t1,6
    10c4:	3a0e                	fld	fs4,224(sp)
    10c6:	390b3b0b          	0x390b3b0b
    10ca:	4919270b          	0x4919270b
    10ce:	12011113          	0x12011113
    10d2:	97184007          	flq	ft0,-1679(a6)
    10d6:	1942                	slli	s2,s2,0x30
    10d8:	0000                	unimp
	...

Disassembly of section .debug_line:

0000000000000000 <.debug_line>:
       0:	000000bf 00510003 	0x510003000000bf
       8:	0000                	unimp
       a:	0101                	addi	sp,sp,0
       c:	000d0efb          	0xd0efb
      10:	0101                	addi	sp,sp,0
      12:	0101                	addi	sp,sp,0
      14:	0000                	unimp
      16:	0100                	addi	s0,sp,128
      18:	0000                	unimp
      1a:	2f01                	sext.w	t5,t5
      1c:	6f68                	ld	a0,216(a4)
      1e:	656d                	lui	a0,0x1b
      20:	6e61642f          	0x6e61642f
      24:	6569                	lui	a0,0x1a
      26:	2f6c                	fld	fa1,216(a4)
      28:	6972                	ld	s2,280(sp)
      2a:	2f766373          	csrrsi	t1,0x2f7,12
      2e:	2f637273          	csrrci	tp,0x2f6,6
      32:	656e                	ld	a0,216(sp)
      34:	62696c77          	0x62696c77
      38:	632d                	lui	t1,0xb
      3a:	6779                	lui	a4,0x1e
      3c:	2f6e6977          	0x2f6e6977
      40:	696c                	ld	a1,208(a0)
      42:	6762                	ld	a4,24(sp)
      44:	6f6c                	ld	a1,216(a4)
      46:	722f7373          	csrrci	t1,0x722,30
      4a:	7369                	lui	t1,0xffffa
      4c:	00007663          	bgeu	zero,zero,58 <_start-0x10058>
      50:	30747263          	bgeu	s0,t2,354 <_start-0xfd5c>
      54:	532e                	lw	t1,232(sp)
      56:	0100                	addi	s0,sp,128
      58:	0000                	unimp
      5a:	0000                	unimp
      5c:	0209                	addi	tp,tp,2
      5e:	00b0                	addi	a2,sp,72
      60:	0001                	nop
      62:	0000                	unimp
      64:	0000                	unimp
      66:	03011803          	lh	a6,48(sp) # 50b1094 <__global_pointer$+0x509f414>
      6a:	0901                	addi	s2,s2,0
      6c:	0004                	0x4
      6e:	0301                	addi	t1,t1,0
      70:	0904                	addi	s1,sp,144
      72:	0004                	0x4
      74:	0301                	addi	t1,t1,0
      76:	0901                	addi	s2,s2,0
      78:	0004                	0x4
      7a:	0301                	addi	t1,t1,0
      7c:	0901                	addi	s2,s2,0
      7e:	0004                	0x4
      80:	0301                	addi	t1,t1,0
      82:	0901                	addi	s2,s2,0
      84:	0002                	c.slli64	zero
      86:	0301                	addi	t1,t1,0
      88:	0901                	addi	s2,s2,0
      8a:	0002                	c.slli64	zero
      8c:	0301                	addi	t1,t1,0
      8e:	090a                	slli	s2,s2,0x2
      90:	0004                	0x4
      92:	0301                	addi	t1,t1,0
      94:	0901                	addi	s2,s2,0
      96:	0008                	0x8
      98:	0301                	addi	t1,t1,0
      9a:	0904                	addi	s1,sp,144
      9c:	0004                	0x4
      9e:	0301                	addi	t1,t1,0
      a0:	0902                	c.slli64	s2
      a2:	0004                	0x4
      a4:	0301                	addi	t1,t1,0
      a6:	0901                	addi	s2,s2,0
      a8:	0002                	c.slli64	zero
      aa:	0301                	addi	t1,t1,0
      ac:	0901                	addi	s2,s2,0
      ae:	0002                	c.slli64	zero
      b0:	0301                	addi	t1,t1,0
      b2:	0901                	addi	s2,s2,0
      b4:	0002                	c.slli64	zero
      b6:	0301                	addi	t1,t1,0
      b8:	0901                	addi	s2,s2,0
      ba:	0004                	0x4
      bc:	0901                	addi	s2,s2,0
      be:	0002                	c.slli64	zero
      c0:	0100                	addi	s0,sp,128
      c2:	8a01                	andi	a2,a2,0
      c4:	0001                	nop
      c6:	0300                	addi	s0,sp,384
      c8:	5500                	lw	s0,40(a0)
      ca:	0001                	nop
      cc:	0100                	addi	s0,sp,128
      ce:	fb01                	bnez	a4,ffffffffffffffde <__global_pointer$+0xfffffffffffee35e>
      d0:	0d0e                	slli	s10,s10,0x3
      d2:	0100                	addi	s0,sp,128
      d4:	0101                	addi	sp,sp,0
      d6:	0001                	nop
      d8:	0000                	unimp
      da:	0001                	nop
      dc:	0100                	addi	s0,sp,128
      de:	6d6f682f          	0x6d6f682f
      e2:	2f65                	addiw	t5,t5,25
      e4:	6164                	ld	s1,192(a0)
      e6:	696e                	ld	s2,216(sp)
      e8:	6c65                	lui	s8,0x19
      ea:	7369722f          	0x7369722f
      ee:	732f7663          	bgeu	t5,s2,81a <_start-0xf896>
      f2:	6372                	ld	t1,280(sp)
      f4:	77656e2f          	0x77656e2f
      f8:	696c                	ld	a1,208(a0)
      fa:	2d62                	fld	fs10,24(sp)
      fc:	77677963          	bgeu	a4,s6,86e <_start-0xf842>
     100:	6e69                	lui	t3,0x1a
     102:	77656e2f          	0x77656e2f
     106:	696c                	ld	a1,208(a0)
     108:	2f62                	fld	ft10,24(sp)
     10a:	696c                	ld	a1,208(a0)
     10c:	6362                	ld	t1,24(sp)
     10e:	6474732f          	0x6474732f
     112:	696c                	ld	a1,208(a0)
     114:	0062                	c.slli	zero,0x18
     116:	6d6f682f          	0x6d6f682f
     11a:	2f65                	addiw	t5,t5,25
     11c:	6164                	ld	s1,192(a0)
     11e:	696e                	ld	s2,216(sp)
     120:	6c65                	lui	s8,0x19
     122:	7369722f          	0x7369722f
     126:	632f7663          	bgeu	t5,s2,752 <_start-0xf95e>
     12a:	6f72                	ld	t5,280(sp)
     12c:	68637373          	csrrci	t1,0x686,6
     130:	6961                	lui	s2,0x18
     132:	2f6e                	fld	ft10,216(sp)
     134:	696c                	ld	a1,208(a0)
     136:	2f62                	fld	ft10,24(sp)
     138:	2f636367          	0x2f636367
     13c:	6972                	ld	s2,280(sp)
     13e:	36766373          	csrrsi	t1,0x367,12
     142:	2d34                	fld	fa3,88(a0)
     144:	736c                	ld	a1,224(a4)
     146:	652d                	lui	a0,0xb
     148:	666c                	ld	a1,200(a2)
     14a:	322e392f          	0x322e392f
     14e:	302e                	fld	ft0,232(sp)
     150:	636e692f          	0x636e692f
     154:	756c                	ld	a1,232(a0)
     156:	6564                	ld	s1,200(a0)
     158:	2f00                	fld	fs0,24(a4)
     15a:	6f68                	ld	a0,216(a4)
     15c:	656d                	lui	a0,0x1b
     15e:	6e61642f          	0x6e61642f
     162:	6569                	lui	a0,0x1a
     164:	2f6c                	fld	fa1,216(a4)
     166:	6972                	ld	s2,280(sp)
     168:	2f766373          	csrrsi	t1,0x2f7,12
     16c:	2f637273          	csrrci	tp,0x2f6,6
     170:	656e                	ld	a0,216(sp)
     172:	62696c77          	0x62696c77
     176:	632d                	lui	t1,0xb
     178:	6779                	lui	a4,0x1e
     17a:	2f6e6977          	0x2f6e6977
     17e:	656e                	ld	a0,216(sp)
     180:	62696c77          	0x62696c77
     184:	62696c2f          	0x62696c2f
     188:	6e692f63          	0x6e692f63
     18c:	64756c63          	bltu	a0,t2,7e4 <_start-0xf8cc>
     190:	2f65                	addiw	t5,t5,25
     192:	00737973          	csrrci	s2,0x7,6
     196:	6d6f682f          	0x6d6f682f
     19a:	2f65                	addiw	t5,t5,25
     19c:	6164                	ld	s1,192(a0)
     19e:	696e                	ld	s2,216(sp)
     1a0:	6c65                	lui	s8,0x19
     1a2:	7369722f          	0x7369722f
     1a6:	732f7663          	bgeu	t5,s2,8d2 <_start-0xf7de>
     1aa:	6372                	ld	t1,280(sp)
     1ac:	77656e2f          	0x77656e2f
     1b0:	696c                	ld	a1,208(a0)
     1b2:	2d62                	fld	fs10,24(sp)
     1b4:	77677963          	bgeu	a4,s6,926 <_start-0xf78a>
     1b8:	6e69                	lui	t3,0x1a
     1ba:	77656e2f          	0x77656e2f
     1be:	696c                	ld	a1,208(a0)
     1c0:	2f62                	fld	ft10,24(sp)
     1c2:	696c                	ld	a1,208(a0)
     1c4:	6362                	ld	t1,24(sp)
     1c6:	636e692f          	0x636e692f
     1ca:	756c                	ld	a1,232(a0)
     1cc:	6564                	ld	s1,200(a0)
     1ce:	0000                	unimp
     1d0:	7461                	lui	s0,0xffff8
     1d2:	7865                	lui	a6,0xffff9
     1d4:	7469                	lui	s0,0xffffa
     1d6:	632e                	ld	t1,200(sp)
     1d8:	0100                	addi	s0,sp,128
     1da:	0000                	unimp
     1dc:	64647473          	csrrci	s0,0x646,8
     1e0:	6665                	lui	a2,0x19
     1e2:	682e                	ld	a6,200(sp)
     1e4:	0200                	addi	s0,sp,256
     1e6:	0000                	unimp
     1e8:	745f 7079 7365      	0x73657079745f
     1ee:	682e                	ld	a6,200(sp)
     1f0:	0300                	addi	s0,sp,384
     1f2:	0000                	unimp
     1f4:	6572                	ld	a0,280(sp)
     1f6:	6e65                	lui	t3,0x19
     1f8:	2e74                	fld	fa3,216(a2)
     1fa:	0068                	addi	a0,sp,12
     1fc:	6c000003          	lb	zero,1728(zero) # 6c0 <_start-0xf9f0>
     200:	2e6b636f          	jal	t1,b64e6 <__global_pointer$+0xa4866>
     204:	0068                	addi	a0,sp,12
     206:	73000003          	lb	zero,1840(zero) # 730 <_start-0xf980>
     20a:	6474                	ld	a3,200(s0)
     20c:	696c                	ld	a1,208(a0)
     20e:	2e62                	fld	ft8,24(sp)
     210:	0068                	addi	a0,sp,12
     212:	0004                	0x4
     214:	6100                	ld	s0,0(a0)
     216:	6574                	ld	a3,200(a0)
     218:	6978                	ld	a4,208(a0)
     21a:	2e74                	fld	fa3,216(a2)
     21c:	0068                	addi	a0,sp,12
     21e:	0001                	nop
     220:	0000                	unimp
     222:	0105                	addi	sp,sp,1
     224:	0900                	addi	s0,sp,144
     226:	9202                	jalr	tp
     228:	0101                	addi	sp,sp,0
     22a:	0000                	unimp
     22c:	0000                	unimp
     22e:	0300                	addi	s0,sp,384
     230:	0138                	addi	a4,sp,136
     232:	0305                	addi	t1,t1,1
     234:	00090103          	lb	sp,0(s2) # 18000 <__global_pointer$+0x6380>
     238:	0100                	addi	s0,sp,128
     23a:	0105                	addi	sp,sp,1
     23c:	0306                	slli	t1,t1,0x1
     23e:	097f                	0x97f
     240:	0000                	unimp
     242:	0501                	addi	a0,a0,0
     244:	030a                	slli	t1,t1,0x2
     246:	0901                	addi	s2,s2,0
     248:	0002                	c.slli64	zero
     24a:	0901                	addi	s2,s2,0
     24c:	0008                	0x8
     24e:	0100                	addi	s0,sp,128
     250:	df01                	beqz	a4,168 <_start-0xff48>
     252:	0001                	nop
     254:	0300                	addi	s0,sp,384
     256:	5f00                	lw	s0,56(a4)
     258:	0001                	nop
     25a:	0100                	addi	s0,sp,128
     25c:	fb01                	bnez	a4,16c <_start-0xff44>
     25e:	0d0e                	slli	s10,s10,0x3
     260:	0100                	addi	s0,sp,128
     262:	0101                	addi	sp,sp,0
     264:	0001                	nop
     266:	0000                	unimp
     268:	0001                	nop
     26a:	0100                	addi	s0,sp,128
     26c:	6d6f682f          	0x6d6f682f
     270:	2f65                	addiw	t5,t5,25
     272:	6164                	ld	s1,192(a0)
     274:	696e                	ld	s2,216(sp)
     276:	6c65                	lui	s8,0x19
     278:	7369722f          	0x7369722f
     27c:	732f7663          	bgeu	t5,s2,9a8 <_start-0xf708>
     280:	6372                	ld	t1,280(sp)
     282:	77656e2f          	0x77656e2f
     286:	696c                	ld	a1,208(a0)
     288:	2d62                	fld	fs10,24(sp)
     28a:	77677963          	bgeu	a4,s6,9fc <_start-0xf6b4>
     28e:	6e69                	lui	t3,0x1a
     290:	77656e2f          	0x77656e2f
     294:	696c                	ld	a1,208(a0)
     296:	2f62                	fld	ft10,24(sp)
     298:	696c                	ld	a1,208(a0)
     29a:	6362                	ld	t1,24(sp)
     29c:	6474732f          	0x6474732f
     2a0:	696c                	ld	a1,208(a0)
     2a2:	0062                	c.slli	zero,0x18
     2a4:	6d6f682f          	0x6d6f682f
     2a8:	2f65                	addiw	t5,t5,25
     2aa:	6164                	ld	s1,192(a0)
     2ac:	696e                	ld	s2,216(sp)
     2ae:	6c65                	lui	s8,0x19
     2b0:	7369722f          	0x7369722f
     2b4:	632f7663          	bgeu	t5,s2,8e0 <_start-0xf7d0>
     2b8:	6f72                	ld	t5,280(sp)
     2ba:	68637373          	csrrci	t1,0x686,6
     2be:	6961                	lui	s2,0x18
     2c0:	2f6e                	fld	ft10,216(sp)
     2c2:	696c                	ld	a1,208(a0)
     2c4:	2f62                	fld	ft10,24(sp)
     2c6:	2f636367          	0x2f636367
     2ca:	6972                	ld	s2,280(sp)
     2cc:	36766373          	csrrsi	t1,0x367,12
     2d0:	2d34                	fld	fa3,88(a0)
     2d2:	736c                	ld	a1,224(a4)
     2d4:	652d                	lui	a0,0xb
     2d6:	666c                	ld	a1,200(a2)
     2d8:	322e392f          	0x322e392f
     2dc:	302e                	fld	ft0,232(sp)
     2de:	636e692f          	0x636e692f
     2e2:	756c                	ld	a1,232(a0)
     2e4:	6564                	ld	s1,200(a0)
     2e6:	2f00                	fld	fs0,24(a4)
     2e8:	6f68                	ld	a0,216(a4)
     2ea:	656d                	lui	a0,0x1b
     2ec:	6e61642f          	0x6e61642f
     2f0:	6569                	lui	a0,0x1a
     2f2:	2f6c                	fld	fa1,216(a4)
     2f4:	6972                	ld	s2,280(sp)
     2f6:	2f766373          	csrrsi	t1,0x2f7,12
     2fa:	2f637273          	csrrci	tp,0x2f6,6
     2fe:	656e                	ld	a0,216(sp)
     300:	62696c77          	0x62696c77
     304:	632d                	lui	t1,0xb
     306:	6779                	lui	a4,0x1e
     308:	2f6e6977          	0x2f6e6977
     30c:	656e                	ld	a0,216(sp)
     30e:	62696c77          	0x62696c77
     312:	62696c2f          	0x62696c2f
     316:	6e692f63          	0x6e692f63
     31a:	64756c63          	bltu	a0,t2,972 <_start-0xf73e>
     31e:	2f65                	addiw	t5,t5,25
     320:	00737973          	csrrci	s2,0x7,6
     324:	6d6f682f          	0x6d6f682f
     328:	2f65                	addiw	t5,t5,25
     32a:	6164                	ld	s1,192(a0)
     32c:	696e                	ld	s2,216(sp)
     32e:	6c65                	lui	s8,0x19
     330:	7369722f          	0x7369722f
     334:	732f7663          	bgeu	t5,s2,a60 <_start-0xf650>
     338:	6372                	ld	t1,280(sp)
     33a:	77656e2f          	0x77656e2f
     33e:	696c                	ld	a1,208(a0)
     340:	2d62                	fld	fs10,24(sp)
     342:	77677963          	bgeu	a4,s6,ab4 <_start-0xf5fc>
     346:	6e69                	lui	t3,0x1a
     348:	77656e2f          	0x77656e2f
     34c:	696c                	ld	a1,208(a0)
     34e:	2f62                	fld	ft10,24(sp)
     350:	696c                	ld	a1,208(a0)
     352:	6362                	ld	t1,24(sp)
     354:	636e692f          	0x636e692f
     358:	756c                	ld	a1,232(a0)
     35a:	6564                	ld	s1,200(a0)
     35c:	0000                	unimp
     35e:	7865                	lui	a6,0xffff9
     360:	7469                	lui	s0,0xffffa
     362:	632e                	ld	t1,200(sp)
     364:	0100                	addi	s0,sp,128
     366:	0000                	unimp
     368:	64647473          	csrrci	s0,0x646,8
     36c:	6665                	lui	a2,0x19
     36e:	682e                	ld	a6,200(sp)
     370:	0200                	addi	s0,sp,256
     372:	0000                	unimp
     374:	745f 7079 7365      	0x73657079745f
     37a:	682e                	ld	a6,200(sp)
     37c:	0300                	addi	s0,sp,384
     37e:	0000                	unimp
     380:	6572                	ld	a0,280(sp)
     382:	6e65                	lui	t3,0x19
     384:	2e74                	fld	fa3,216(a2)
     386:	0068                	addi	a0,sp,12
     388:	6c000003          	lb	zero,1728(zero) # 6c0 <_start-0xf9f0>
     38c:	2e6b636f          	jal	t1,b6672 <__global_pointer$+0xa49f2>
     390:	0068                	addi	a0,sp,12
     392:	73000003          	lb	zero,1840(zero) # 730 <_start-0xf980>
     396:	6474                	ld	a3,200(s0)
     398:	696c                	ld	a1,208(a0)
     39a:	2e62                	fld	ft8,24(sp)
     39c:	0068                	addi	a0,sp,12
     39e:	0004                	0x4
     3a0:	7500                	ld	s0,40(a0)
     3a2:	696e                	ld	s2,216(sp)
     3a4:	2e647473          	csrrci	s0,0x2e6,8
     3a8:	0068                	addi	a0,sp,12
     3aa:	61000003          	lb	zero,1552(zero) # 610 <_start-0xfaa0>
     3ae:	6574                	ld	a3,200(a0)
     3b0:	6978                	ld	a4,208(a0)
     3b2:	2e74                	fld	fa3,216(a2)
     3b4:	0068                	addi	a0,sp,12
     3b6:	0001                	nop
     3b8:	0000                	unimp
     3ba:	0105                	addi	sp,sp,1
     3bc:	0900                	addi	s0,sp,144
     3be:	9c02                	jalr	s8
     3c0:	0101                	addi	sp,sp,0
     3c2:	0000                	unimp
     3c4:	0000                	unimp
     3c6:	0300                	addi	s0,sp,384
     3c8:	0135                	addi	sp,sp,13
     3ca:	0505                	addi	a0,a0,1
     3cc:	00090603          	lb	a2,0(s2) # 18000 <__global_pointer$+0x6380>
     3d0:	0100                	addi	s0,sp,128
     3d2:	0105                	addi	sp,sp,1
     3d4:	0306                	slli	t1,t1,0x1
     3d6:	097a                	slli	s2,s2,0x1e
     3d8:	0000                	unimp
     3da:	0501                	addi	a0,a0,0
     3dc:	0305                	addi	t1,t1,1
     3de:	0906                	slli	s2,s2,0x1
     3e0:	0002                	c.slli64	zero
     3e2:	0501                	addi	a0,a0,0
     3e4:	0301                	addi	t1,t1,0
     3e6:	097a                	slli	s2,s2,0x1e
     3e8:	0002                	c.slli64	zero
     3ea:	0301                	addi	t1,t1,0
     3ec:	0900                	addi	s0,sp,144
     3ee:	0004                	0x4
     3f0:	0501                	addi	a0,a0,0
     3f2:	0305                	addi	t1,t1,1
     3f4:	0906                	slli	s2,s2,0x1
     3f6:	0002                	c.slli64	zero
     3f8:	0501                	addi	a0,a0,0
     3fa:	02030603          	lb	a2,32(t1) # b020 <_start-0x5090>
     3fe:	0409                	addi	s0,s0,2
     400:	0100                	addi	s0,sp,128
     402:	1405                	addi	s0,s0,-31
     404:	0306                	slli	t1,t1,0x1
     406:	0900                	addi	s0,sp,144
     408:	0000                	unimp
     40a:	0501                	addi	a0,a0,0
     40c:	0306                	slli	t1,t1,0x1
     40e:	0900                	addi	s0,sp,144
     410:	0006                	c.slli	zero,0x1
     412:	0501                	addi	a0,a0,0
     414:	0605                	addi	a2,a2,1
     416:	02090103          	lb	sp,32(s2)
     41a:	0100                	addi	s0,sp,128
     41c:	0605                	addi	a2,a2,1
     41e:	0306                	slli	t1,t1,0x1
     420:	0900                	addi	s0,sp,144
     422:	0000                	unimp
     424:	0501                	addi	a0,a0,0
     426:	01030603          	lb	a2,16(t1)
     42a:	0209                	addi	tp,tp,2
     42c:	0100                	addi	s0,sp,128
     42e:	0609                	addi	a2,a2,2
     430:	0000                	unimp
     432:	0101                	addi	sp,sp,0
     434:	0161                	addi	sp,sp,24
     436:	0000                	unimp
     438:	00a20003          	lb	zero,10(tp) # ffffffffffffd00a <__global_pointer$+0xfffffffffffeb38a>
     43c:	0000                	unimp
     43e:	0101                	addi	sp,sp,0
     440:	000d0efb          	0xd0efb
     444:	0101                	addi	sp,sp,0
     446:	0101                	addi	sp,sp,0
     448:	0000                	unimp
     44a:	0100                	addi	s0,sp,128
     44c:	0000                	unimp
     44e:	2f01                	sext.w	t5,t5
     450:	6f68                	ld	a0,216(a4)
     452:	656d                	lui	a0,0x1b
     454:	6e61642f          	0x6e61642f
     458:	6569                	lui	a0,0x1a
     45a:	2f6c                	fld	fa1,216(a4)
     45c:	6972                	ld	s2,280(sp)
     45e:	2f766373          	csrrsi	t1,0x2f7,12
     462:	2f637273          	csrrci	tp,0x2f6,6
     466:	656e                	ld	a0,216(sp)
     468:	62696c77          	0x62696c77
     46c:	632d                	lui	t1,0xb
     46e:	6779                	lui	a4,0x1e
     470:	2f6e6977          	0x2f6e6977
     474:	656e                	ld	a0,216(sp)
     476:	62696c77          	0x62696c77
     47a:	62696c2f          	0x62696c2f
     47e:	696d2f63          	0x696d2f63
     482:	2f006373          	csrrsi	t1,0x2f0,0
     486:	6f68                	ld	a0,216(a4)
     488:	656d                	lui	a0,0x1b
     48a:	6e61642f          	0x6e61642f
     48e:	6569                	lui	a0,0x1a
     490:	2f6c                	fld	fa1,216(a4)
     492:	6972                	ld	s2,280(sp)
     494:	2f766373          	csrrsi	t1,0x2f7,12
     498:	736f7263          	bgeu	t5,s6,bbc <_start-0xf4f4>
     49c:	61686373          	csrrsi	t1,0x616,16
     4a0:	6e69                	lui	t3,0x1a
     4a2:	62696c2f          	0x62696c2f
     4a6:	6363672f          	0x6363672f
     4aa:	7369722f          	0x7369722f
     4ae:	34367663          	bgeu	a2,gp,7fa <_start-0xf8b6>
     4b2:	6c2d                	lui	s8,0xb
     4b4:	6c652d73          	csrrs	s10,0x6c6,a0
     4b8:	2f66                	fld	ft10,88(sp)
     4ba:	2e39                	addiw	t3,t3,14
     4bc:	2e32                	fld	ft8,264(sp)
     4be:	2f30                	fld	fa2,88(a4)
     4c0:	6e69                	lui	t3,0x1a
     4c2:	64756c63          	bltu	a0,t2,b1a <_start-0xf596>
     4c6:	0065                	c.nop	25
     4c8:	6600                	ld	s0,8(a2)
     4ca:	6e69                	lui	t3,0x1a
     4cc:	2e69                	addiw	t3,t3,26
     4ce:	00010063          	beqz	sp,4ce <_start-0xfbe2>
     4d2:	7300                	ld	s0,32(a4)
     4d4:	6474                	ld	a3,200(s0)
     4d6:	6564                	ld	s1,200(a0)
     4d8:	2e66                	fld	ft8,88(sp)
     4da:	0068                	addi	a0,sp,12
     4dc:	0002                	c.slli64	zero
     4de:	0000                	unimp
     4e0:	0105                	addi	sp,sp,1
     4e2:	0900                	addi	s0,sp,144
     4e4:	ba02                	fsd	ft0,304(sp)
     4e6:	0101                	addi	sp,sp,0
     4e8:	0000                	unimp
     4ea:	0000                	unimp
     4ec:	0300                	addi	s0,sp,384
     4ee:	011a                	slli	sp,sp,0x6
     4f0:	0305                	addi	t1,t1,1
     4f2:	00090103          	lb	sp,0(s2)
     4f6:	0100                	addi	s0,sp,128
     4f8:	00090103          	lb	sp,0(s2)
     4fc:	0100                	addi	s0,sp,128
     4fe:	00090203          	lb	tp,0(s2)
     502:	0100                	addi	s0,sp,128
     504:	0105                	addi	sp,sp,1
     506:	0306                	slli	t1,t1,0x1
     508:	097c                	addi	a5,sp,156
     50a:	0000                	unimp
     50c:	0501                	addi	a0,a0,0
     50e:	031c                	addi	a5,sp,384
     510:	0904                	addi	s1,sp,144
     512:	0004                	0x4
     514:	0501                	addi	a0,a0,0
     516:	0301                	addi	t1,t1,0
     518:	097c                	addi	a5,sp,156
     51a:	000e                	c.slli	zero,0x3
     51c:	0501                	addi	a0,a0,0
     51e:	031c                	addi	a5,sp,384
     520:	0904                	addi	s1,sp,144
     522:	0004                	0x4
     524:	0501                	addi	a0,a0,0
     526:	01030603          	lb	a2,16(t1) # b010 <_start-0x50a0>
     52a:	0409                	addi	s0,s0,2
     52c:	0100                	addi	s0,sp,128
     52e:	1305                	addi	t1,t1,-31
     530:	00090003          	lb	zero,0(s2)
     534:	0100                	addi	s0,sp,128
     536:	0305                	addi	t1,t1,1
     538:	0306                	slli	t1,t1,0x1
     53a:	0900                	addi	s0,sp,144
     53c:	0000                	unimp
     53e:	0501                	addi	a0,a0,0
     540:	0005                	c.nop	1
     542:	0402                	c.slli64	s0
     544:	01030603          	lb	a2,16(t1)
     548:	0609                	addi	a2,a2,2
     54a:	0100                	addi	s0,sp,128
     54c:	1905                	addi	s2,s2,-31
     54e:	0200                	addi	s0,sp,256
     550:	0304                	addi	s1,sp,384
     552:	0306                	slli	t1,t1,0x1
     554:	0900                	addi	s0,sp,144
     556:	0002                	c.slli64	zero
     558:	0501                	addi	a0,a0,0
     55a:	0005                	c.nop	1
     55c:	0402                	c.slli64	s0
     55e:	09000303          	lb	t1,144(zero) # 90 <_start-0x10020>
     562:	0004                	0x4
     564:	0501                	addi	a0,a0,0
     566:	001a                	c.slli	zero,0x6
     568:	0402                	c.slli64	s0
     56a:	7f030603          	lb	a2,2032(t1)
     56e:	0209                	addi	tp,tp,2
     570:	0100                	addi	s0,sp,128
     572:	1305                	addi	t1,t1,-31
     574:	0200                	addi	s0,sp,256
     576:	0304                	addi	s1,sp,384
     578:	00090003          	lb	zero,0(s2)
     57c:	0100                	addi	s0,sp,128
     57e:	0305                	addi	t1,t1,1
     580:	0200                	addi	s0,sp,256
     582:	0304                	addi	s1,sp,384
     584:	0306                	slli	t1,t1,0x1
     586:	0900                	addi	s0,sp,144
     588:	0000                	unimp
     58a:	0501                	addi	a0,a0,0
     58c:	0301                	addi	t1,t1,0
     58e:	0906                	slli	s2,s2,0x1
     590:	0002                	c.slli64	zero
     592:	0901                	addi	s2,s2,0
     594:	000a                	c.slli	zero,0x2
     596:	0100                	addi	s0,sp,128
     598:	0901                	addi	s2,s2,0
     59a:	0001                	nop
     59c:	0300                	addi	s0,sp,384
     59e:	0300                	addi	s0,sp,384
     5a0:	0001                	nop
     5a2:	0100                	addi	s0,sp,128
     5a4:	fb01                	bnez	a4,4b4 <_start-0xfbfc>
     5a6:	0d0e                	slli	s10,s10,0x3
     5a8:	0100                	addi	s0,sp,128
     5aa:	0101                	addi	sp,sp,0
     5ac:	0001                	nop
     5ae:	0000                	unimp
     5b0:	0001                	nop
     5b2:	0100                	addi	s0,sp,128
     5b4:	6d6f682f          	0x6d6f682f
     5b8:	2f65                	addiw	t5,t5,25
     5ba:	6164                	ld	s1,192(a0)
     5bc:	696e                	ld	s2,216(sp)
     5be:	6c65                	lui	s8,0x19
     5c0:	7369722f          	0x7369722f
     5c4:	632f7663          	bgeu	t5,s2,bf0 <_start-0xf4c0>
     5c8:	6f72                	ld	t5,280(sp)
     5ca:	68637373          	csrrci	t1,0x686,6
     5ce:	6961                	lui	s2,0x18
     5d0:	2f6e                	fld	ft10,216(sp)
     5d2:	696c                	ld	a1,208(a0)
     5d4:	2f62                	fld	ft10,24(sp)
     5d6:	2f636367          	0x2f636367
     5da:	6972                	ld	s2,280(sp)
     5dc:	36766373          	csrrsi	t1,0x367,12
     5e0:	2d34                	fld	fa3,88(a0)
     5e2:	736c                	ld	a1,224(a4)
     5e4:	652d                	lui	a0,0xb
     5e6:	666c                	ld	a1,200(a2)
     5e8:	322e392f          	0x322e392f
     5ec:	302e                	fld	ft0,232(sp)
     5ee:	636e692f          	0x636e692f
     5f2:	756c                	ld	a1,232(a0)
     5f4:	6564                	ld	s1,200(a0)
     5f6:	2f00                	fld	fs0,24(a4)
     5f8:	6f68                	ld	a0,216(a4)
     5fa:	656d                	lui	a0,0x1b
     5fc:	6e61642f          	0x6e61642f
     600:	6569                	lui	a0,0x1a
     602:	2f6c                	fld	fa1,216(a4)
     604:	6972                	ld	s2,280(sp)
     606:	2f766373          	csrrsi	t1,0x2f7,12
     60a:	2f637273          	csrrci	tp,0x2f6,6
     60e:	656e                	ld	a0,216(sp)
     610:	62696c77          	0x62696c77
     614:	632d                	lui	t1,0xb
     616:	6779                	lui	a4,0x1e
     618:	2f6e6977          	0x2f6e6977
     61c:	656e                	ld	a0,216(sp)
     61e:	62696c77          	0x62696c77
     622:	62696c2f          	0x62696c2f
     626:	6e692f63          	0x6e692f63
     62a:	64756c63          	bltu	a0,t2,c82 <_start-0xf42e>
     62e:	2f65                	addiw	t5,t5,25
     630:	00737973          	csrrci	s2,0x7,6
     634:	6d6f682f          	0x6d6f682f
     638:	2f65                	addiw	t5,t5,25
     63a:	6164                	ld	s1,192(a0)
     63c:	696e                	ld	s2,216(sp)
     63e:	6c65                	lui	s8,0x19
     640:	7369722f          	0x7369722f
     644:	732f7663          	bgeu	t5,s2,d70 <_start-0xf340>
     648:	6372                	ld	t1,280(sp)
     64a:	77656e2f          	0x77656e2f
     64e:	696c                	ld	a1,208(a0)
     650:	2d62                	fld	fs10,24(sp)
     652:	77677963          	bgeu	a4,s6,dc4 <_start-0xf2ec>
     656:	6e69                	lui	t3,0x1a
     658:	77656e2f          	0x77656e2f
     65c:	696c                	ld	a1,208(a0)
     65e:	2f62                	fld	ft10,24(sp)
     660:	696c                	ld	a1,208(a0)
     662:	6362                	ld	t1,24(sp)
     664:	6565722f          	0x6565722f
     668:	746e                	ld	s0,248(sp)
     66a:	0000                	unimp
     66c:	64647473          	csrrci	s0,0x646,8
     670:	6665                	lui	a2,0x19
     672:	682e                	ld	a6,200(sp)
     674:	0100                	addi	s0,sp,128
     676:	0000                	unimp
     678:	745f 7079 7365      	0x73657079745f
     67e:	682e                	ld	a6,200(sp)
     680:	0200                	addi	s0,sp,256
     682:	0000                	unimp
     684:	6572                	ld	a0,280(sp)
     686:	6e65                	lui	t3,0x19
     688:	2e74                	fld	fa3,216(a2)
     68a:	0068                	addi	a0,sp,12
     68c:	0002                	c.slli64	zero
     68e:	6c00                	ld	s0,24(s0)
     690:	2e6b636f          	jal	t1,b6976 <__global_pointer$+0xa4cf6>
     694:	0068                	addi	a0,sp,12
     696:	0002                	c.slli64	zero
     698:	6900                	ld	s0,16(a0)
     69a:	706d                	c.lui	zero,0xffffb
     69c:	7275                	lui	tp,0xffffd
     69e:	2e65                	addiw	t3,t3,25
     6a0:	00030063          	beqz	t1,6a0 <_start-0xfa10>
     6a4:	0000                	unimp
     6a6:	000001e7          	jalr	gp,zero # 0 <_start-0x100b0>
     6aa:	00a20003          	lb	zero,10(tp) # ffffffffffffd00a <__global_pointer$+0xfffffffffffeb38a>
     6ae:	0000                	unimp
     6b0:	0101                	addi	sp,sp,0
     6b2:	000d0efb          	0xd0efb
     6b6:	0101                	addi	sp,sp,0
     6b8:	0101                	addi	sp,sp,0
     6ba:	0000                	unimp
     6bc:	0100                	addi	s0,sp,128
     6be:	0000                	unimp
     6c0:	2f01                	sext.w	t5,t5
     6c2:	6f68                	ld	a0,216(a4)
     6c4:	656d                	lui	a0,0x1b
     6c6:	6e61642f          	0x6e61642f
     6ca:	6569                	lui	a0,0x1a
     6cc:	2f6c                	fld	fa1,216(a4)
     6ce:	6972                	ld	s2,280(sp)
     6d0:	2f766373          	csrrsi	t1,0x2f7,12
     6d4:	2f637273          	csrrci	tp,0x2f6,6
     6d8:	656e                	ld	a0,216(sp)
     6da:	62696c77          	0x62696c77
     6de:	632d                	lui	t1,0xb
     6e0:	6779                	lui	a4,0x1e
     6e2:	2f6e6977          	0x2f6e6977
     6e6:	656e                	ld	a0,216(sp)
     6e8:	62696c77          	0x62696c77
     6ec:	62696c2f          	0x62696c2f
     6f0:	696d2f63          	0x696d2f63
     6f4:	2f006373          	csrrsi	t1,0x2f0,0
     6f8:	6f68                	ld	a0,216(a4)
     6fa:	656d                	lui	a0,0x1b
     6fc:	6e61642f          	0x6e61642f
     700:	6569                	lui	a0,0x1a
     702:	2f6c                	fld	fa1,216(a4)
     704:	6972                	ld	s2,280(sp)
     706:	2f766373          	csrrsi	t1,0x2f7,12
     70a:	736f7263          	bgeu	t5,s6,e2e <_start-0xf282>
     70e:	61686373          	csrrsi	t1,0x616,16
     712:	6e69                	lui	t3,0x1a
     714:	62696c2f          	0x62696c2f
     718:	6363672f          	0x6363672f
     71c:	7369722f          	0x7369722f
     720:	34367663          	bgeu	a2,gp,a6c <_start-0xf644>
     724:	6c2d                	lui	s8,0xb
     726:	6c652d73          	csrrs	s10,0x6c6,a0
     72a:	2f66                	fld	ft10,88(sp)
     72c:	2e39                	addiw	t3,t3,14
     72e:	2e32                	fld	ft8,264(sp)
     730:	2f30                	fld	fa2,88(a4)
     732:	6e69                	lui	t3,0x1a
     734:	64756c63          	bltu	a0,t2,d8c <_start-0xf324>
     738:	0065                	c.nop	25
     73a:	6900                	ld	s0,16(a0)
     73c:	696e                	ld	s2,216(sp)
     73e:	2e74                	fld	fa3,216(a2)
     740:	00010063          	beqz	sp,740 <_start-0xf970>
     744:	7300                	ld	s0,32(a4)
     746:	6474                	ld	a3,200(s0)
     748:	6564                	ld	s1,200(a0)
     74a:	2e66                	fld	ft8,88(sp)
     74c:	0068                	addi	a0,sp,12
     74e:	0002                	c.slli64	zero
     750:	0000                	unimp
     752:	0105                	addi	sp,sp,1
     754:	0900                	addi	s0,sp,144
     756:	ee02                	sd	zero,280(sp)
     758:	0101                	addi	sp,sp,0
     75a:	0000                	unimp
     75c:	0000                	unimp
     75e:	0300                	addi	s0,sp,384
     760:	011e                	slli	sp,sp,0x7
     762:	0305                	addi	t1,t1,1
     764:	00090103          	lb	sp,0(s2) # 18000 <__global_pointer$+0x6380>
     768:	0100                	addi	s0,sp,128
     76a:	00090103          	lb	sp,0(s2)
     76e:	0100                	addi	s0,sp,128
     770:	00090203          	lb	tp,0(s2)
     774:	0100                	addi	s0,sp,128
     776:	0105                	addi	sp,sp,1
     778:	0306                	slli	t1,t1,0x1
     77a:	097c                	addi	a5,sp,156
     77c:	0000                	unimp
     77e:	0501                	addi	a0,a0,0
     780:	031f 0904 0006      	0x60904031f
     786:	0501                	addi	a0,a0,0
     788:	0301                	addi	t1,t1,0
     78a:	097c                	addi	a5,sp,156
     78c:	0010                	0x10
     78e:	0501                	addi	a0,a0,0
     790:	031f 0904 0004      	0x40904031f
     796:	0501                	addi	a0,a0,0
     798:	01030603          	lb	a2,16(t1) # b010 <_start-0x50a0>
     79c:	0409                	addi	s0,s0,2
     79e:	0100                	addi	s0,sp,128
     7a0:	0f05                	addi	t5,t5,1
     7a2:	00090003          	lb	zero,0(s2)
     7a6:	0100                	addi	s0,sp,128
     7a8:	0305                	addi	t1,t1,1
     7aa:	0306                	slli	t1,t1,0x1
     7ac:	0900                	addi	s0,sp,144
     7ae:	0000                	unimp
     7b0:	0501                	addi	a0,a0,0
     7b2:	030a                	slli	t1,t1,0x2
     7b4:	0900                	addi	s0,sp,144
     7b6:	0008                	0x8
     7b8:	0501                	addi	a0,a0,0
     7ba:	0005                	c.nop	1
     7bc:	0402                	c.slli64	s0
     7be:	01030603          	lb	a2,16(t1)
     7c2:	0209                	addi	tp,tp,2
     7c4:	0100                	addi	s0,sp,128
     7c6:	1b05                	addi	s6,s6,-31
     7c8:	0200                	addi	s0,sp,256
     7ca:	0304                	addi	s1,sp,384
     7cc:	0306                	slli	t1,t1,0x1
     7ce:	097f                	0x97f
     7d0:	0002                	c.slli64	zero
     7d2:	0501                	addi	a0,a0,0
     7d4:	0005                	c.nop	1
     7d6:	0402                	c.slli64	s0
     7d8:	09010303          	lb	t1,144(sp)
     7dc:	0004                	0x4
     7de:	0501                	addi	a0,a0,0
     7e0:	001a                	c.slli	zero,0x6
     7e2:	0402                	c.slli64	s0
     7e4:	7f030603          	lb	a2,2032(t1)
     7e8:	0209                	addi	tp,tp,2
     7ea:	0100                	addi	s0,sp,128
     7ec:	0f05                	addi	t5,t5,1
     7ee:	0200                	addi	s0,sp,256
     7f0:	0304                	addi	s1,sp,384
     7f2:	00090003          	lb	zero,0(s2)
     7f6:	0100                	addi	s0,sp,128
     7f8:	0305                	addi	t1,t1,1
     7fa:	0200                	addi	s0,sp,256
     7fc:	0304                	addi	s1,sp,384
     7fe:	0306                	slli	t1,t1,0x1
     800:	0900                	addi	s0,sp,144
     802:	0000                	unimp
     804:	0601                	addi	a2,a2,0
     806:	04090703          	lb	a4,64(s2)
     80a:	0100                	addi	s0,sp,128
     80c:	1c05                	addi	s8,s8,-31
     80e:	0306                	slli	t1,t1,0x1
     810:	0900                	addi	s0,sp,144
     812:	0000                	unimp
     814:	0501                	addi	a0,a0,0
     816:	01030603          	lb	a2,16(t1)
     81a:	1409                	addi	s0,s0,-30
     81c:	0100                	addi	s0,sp,128
     81e:	0f05                	addi	t5,t5,1
     820:	00090003          	lb	zero,0(s2)
     824:	0100                	addi	s0,sp,128
     826:	0305                	addi	t1,t1,1
     828:	0306                	slli	t1,t1,0x1
     82a:	0900                	addi	s0,sp,144
     82c:	0000                	unimp
     82e:	0501                	addi	a0,a0,0
     830:	030a                	slli	t1,t1,0x2
     832:	0900                	addi	s0,sp,144
     834:	0008                	0x8
     836:	0501                	addi	a0,a0,0
     838:	0005                	c.nop	1
     83a:	0402                	c.slli64	s0
     83c:	01030603          	lb	a2,16(t1)
     840:	0209                	addi	tp,tp,2
     842:	0100                	addi	s0,sp,128
     844:	1b05                	addi	s6,s6,-31
     846:	0200                	addi	s0,sp,256
     848:	0304                	addi	s1,sp,384
     84a:	0306                	slli	t1,t1,0x1
     84c:	097f                	0x97f
     84e:	0002                	c.slli64	zero
     850:	0501                	addi	a0,a0,0
     852:	0005                	c.nop	1
     854:	0402                	c.slli64	s0
     856:	09010303          	lb	t1,144(sp)
     85a:	0004                	0x4
     85c:	0501                	addi	a0,a0,0
     85e:	001a                	c.slli	zero,0x6
     860:	0402                	c.slli64	s0
     862:	7f030603          	lb	a2,2032(t1)
     866:	0209                	addi	tp,tp,2
     868:	0100                	addi	s0,sp,128
     86a:	0f05                	addi	t5,t5,1
     86c:	0200                	addi	s0,sp,256
     86e:	0304                	addi	s1,sp,384
     870:	00090003          	lb	zero,0(s2)
     874:	0100                	addi	s0,sp,128
     876:	0305                	addi	t1,t1,1
     878:	0200                	addi	s0,sp,256
     87a:	0304                	addi	s1,sp,384
     87c:	0306                	slli	t1,t1,0x1
     87e:	0900                	addi	s0,sp,144
     880:	0000                	unimp
     882:	0501                	addi	a0,a0,0
     884:	0301                	addi	t1,t1,0
     886:	0902                	c.slli64	s2
     888:	0004                	0x4
     88a:	0901                	addi	s2,s2,0
     88c:	000c                	0xc
     88e:	0100                	addi	s0,sp,128
     890:	bc01                	j	2a0 <_start-0xfe10>
     892:	0001                	nop
     894:	0300                	addi	s0,sp,384
     896:	5e00                	lw	s0,56(a2)
     898:	0000                	unimp
     89a:	0100                	addi	s0,sp,128
     89c:	fb01                	bnez	a4,7ac <_start-0xf904>
     89e:	0d0e                	slli	s10,s10,0x3
     8a0:	0100                	addi	s0,sp,128
     8a2:	0101                	addi	sp,sp,0
     8a4:	0001                	nop
     8a6:	0000                	unimp
     8a8:	0001                	nop
     8aa:	0100                	addi	s0,sp,128
     8ac:	6d6f682f          	0x6d6f682f
     8b0:	2f65                	addiw	t5,t5,25
     8b2:	6164                	ld	s1,192(a0)
     8b4:	696e                	ld	s2,216(sp)
     8b6:	6c65                	lui	s8,0x19
     8b8:	7369722f          	0x7369722f
     8bc:	732f7663          	bgeu	t5,s2,fe8 <_start-0xf0c8>
     8c0:	6372                	ld	t1,280(sp)
     8c2:	77656e2f          	0x77656e2f
     8c6:	696c                	ld	a1,208(a0)
     8c8:	2d62                	fld	fs10,24(sp)
     8ca:	77677963          	bgeu	a4,s6,103c <_start-0xf074>
     8ce:	6e69                	lui	t3,0x1a
     8d0:	77656e2f          	0x77656e2f
     8d4:	696c                	ld	a1,208(a0)
     8d6:	2f62                	fld	ft10,24(sp)
     8d8:	696c                	ld	a1,208(a0)
     8da:	6362                	ld	t1,24(sp)
     8dc:	63616d2f          	0x63616d2f
     8e0:	6968                	ld	a0,208(a0)
     8e2:	656e                	ld	a0,216(sp)
     8e4:	7369722f          	0x7369722f
     8e8:	00007663          	bgeu	zero,zero,8f4 <_start-0xf7bc>
     8ec:	656d                	lui	a0,0x1b
     8ee:	736d                	lui	t1,0xffffb
     8f0:	7465                	lui	s0,0xffff9
     8f2:	532e                	lw	t1,232(sp)
     8f4:	0100                	addi	s0,sp,128
     8f6:	0000                	unimp
     8f8:	0000                	unimp
     8fa:	0209                	addi	tp,tp,2
     8fc:	0258                	addi	a4,sp,260
     8fe:	0001                	nop
     900:	0000                	unimp
     902:	0000                	unimp
     904:	03011d03          	lh	s10,48(sp)
     908:	0901                	addi	s2,s2,0
     90a:	0002                	c.slli64	zero
     90c:	0301                	addi	t1,t1,0
     90e:	0901                	addi	s2,s2,0
     910:	0002                	c.slli64	zero
     912:	0301                	addi	t1,t1,0
     914:	0901                	addi	s2,s2,0
     916:	0004                	0x4
     918:	0301                	addi	t1,t1,0
     91a:	0901                	addi	s2,s2,0
     91c:	0004                	0x4
     91e:	0301                	addi	t1,t1,0
     920:	00020903          	lb	s2,0(tp) # 0 <_start-0x100b0>
     924:	0301                	addi	t1,t1,0
     926:	00020903          	lb	s2,0(tp) # 0 <_start-0x100b0>
     92a:	0301                	addi	t1,t1,0
     92c:	0901                	addi	s2,s2,0
     92e:	0004                	0x4
     930:	0301                	addi	t1,t1,0
     932:	0901                	addi	s2,s2,0
     934:	0002                	c.slli64	zero
     936:	0301                	addi	t1,t1,0
     938:	00020903          	lb	s2,0(tp) # 0 <_start-0x100b0>
     93c:	0301                	addi	t1,t1,0
     93e:	0901                	addi	s2,s2,0
     940:	0002                	c.slli64	zero
     942:	0301                	addi	t1,t1,0
     944:	00020907          	0x20907
     948:	0301                	addi	t1,t1,0
     94a:	0901                	addi	s2,s2,0
     94c:	0002                	c.slli64	zero
     94e:	0301                	addi	t1,t1,0
     950:	0902                	c.slli64	s2
     952:	0004                	0x4
     954:	0301                	addi	t1,t1,0
     956:	0901                	addi	s2,s2,0
     958:	0002                	c.slli64	zero
     95a:	0301                	addi	t1,t1,0
     95c:	00020903          	lb	s2,0(tp) # 0 <_start-0x100b0>
     960:	0301                	addi	t1,t1,0
     962:	0901                	addi	s2,s2,0
     964:	0004                	0x4
     966:	0301                	addi	t1,t1,0
     968:	0901                	addi	s2,s2,0
     96a:	0002                	c.slli64	zero
     96c:	0301                	addi	t1,t1,0
     96e:	0901                	addi	s2,s2,0
     970:	0004                	0x4
     972:	0301                	addi	t1,t1,0
     974:	0904                	addi	s1,sp,144
     976:	0002                	c.slli64	zero
     978:	0301                	addi	t1,t1,0
     97a:	0902                	c.slli64	s2
     97c:	0004                	0x4
     97e:	0301                	addi	t1,t1,0
     980:	0901                	addi	s2,s2,0
     982:	0004                	0x4
     984:	0301                	addi	t1,t1,0
     986:	0901                	addi	s2,s2,0
     988:	0004                	0x4
     98a:	0301                	addi	t1,t1,0
     98c:	0901                	addi	s2,s2,0
     98e:	0004                	0x4
     990:	0301                	addi	t1,t1,0
     992:	0901                	addi	s2,s2,0
     994:	0004                	0x4
     996:	0301                	addi	t1,t1,0
     998:	0901                	addi	s2,s2,0
     99a:	0004                	0x4
     99c:	0301                	addi	t1,t1,0
     99e:	0901                	addi	s2,s2,0
     9a0:	0004                	0x4
     9a2:	0301                	addi	t1,t1,0
     9a4:	0901                	addi	s2,s2,0
     9a6:	0004                	0x4
     9a8:	0301                	addi	t1,t1,0
     9aa:	0901                	addi	s2,s2,0
     9ac:	0004                	0x4
     9ae:	0301                	addi	t1,t1,0
     9b0:	0901                	addi	s2,s2,0
     9b2:	0004                	0x4
     9b4:	0301                	addi	t1,t1,0
     9b6:	0901                	addi	s2,s2,0
     9b8:	0004                	0x4
     9ba:	0301                	addi	t1,t1,0
     9bc:	0901                	addi	s2,s2,0
     9be:	0004                	0x4
     9c0:	0301                	addi	t1,t1,0
     9c2:	0901                	addi	s2,s2,0
     9c4:	0004                	0x4
     9c6:	0301                	addi	t1,t1,0
     9c8:	0901                	addi	s2,s2,0
     9ca:	0004                	0x4
     9cc:	0301                	addi	t1,t1,0
     9ce:	0901                	addi	s2,s2,0
     9d0:	0004                	0x4
     9d2:	0301                	addi	t1,t1,0
     9d4:	0902                	c.slli64	s2
     9d6:	0004                	0x4
     9d8:	0301                	addi	t1,t1,0
     9da:	00020903          	lb	s2,0(tp) # 0 <_start-0x100b0>
     9de:	0301                	addi	t1,t1,0
     9e0:	0901                	addi	s2,s2,0
     9e2:	0004                	0x4
     9e4:	0301                	addi	t1,t1,0
     9e6:	0901                	addi	s2,s2,0
     9e8:	0004                	0x4
     9ea:	0301                	addi	t1,t1,0
     9ec:	0901                	addi	s2,s2,0
     9ee:	0002                	c.slli64	zero
     9f0:	0301                	addi	t1,t1,0
     9f2:	0901                	addi	s2,s2,0
     9f4:	0004                	0x4
     9f6:	0301                	addi	t1,t1,0
     9f8:	0902                	c.slli64	s2
     9fa:	0002                	c.slli64	zero
     9fc:	0301                	addi	t1,t1,0
     9fe:	0901                	addi	s2,s2,0
     a00:	0004                	0x4
     a02:	0301                	addi	t1,t1,0
     a04:	0902                	c.slli64	s2
     a06:	0002                	c.slli64	zero
     a08:	0301                	addi	t1,t1,0
     a0a:	00020903          	lb	s2,0(tp) # 0 <_start-0x100b0>
     a0e:	0301                	addi	t1,t1,0
     a10:	0901                	addi	s2,s2,0
     a12:	0004                	0x4
     a14:	0301                	addi	t1,t1,0
     a16:	0901                	addi	s2,s2,0
     a18:	0004                	0x4
     a1a:	0301                	addi	t1,t1,0
     a1c:	0901                	addi	s2,s2,0
     a1e:	0002                	c.slli64	zero
     a20:	0301                	addi	t1,t1,0
     a22:	0901                	addi	s2,s2,0
     a24:	0002                	c.slli64	zero
     a26:	0301                	addi	t1,t1,0
     a28:	0901                	addi	s2,s2,0
     a2a:	0004                	0x4
     a2c:	0301                	addi	t1,t1,0
     a2e:	0902                	c.slli64	s2
     a30:	0002                	c.slli64	zero
     a32:	0301                	addi	t1,t1,0
     a34:	0901                	addi	s2,s2,0
     a36:	0002                	c.slli64	zero
     a38:	0301                	addi	t1,t1,0
     a3a:	0901                	addi	s2,s2,0
     a3c:	0002                	c.slli64	zero
     a3e:	0301                	addi	t1,t1,0
     a40:	0901                	addi	s2,s2,0
     a42:	0002                	c.slli64	zero
     a44:	0301                	addi	t1,t1,0
     a46:	0901                	addi	s2,s2,0
     a48:	0004                	0x4
     a4a:	0901                	addi	s2,s2,0
     a4c:	0002                	c.slli64	zero
     a4e:	0100                	addi	s0,sp,128
     a50:	0d01                	addi	s10,s10,0
     a52:	03000003          	lb	zero,48(zero) # 30 <_start-0x10080>
     a56:	5700                	lw	s0,40(a4)
     a58:	0001                	nop
     a5a:	0100                	addi	s0,sp,128
     a5c:	fb01                	bnez	a4,96c <_start-0xf744>
     a5e:	0d0e                	slli	s10,s10,0x3
     a60:	0100                	addi	s0,sp,128
     a62:	0101                	addi	sp,sp,0
     a64:	0001                	nop
     a66:	0000                	unimp
     a68:	0001                	nop
     a6a:	0100                	addi	s0,sp,128
     a6c:	6d6f682f          	0x6d6f682f
     a70:	2f65                	addiw	t5,t5,25
     a72:	6164                	ld	s1,192(a0)
     a74:	696e                	ld	s2,216(sp)
     a76:	6c65                	lui	s8,0x19
     a78:	7369722f          	0x7369722f
     a7c:	732f7663          	bgeu	t5,s2,11a8 <_start-0xef08>
     a80:	6372                	ld	t1,280(sp)
     a82:	77656e2f          	0x77656e2f
     a86:	696c                	ld	a1,208(a0)
     a88:	2d62                	fld	fs10,24(sp)
     a8a:	77677963          	bgeu	a4,s6,11fc <_start-0xeeb4>
     a8e:	6e69                	lui	t3,0x1a
     a90:	77656e2f          	0x77656e2f
     a94:	696c                	ld	a1,208(a0)
     a96:	2f62                	fld	ft10,24(sp)
     a98:	696c                	ld	a1,208(a0)
     a9a:	6362                	ld	t1,24(sp)
     a9c:	6474732f          	0x6474732f
     aa0:	696c                	ld	a1,208(a0)
     aa2:	0062                	c.slli	zero,0x18
     aa4:	6d6f682f          	0x6d6f682f
     aa8:	2f65                	addiw	t5,t5,25
     aaa:	6164                	ld	s1,192(a0)
     aac:	696e                	ld	s2,216(sp)
     aae:	6c65                	lui	s8,0x19
     ab0:	7369722f          	0x7369722f
     ab4:	632f7663          	bgeu	t5,s2,10e0 <_start-0xefd0>
     ab8:	6f72                	ld	t5,280(sp)
     aba:	68637373          	csrrci	t1,0x686,6
     abe:	6961                	lui	s2,0x18
     ac0:	2f6e                	fld	ft10,216(sp)
     ac2:	696c                	ld	a1,208(a0)
     ac4:	2f62                	fld	ft10,24(sp)
     ac6:	2f636367          	0x2f636367
     aca:	6972                	ld	s2,280(sp)
     acc:	36766373          	csrrsi	t1,0x367,12
     ad0:	2d34                	fld	fa3,88(a0)
     ad2:	736c                	ld	a1,224(a4)
     ad4:	652d                	lui	a0,0xb
     ad6:	666c                	ld	a1,200(a2)
     ad8:	322e392f          	0x322e392f
     adc:	302e                	fld	ft0,232(sp)
     ade:	636e692f          	0x636e692f
     ae2:	756c                	ld	a1,232(a0)
     ae4:	6564                	ld	s1,200(a0)
     ae6:	2f00                	fld	fs0,24(a4)
     ae8:	6f68                	ld	a0,216(a4)
     aea:	656d                	lui	a0,0x1b
     aec:	6e61642f          	0x6e61642f
     af0:	6569                	lui	a0,0x1a
     af2:	2f6c                	fld	fa1,216(a4)
     af4:	6972                	ld	s2,280(sp)
     af6:	2f766373          	csrrsi	t1,0x2f7,12
     afa:	2f637273          	csrrci	tp,0x2f6,6
     afe:	656e                	ld	a0,216(sp)
     b00:	62696c77          	0x62696c77
     b04:	632d                	lui	t1,0xb
     b06:	6779                	lui	a4,0x1e
     b08:	2f6e6977          	0x2f6e6977
     b0c:	656e                	ld	a0,216(sp)
     b0e:	62696c77          	0x62696c77
     b12:	62696c2f          	0x62696c2f
     b16:	6e692f63          	0x6e692f63
     b1a:	64756c63          	bltu	a0,t2,1172 <_start-0xef3e>
     b1e:	2f65                	addiw	t5,t5,25
     b20:	00737973          	csrrci	s2,0x7,6
     b24:	6d6f682f          	0x6d6f682f
     b28:	2f65                	addiw	t5,t5,25
     b2a:	6164                	ld	s1,192(a0)
     b2c:	696e                	ld	s2,216(sp)
     b2e:	6c65                	lui	s8,0x19
     b30:	7369722f          	0x7369722f
     b34:	732f7663          	bgeu	t5,s2,1260 <_start-0xee50>
     b38:	6372                	ld	t1,280(sp)
     b3a:	77656e2f          	0x77656e2f
     b3e:	696c                	ld	a1,208(a0)
     b40:	2d62                	fld	fs10,24(sp)
     b42:	77677963          	bgeu	a4,s6,12b4 <_start-0xedfc>
     b46:	6e69                	lui	t3,0x1a
     b48:	77656e2f          	0x77656e2f
     b4c:	696c                	ld	a1,208(a0)
     b4e:	2f62                	fld	ft10,24(sp)
     b50:	696c                	ld	a1,208(a0)
     b52:	6362                	ld	t1,24(sp)
     b54:	636e692f          	0x636e692f
     b58:	756c                	ld	a1,232(a0)
     b5a:	6564                	ld	s1,200(a0)
     b5c:	0000                	unimp
     b5e:	5f5f 7461 7865      	0x786574615f5f
     b64:	7469                	lui	s0,0xffffa
     b66:	632e                	ld	t1,200(sp)
     b68:	0100                	addi	s0,sp,128
     b6a:	0000                	unimp
     b6c:	64647473          	csrrci	s0,0x646,8
     b70:	6665                	lui	a2,0x19
     b72:	682e                	ld	a6,200(sp)
     b74:	0200                	addi	s0,sp,256
     b76:	0000                	unimp
     b78:	745f 7079 7365      	0x73657079745f
     b7e:	682e                	ld	a6,200(sp)
     b80:	0300                	addi	s0,sp,384
     b82:	0000                	unimp
     b84:	6572                	ld	a0,280(sp)
     b86:	6e65                	lui	t3,0x19
     b88:	2e74                	fld	fa3,216(a2)
     b8a:	0068                	addi	a0,sp,12
     b8c:	6c000003          	lb	zero,1728(zero) # 6c0 <_start-0xf9f0>
     b90:	2e6b636f          	jal	t1,b6e76 <__global_pointer$+0xa51f6>
     b94:	0068                	addi	a0,sp,12
     b96:	73000003          	lb	zero,1840(zero) # 730 <_start-0xf980>
     b9a:	6474                	ld	a3,200(s0)
     b9c:	696c                	ld	a1,208(a0)
     b9e:	2e62                	fld	ft8,24(sp)
     ba0:	0068                	addi	a0,sp,12
     ba2:	0004                	0x4
     ba4:	6100                	ld	s0,0(a0)
     ba6:	6574                	ld	a3,200(a0)
     ba8:	6978                	ld	a4,208(a0)
     baa:	2e74                	fld	fa3,216(a2)
     bac:	0068                	addi	a0,sp,12
     bae:	0001                	nop
     bb0:	0000                	unimp
     bb2:	0105                	addi	sp,sp,1
     bb4:	0900                	addi	s0,sp,144
     bb6:	0202                	c.slli64	tp
     bb8:	00000103          	lb	sp,0(zero) # 0 <_start-0x100b0>
     bbc:	0000                	unimp
     bbe:	0300                	addi	s0,sp,384
     bc0:	050100c7          	0x50100c7
     bc4:	09010303          	lb	t1,144(sp)
     bc8:	0000                	unimp
     bca:	0301                	addi	t1,t1,0
     bcc:	0901                	addi	s2,s2,0
     bce:	0000                	unimp
     bd0:	0301                	addi	t1,t1,0
     bd2:	00000903          	lb	s2,0(zero) # 0 <_start-0x100b0>
     bd6:	0301                	addi	t1,t1,0
     bd8:	00000903          	lb	s2,0(zero) # 0 <_start-0x100b0>
     bdc:	0501                	addi	a0,a0,0
     bde:	00030607          	0x30607
     be2:	0009                	c.nop	2
     be4:	0100                	addi	s0,sp,128
     be6:	0505                	addi	a0,a0,1
     be8:	04090003          	lb	zero,64(s2) # 18040 <__global_pointer$+0x63c0>
     bec:	0100                	addi	s0,sp,128
     bee:	0305                	addi	t1,t1,1
     bf0:	0306                	slli	t1,t1,0x1
     bf2:	0901                	addi	s2,s2,0
     bf4:	0004                	0x4
     bf6:	0501                	addi	a0,a0,0
     bf8:	0606                	slli	a2,a2,0x1
     bfa:	00090003          	lb	zero,0(s2)
     bfe:	0100                	addi	s0,sp,128
     c00:	0305                	addi	t1,t1,1
     c02:	0306                	slli	t1,t1,0x1
     c04:	0909                	addi	s2,s2,2
     c06:	0002                	c.slli64	zero
     c08:	0501                	addi	a0,a0,0
     c0a:	0608                	addi	a0,sp,768
     c0c:	00090003          	lb	zero,0(s2)
     c10:	0100                	addi	s0,sp,128
     c12:	0605                	addi	a2,a2,1
     c14:	02090003          	lb	zero,32(s2)
     c18:	0100                	addi	s0,sp,128
     c1a:	0305                	addi	t1,t1,1
     c1c:	0306                	slli	t1,t1,0x1
     c1e:	091c                	addi	a5,sp,144
     c20:	0006                	c.slli	zero,0x1
     c22:	0501                	addi	a0,a0,0
     c24:	0606                	slli	a2,a2,0x1
     c26:	00090003          	lb	zero,0(s2)
     c2a:	0100                	addi	s0,sp,128
     c2c:	0705                	addi	a4,a4,1
     c2e:	0306                	slli	t1,t1,0x1
     c30:	091c                	addi	a5,sp,144
     c32:	0002                	c.slli64	zero
     c34:	0301                	addi	t1,t1,0
     c36:	0902                	c.slli64	s2
     c38:	0000                	unimp
     c3a:	0501                	addi	a0,a0,0
     c3c:	061e                	slli	a2,a2,0x7
     c3e:	06090003          	lb	zero,96(s2)
     c42:	0100                	addi	s0,sp,128
     c44:	0705                	addi	a4,a4,1
     c46:	0306                	slli	t1,t1,0x1
     c48:	0901                	addi	s2,s2,0
     c4a:	0004                	0x4
     c4c:	0501                	addi	a0,a0,0
     c4e:	0616                	slli	a2,a2,0x5
     c50:	00090003          	lb	zero,0(s2)
     c54:	0100                	addi	s0,sp,128
     c56:	1c05                	addi	s8,s8,-31
     c58:	04090003          	lb	zero,64(s2)
     c5c:	0100                	addi	s0,sp,128
     c5e:	1605                	addi	a2,a2,-31
     c60:	06090003          	lb	zero,96(s2)
     c64:	0100                	addi	s0,sp,128
     c66:	0705                	addi	a4,a4,1
     c68:	0306                	slli	t1,t1,0x1
     c6a:	0901                	addi	s2,s2,0
     c6c:	0008                	0x8
     c6e:	0501                	addi	a0,a0,0
     c70:	0622                	slli	a2,a2,0x8
     c72:	00090003          	lb	zero,0(s2)
     c76:	0100                	addi	s0,sp,128
     c78:	0705                	addi	a4,a4,1
     c7a:	0306                	slli	t1,t1,0x1
     c7c:	0901                	addi	s2,s2,0
     c7e:	0004                	0x4
     c80:	0501                	addi	a0,a0,0
     c82:	060a                	slli	a2,a2,0x2
     c84:	00090003          	lb	zero,0(s2)
     c88:	0100                	addi	s0,sp,128
     c8a:	0305                	addi	t1,t1,1
     c8c:	0306                	slli	t1,t1,0x1
     c8e:	00060903          	lb	s2,0(a2) # 19000 <__global_pointer$+0x7380>
     c92:	0501                	addi	a0,a0,0
     c94:	0616                	slli	a2,a2,0x5
     c96:	00090003          	lb	zero,0(s2)
     c9a:	0100                	addi	s0,sp,128
     c9c:	1205                	addi	tp,tp,-31
     c9e:	06090003          	lb	zero,96(s2)
     ca2:	0100                	addi	s0,sp,128
     ca4:	1605                	addi	a2,a2,-31
     ca6:	04090003          	lb	zero,64(s2)
     caa:	0100                	addi	s0,sp,128
     cac:	0305                	addi	t1,t1,1
     cae:	0306                	slli	t1,t1,0x1
     cb0:	0902                	c.slli64	s2
     cb2:	0004                	0x4
     cb4:	0301                	addi	t1,t1,0
     cb6:	0902                	c.slli64	s2
     cb8:	0000                	unimp
     cba:	0501                	addi	a0,a0,0
     cbc:	060a                	slli	a2,a2,0x2
     cbe:	00090003          	lb	zero,0(s2)
     cc2:	0100                	addi	s0,sp,128
     cc4:	0705                	addi	a4,a4,1
     cc6:	0306                	slli	t1,t1,0x1
     cc8:	7fb5                	lui	t6,0xfffed
     cca:	0409                	addi	s0,s0,2
     ccc:	0100                	addi	s0,sp,128
     cce:	1a05                	addi	s4,s4,-31
     cd0:	0306                	slli	t1,t1,0x1
     cd2:	0900                	addi	s0,sp,144
     cd4:	0000                	unimp
     cd6:	0501                	addi	a0,a0,0
     cd8:	0316                	slli	t1,t1,0x5
     cda:	0900                	addi	s0,sp,144
     cdc:	0004                	0x4
     cde:	0501                	addi	a0,a0,0
     ce0:	0602                	c.slli64	a2
     ce2:	0900c503          	lbu	a0,144(ra)
     ce6:	0006                	c.slli	zero,0x1
     ce8:	0501                	addi	a0,a0,0
     cea:	0610                	addi	a2,sp,768
     cec:	00090003          	lb	zero,0(s2)
     cf0:	0100                	addi	s0,sp,128
     cf2:	0a05                	addi	s4,s4,1
     cf4:	04090603          	lb	a2,64(s2)
     cf8:	0100                	addi	s0,sp,128
     cfa:	1005                	c.nop	-31
     cfc:	02097a03          	0x2097a03
     d00:	0100                	addi	s0,sp,128
     d02:	1605                	addi	a2,a2,-31
     d04:	02090203          	lb	tp,32(s2)
     d08:	0100                	addi	s0,sp,128
     d0a:	1205                	addi	tp,tp,-31
     d0c:	06090003          	lb	zero,96(s2)
     d10:	0100                	addi	s0,sp,128
     d12:	1005                	c.nop	-31
     d14:	02097e03          	0x2097e03
     d18:	0100                	addi	s0,sp,128
     d1a:	0305                	addi	t1,t1,1
     d1c:	0306                	slli	t1,t1,0x1
     d1e:	0902                	c.slli64	s2
     d20:	0004                	0x4
     d22:	0501                	addi	a0,a0,0
     d24:	0612                	slli	a2,a2,0x4
     d26:	00090003          	lb	zero,0(s2)
     d2a:	0100                	addi	s0,sp,128
     d2c:	1605                	addi	a2,a2,-31
     d2e:	02090003          	lb	zero,32(s2)
     d32:	0100                	addi	s0,sp,128
     d34:	0305                	addi	t1,t1,1
     d36:	0306                	slli	t1,t1,0x1
     d38:	0902                	c.slli64	s2
     d3a:	0004                	0x4
     d3c:	0301                	addi	t1,t1,0
     d3e:	0902                	c.slli64	s2
     d40:	0000                	unimp
     d42:	0501                	addi	a0,a0,0
     d44:	060a                	slli	a2,a2,0x2
     d46:	00090003          	lb	zero,0(s2)
     d4a:	0100                	addi	s0,sp,128
     d4c:	0e05                	addi	t3,t3,1
     d4e:	02094203          	lbu	tp,32(s2)
     d52:	0100                	addi	s0,sp,128
     d54:	0105                	addi	sp,sp,1
     d56:	02093f03          	ld	t5,32(s2)
     d5a:	0100                	addi	s0,sp,128
     d5c:	0209                	addi	tp,tp,2
     d5e:	0000                	unimp
     d60:	0101                	addi	sp,sp,0
     d62:	000003c7          	fmsub.s	ft7,ft0,ft0,ft0,rne
     d66:	01500003          	lb	zero,21(zero) # 15 <_start-0x1009b>
     d6a:	0000                	unimp
     d6c:	0101                	addi	sp,sp,0
     d6e:	000d0efb          	0xd0efb
     d72:	0101                	addi	sp,sp,0
     d74:	0101                	addi	sp,sp,0
     d76:	0000                	unimp
     d78:	0100                	addi	s0,sp,128
     d7a:	0000                	unimp
     d7c:	2f01                	sext.w	t5,t5
     d7e:	6f68                	ld	a0,216(a4)
     d80:	656d                	lui	a0,0x1b
     d82:	6e61642f          	0x6e61642f
     d86:	6569                	lui	a0,0x1a
     d88:	2f6c                	fld	fa1,216(a4)
     d8a:	6972                	ld	s2,280(sp)
     d8c:	2f766373          	csrrsi	t1,0x2f7,12
     d90:	2f637273          	csrrci	tp,0x2f6,6
     d94:	656e                	ld	a0,216(sp)
     d96:	62696c77          	0x62696c77
     d9a:	632d                	lui	t1,0xb
     d9c:	6779                	lui	a4,0x1e
     d9e:	2f6e6977          	0x2f6e6977
     da2:	656e                	ld	a0,216(sp)
     da4:	62696c77          	0x62696c77
     da8:	62696c2f          	0x62696c2f
     dac:	74732f63          	0x74732f63
     db0:	6c64                	ld	s1,216(s0)
     db2:	6269                	lui	tp,0x1a
     db4:	2f00                	fld	fs0,24(a4)
     db6:	6f68                	ld	a0,216(a4)
     db8:	656d                	lui	a0,0x1b
     dba:	6e61642f          	0x6e61642f
     dbe:	6569                	lui	a0,0x1a
     dc0:	2f6c                	fld	fa1,216(a4)
     dc2:	6972                	ld	s2,280(sp)
     dc4:	2f766373          	csrrsi	t1,0x2f7,12
     dc8:	736f7263          	bgeu	t5,s6,14ec <_start-0xebc4>
     dcc:	61686373          	csrrsi	t1,0x616,16
     dd0:	6e69                	lui	t3,0x1a
     dd2:	62696c2f          	0x62696c2f
     dd6:	6363672f          	0x6363672f
     dda:	7369722f          	0x7369722f
     dde:	34367663          	bgeu	a2,gp,112a <_start-0xef86>
     de2:	6c2d                	lui	s8,0xb
     de4:	6c652d73          	csrrs	s10,0x6c6,a0
     de8:	2f66                	fld	ft10,88(sp)
     dea:	2e39                	addiw	t3,t3,14
     dec:	2e32                	fld	ft8,264(sp)
     dee:	2f30                	fld	fa2,88(a4)
     df0:	6e69                	lui	t3,0x1a
     df2:	64756c63          	bltu	a0,t2,144a <_start-0xec66>
     df6:	0065                	c.nop	25
     df8:	6d6f682f          	0x6d6f682f
     dfc:	2f65                	addiw	t5,t5,25
     dfe:	6164                	ld	s1,192(a0)
     e00:	696e                	ld	s2,216(sp)
     e02:	6c65                	lui	s8,0x19
     e04:	7369722f          	0x7369722f
     e08:	732f7663          	bgeu	t5,s2,1534 <_start-0xeb7c>
     e0c:	6372                	ld	t1,280(sp)
     e0e:	77656e2f          	0x77656e2f
     e12:	696c                	ld	a1,208(a0)
     e14:	2d62                	fld	fs10,24(sp)
     e16:	77677963          	bgeu	a4,s6,1588 <_start-0xeb28>
     e1a:	6e69                	lui	t3,0x1a
     e1c:	77656e2f          	0x77656e2f
     e20:	696c                	ld	a1,208(a0)
     e22:	2f62                	fld	ft10,24(sp)
     e24:	696c                	ld	a1,208(a0)
     e26:	6362                	ld	t1,24(sp)
     e28:	636e692f          	0x636e692f
     e2c:	756c                	ld	a1,232(a0)
     e2e:	6564                	ld	s1,200(a0)
     e30:	7379732f          	0x7379732f
     e34:	2f00                	fld	fs0,24(a4)
     e36:	6f68                	ld	a0,216(a4)
     e38:	656d                	lui	a0,0x1b
     e3a:	6e61642f          	0x6e61642f
     e3e:	6569                	lui	a0,0x1a
     e40:	2f6c                	fld	fa1,216(a4)
     e42:	6972                	ld	s2,280(sp)
     e44:	2f766373          	csrrsi	t1,0x2f7,12
     e48:	2f637273          	csrrci	tp,0x2f6,6
     e4c:	656e                	ld	a0,216(sp)
     e4e:	62696c77          	0x62696c77
     e52:	632d                	lui	t1,0xb
     e54:	6779                	lui	a4,0x1e
     e56:	2f6e6977          	0x2f6e6977
     e5a:	656e                	ld	a0,216(sp)
     e5c:	62696c77          	0x62696c77
     e60:	62696c2f          	0x62696c2f
     e64:	6e692f63          	0x6e692f63
     e68:	64756c63          	bltu	a0,t2,14c0 <_start-0xebf0>
     e6c:	0065                	c.nop	25
     e6e:	5f00                	lw	s0,56(a4)
     e70:	635f 6c61 5f6c      	0x5f6c6c61635f
     e76:	7461                	lui	s0,0xffff8
     e78:	7865                	lui	a6,0xffff9
     e7a:	7469                	lui	s0,0xffffa
     e7c:	632e                	ld	t1,200(sp)
     e7e:	0100                	addi	s0,sp,128
     e80:	0000                	unimp
     e82:	64647473          	csrrci	s0,0x646,8
     e86:	6665                	lui	a2,0x19
     e88:	682e                	ld	a6,200(sp)
     e8a:	0200                	addi	s0,sp,256
     e8c:	0000                	unimp
     e8e:	745f 7079 7365      	0x73657079745f
     e94:	682e                	ld	a6,200(sp)
     e96:	0300                	addi	s0,sp,384
     e98:	0000                	unimp
     e9a:	6572                	ld	a0,280(sp)
     e9c:	6e65                	lui	t3,0x19
     e9e:	2e74                	fld	fa3,216(a2)
     ea0:	0068                	addi	a0,sp,12
     ea2:	6c000003          	lb	zero,1728(zero) # 6c0 <_start-0xf9f0>
     ea6:	2e6b636f          	jal	t1,b718c <__global_pointer$+0xa550c>
     eaa:	0068                	addi	a0,sp,12
     eac:	73000003          	lb	zero,1840(zero) # 730 <_start-0xf980>
     eb0:	6474                	ld	a3,200(s0)
     eb2:	696c                	ld	a1,208(a0)
     eb4:	2e62                	fld	ft8,24(sp)
     eb6:	0068                	addi	a0,sp,12
     eb8:	0004                	0x4
     eba:	0000                	unimp
     ebc:	0105                	addi	sp,sp,1
     ebe:	0900                	addi	s0,sp,144
     ec0:	7802                	ld	a6,32(sp)
     ec2:	00000103          	lb	sp,0(zero) # 0 <_start-0x100b0>
     ec6:	0000                	unimp
     ec8:	0300                	addi	s0,sp,384
     eca:	00c6                	slli	ra,ra,0x11
     ecc:	0501                	addi	a0,a0,0
     ece:	09010303          	lb	t1,144(sp)
     ed2:	0000                	unimp
     ed4:	0301                	addi	t1,t1,0
     ed6:	0901                	addi	s2,s2,0
     ed8:	0000                	unimp
     eda:	0301                	addi	t1,t1,0
     edc:	0901                	addi	s2,s2,0
     ede:	0000                	unimp
     ee0:	0301                	addi	t1,t1,0
     ee2:	0901                	addi	s2,s2,0
     ee4:	0000                	unimp
     ee6:	0301                	addi	t1,t1,0
     ee8:	0901                	addi	s2,s2,0
     eea:	0000                	unimp
     eec:	0301                	addi	t1,t1,0
     eee:	0901                	addi	s2,s2,0
     ef0:	0000                	unimp
     ef2:	0301                	addi	t1,t1,0
     ef4:	0904                	addi	s1,sp,144
     ef6:	0000                	unimp
     ef8:	0301                	addi	t1,t1,0
     efa:	0905                	addi	s2,s2,1
     efc:	0000                	unimp
     efe:	0501                	addi	a0,a0,0
     f00:	0601                	addi	a2,a2,0
     f02:	00097103          	0x97103
     f06:	0100                	addi	s0,sp,128
     f08:	0705                	addi	a4,a4,1
     f0a:	02090f03          	lb	t5,32(s2)
     f0e:	0100                	addi	s0,sp,128
     f10:	0105                	addi	sp,sp,1
     f12:	00097103          	0x97103
     f16:	0100                	addi	s0,sp,128
     f18:	0705                	addi	a4,a4,1
     f1a:	02090f03          	lb	t5,32(s2)
     f1e:	0100                	addi	s0,sp,128
     f20:	0105                	addi	sp,sp,1
     f22:	04097103          	0x4097103
     f26:	0100                	addi	s0,sp,128
     f28:	0505                	addi	a0,a0,1
     f2a:	04090f03          	lb	t5,64(s2)
     f2e:	0100                	addi	s0,sp,128
     f30:	0305                	addi	t1,t1,1
     f32:	0306                	slli	t1,t1,0x1
     f34:	0901                	addi	s2,s2,0
     f36:	0004                	0x4
     f38:	0301                	addi	t1,t1,0
     f3a:	0901                	addi	s2,s2,0
     f3c:	0000                	unimp
     f3e:	0501                	addi	a0,a0,0
     f40:	0309                	addi	t1,t1,2
     f42:	0900                	addi	s0,sp,144
     f44:	0000                	unimp
     f46:	0501                	addi	a0,a0,0
     f48:	0601                	addi	a2,a2,0
     f4a:	00096f03          	lwu	t5,0(s2)
     f4e:	0100                	addi	s0,sp,128
     f50:	0905                	addi	s2,s2,1
     f52:	0e091103          	lh	sp,224(s2)
     f56:	0100                	addi	s0,sp,128
     f58:	0705                	addi	a4,a4,1
     f5a:	0306                	slli	t1,t1,0x1
     f5c:	0905                	addi	s2,s2,1
     f5e:	000c                	0xc
     f60:	0301                	addi	t1,t1,0
     f62:	0902                	c.slli64	s2
     f64:	0000                	unimp
     f66:	0501                	addi	a0,a0,0
     f68:	0611                	addi	a2,a2,4
     f6a:	00090003          	lb	zero,0(s2)
     f6e:	0100                	addi	s0,sp,128
     f70:	0e05                	addi	t3,t3,1
     f72:	04090003          	lb	zero,64(s2)
     f76:	0100                	addi	s0,sp,128
     f78:	1d05                	addi	s10,s10,-31
     f7a:	0306                	slli	t1,t1,0x1
     f7c:	0900                	addi	s0,sp,144
     f7e:	0004                	0x4
     f80:	0501                	addi	a0,a0,0
     f82:	00030607          	0x30607
     f86:	0009                	c.nop	2
     f88:	0100                	addi	s0,sp,128
     f8a:	0405                	addi	s0,s0,1
     f8c:	0306                	slli	t1,t1,0x1
     f8e:	0902                	c.slli64	s2
     f90:	0008                	0x8
     f92:	0301                	addi	t1,t1,0
     f94:	0902                	c.slli64	s2
     f96:	0000                	unimp
     f98:	0301                	addi	t1,t1,0
     f9a:	00000903          	lb	s2,0(zero) # 0 <_start-0x100b0>
     f9e:	0501                	addi	a0,a0,0
     fa0:	00030607          	0x30607
     fa4:	0009                	c.nop	2
     fa6:	0100                	addi	s0,sp,128
     fa8:	1405                	addi	s0,s0,-31
     faa:	0200                	addi	s0,sp,256
     fac:	0204                	addi	s1,sp,256
     fae:	04090003          	lb	zero,64(s2)
     fb2:	0100                	addi	s0,sp,128
     fb4:	2505                	addiw	a0,a0,1
     fb6:	0306                	slli	t1,t1,0x1
     fb8:	0979                	addi	s2,s2,30
     fba:	0008                	0x8
     fbc:	0501                	addi	a0,a0,0
     fbe:	0626                	slli	a2,a2,0x9
     fc0:	00090003          	lb	zero,0(s2)
     fc4:	0100                	addi	s0,sp,128
     fc6:	1d05                	addi	s10,s10,-31
     fc8:	0306                	slli	t1,t1,0x1
     fca:	0900                	addi	s0,sp,144
     fcc:	0002                	c.slli64	zero
     fce:	0501                	addi	a0,a0,0
     fd0:	00030607          	0x30607
     fd4:	0209                	addi	tp,tp,2
     fd6:	0100                	addi	s0,sp,128
     fd8:	0105                	addi	sp,sp,1
     fda:	0900c203          	lbu	tp,144(ra)
     fde:	0004                	0x4
     fe0:	0501                	addi	a0,a0,0
     fe2:	0604                	addi	s1,sp,768
     fe4:	18094a03          	lbu	s4,384(s2)
     fe8:	0100                	addi	s0,sp,128
     fea:	1505                	addi	a0,a0,-31
     fec:	0306                	slli	t1,t1,0x1
     fee:	0901                	addi	s2,s2,0
     ff0:	0000                	unimp
     ff2:	0501                	addi	a0,a0,0
     ff4:	097f0307          	0x97f0307
     ff8:	0004                	0x4
     ffa:	0501                	addi	a0,a0,0
     ffc:	0604                	addi	s1,sp,768
     ffe:	02090103          	lb	sp,32(s2)
    1002:	0100                	addi	s0,sp,128
    1004:	0705                	addi	a4,a4,1
    1006:	0306                	slli	t1,t1,0x1
    1008:	0900                	addi	s0,sp,144
    100a:	0000                	unimp
    100c:	0501                	addi	a0,a0,0
    100e:	0606                	slli	a2,a2,0x1
    1010:	06090303          	lb	t1,96(s2)
    1014:	0100                	addi	s0,sp,128
    1016:	1105                	addi	sp,sp,-31
    1018:	0306                	slli	t1,t1,0x1
    101a:	0900                	addi	s0,sp,144
    101c:	0000                	unimp
    101e:	0501                	addi	a0,a0,0
    1020:	0604                	addi	s1,sp,768
    1022:	04090303          	lb	t1,64(s2)
    1026:	0100                	addi	s0,sp,128
    1028:	0705                	addi	a4,a4,1
    102a:	0306                	slli	t1,t1,0x1
    102c:	0900                	addi	s0,sp,144
    102e:	0000                	unimp
    1030:	0501                	addi	a0,a0,0
    1032:	0604                	addi	s1,sp,768
    1034:	02090303          	lb	t1,32(s2)
    1038:	0100                	addi	s0,sp,128
    103a:	2105                	addiw	sp,sp,1
    103c:	0306                	slli	t1,t1,0x1
    103e:	00000903          	lb	s2,0(zero) # 0 <_start-0x100b0>
    1042:	0501                	addi	a0,a0,0
    1044:	0306                	slli	t1,t1,0x1
    1046:	0004096b          	0x4096b
    104a:	0501                	addi	a0,a0,0
    104c:	0308                	addi	a0,sp,384
    104e:	0912                	slli	s2,s2,0x4
    1050:	0004                	0x4
    1052:	0501                	addi	a0,a0,0
    1054:	0604                	addi	s1,sp,768
    1056:	04090303          	lb	t1,64(s2)
    105a:	0100                	addi	s0,sp,128
    105c:	2105                	addiw	sp,sp,1
    105e:	0306                	slli	t1,t1,0x1
    1060:	0900                	addi	s0,sp,144
    1062:	0000                	unimp
    1064:	0501                	addi	a0,a0,0
    1066:	030e                	slli	t1,t1,0x3
    1068:	0900                	addi	s0,sp,144
    106a:	0002                	c.slli64	zero
    106c:	0501                	addi	a0,a0,0
    106e:	0606                	slli	a2,a2,0x1
    1070:	04090103          	lb	sp,64(s2)
    1074:	0100                	addi	s0,sp,128
    1076:	0405                	addi	s0,s0,1
    1078:	02090903          	lb	s2,32(s2)
    107c:	0100                	addi	s0,sp,128
    107e:	0705                	addi	a4,a4,1
    1080:	0306                	slli	t1,t1,0x1
    1082:	0900                	addi	s0,sp,144
    1084:	0000                	unimp
    1086:	0501                	addi	a0,a0,0
    1088:	04020017          	auipc	zero,0x4020
    108c:	0301                	addi	t1,t1,0
    108e:	0900                	addi	s0,sp,144
    1090:	000c                	0xc
    1092:	0501                	addi	a0,a0,0
    1094:	46030603          	lb	a2,1120(t1) # b460 <_start-0x4c50>
    1098:	0409                	addi	s0,s0,2
    109a:	0100                	addi	s0,sp,128
    109c:	00090103          	lb	sp,0(s2)
    10a0:	0100                	addi	s0,sp,128
    10a2:	00090103          	lb	sp,0(s2)
    10a6:	0100                	addi	s0,sp,128
    10a8:	00090103          	lb	sp,0(s2)
    10ac:	0100                	addi	s0,sp,128
    10ae:	00090103          	lb	sp,0(s2)
    10b2:	0100                	addi	s0,sp,128
    10b4:	00090103          	lb	sp,0(s2)
    10b8:	0100                	addi	s0,sp,128
    10ba:	00090403          	lb	s0,0(s2)
    10be:	0100                	addi	s0,sp,128
    10c0:	00090503          	lb	a0,0(s2)
    10c4:	0100                	addi	s0,sp,128
    10c6:	00090103          	lb	sp,0(s2)
    10ca:	0100                	addi	s0,sp,128
    10cc:	00090103          	lb	sp,0(s2)
    10d0:	0100                	addi	s0,sp,128
    10d2:	0905                	addi	s2,s2,1
    10d4:	00090003          	lb	zero,0(s2)
    10d8:	0100                	addi	s0,sp,128
    10da:	06092203          	lw	tp,96(s2)
    10de:	0100                	addi	s0,sp,128
    10e0:	1c05                	addi	s8,s8,-31
    10e2:	0306                	slli	t1,t1,0x1
    10e4:	0900                	addi	s0,sp,144
    10e6:	0000                	unimp
    10e8:	0501                	addi	a0,a0,0
    10ea:	030c                	addi	a1,sp,384
    10ec:	0900                	addi	s0,sp,144
    10ee:	000a                	c.slli	zero,0x2
    10f0:	0501                	addi	a0,a0,0
    10f2:	0606                	slli	a2,a2,0x1
    10f4:	04090103          	lb	sp,64(s2)
    10f8:	0100                	addi	s0,sp,128
    10fa:	0705                	addi	a4,a4,1
    10fc:	0306                	slli	t1,t1,0x1
    10fe:	0900                	addi	s0,sp,144
    1100:	0000                	unimp
    1102:	0501                	addi	a0,a0,0
    1104:	0606                	slli	a2,a2,0x1
    1106:	06097203          	0x6097203
    110a:	0100                	addi	s0,sp,128
    110c:	0d05                	addi	s10,s10,1
    110e:	0306                	slli	t1,t1,0x1
    1110:	0900                	addi	s0,sp,144
    1112:	0000                	unimp
    1114:	0501                	addi	a0,a0,0
    1116:	0606                	slli	a2,a2,0x1
    1118:	06091003          	lh	zero,96(s2)
    111c:	0100                	addi	s0,sp,128
    111e:	0705                	addi	a4,a4,1
    1120:	0306                	slli	t1,t1,0x1
    1122:	0900                	addi	s0,sp,144
    1124:	0000                	unimp
    1126:	0901                	addi	s2,s2,0
    1128:	0006                	c.slli	zero,0x1
    112a:	0100                	addi	s0,sp,128
    112c:	a301                	j	162c <_start-0xea84>
    112e:	0002                	c.slli64	zero
    1130:	0300                	addi	s0,sp,384
    1132:	2300                	fld	fs0,0(a4)
    1134:	0001                	nop
    1136:	0100                	addi	s0,sp,128
    1138:	fb01                	bnez	a4,1048 <_start-0xf068>
    113a:	0d0e                	slli	s10,s10,0x3
    113c:	0100                	addi	s0,sp,128
    113e:	0101                	addi	sp,sp,0
    1140:	0001                	nop
    1142:	0000                	unimp
    1144:	0001                	nop
    1146:	0100                	addi	s0,sp,128
    1148:	6d6f682f          	0x6d6f682f
    114c:	2f65                	addiw	t5,t5,25
    114e:	6164                	ld	s1,192(a0)
    1150:	696e                	ld	s2,216(sp)
    1152:	6c65                	lui	s8,0x19
    1154:	7369722f          	0x7369722f
    1158:	732f7663          	bgeu	t5,s2,1884 <_start-0xe82c>
    115c:	6372                	ld	t1,280(sp)
    115e:	77656e2f          	0x77656e2f
    1162:	696c                	ld	a1,208(a0)
    1164:	2d62                	fld	fs10,24(sp)
    1166:	77677963          	bgeu	a4,s6,18d8 <_start-0xe7d8>
    116a:	6e69                	lui	t3,0x1a
    116c:	62696c2f          	0x62696c2f
    1170:	736f6c67          	0x736f6c67
    1174:	69722f73          	csrrs	t5,0x697,tp
    1178:	00766373          	csrrsi	t1,0x7,12
    117c:	6d6f682f          	0x6d6f682f
    1180:	2f65                	addiw	t5,t5,25
    1182:	6164                	ld	s1,192(a0)
    1184:	696e                	ld	s2,216(sp)
    1186:	6c65                	lui	s8,0x19
    1188:	7369722f          	0x7369722f
    118c:	632f7663          	bgeu	t5,s2,17b8 <_start-0xe8f8>
    1190:	6f72                	ld	t5,280(sp)
    1192:	68637373          	csrrci	t1,0x686,6
    1196:	6961                	lui	s2,0x18
    1198:	2f6e                	fld	ft10,216(sp)
    119a:	696c                	ld	a1,208(a0)
    119c:	2f62                	fld	ft10,24(sp)
    119e:	2f636367          	0x2f636367
    11a2:	6972                	ld	s2,280(sp)
    11a4:	36766373          	csrrsi	t1,0x367,12
    11a8:	2d34                	fld	fa3,88(a0)
    11aa:	736c                	ld	a1,224(a4)
    11ac:	652d                	lui	a0,0xb
    11ae:	666c                	ld	a1,200(a2)
    11b0:	322e392f          	0x322e392f
    11b4:	302e                	fld	ft0,232(sp)
    11b6:	636e692f          	0x636e692f
    11ba:	756c                	ld	a1,232(a0)
    11bc:	6564                	ld	s1,200(a0)
    11be:	2f00                	fld	fs0,24(a4)
    11c0:	6f68                	ld	a0,216(a4)
    11c2:	656d                	lui	a0,0x1b
    11c4:	6e61642f          	0x6e61642f
    11c8:	6569                	lui	a0,0x1a
    11ca:	2f6c                	fld	fa1,216(a4)
    11cc:	6972                	ld	s2,280(sp)
    11ce:	2f766373          	csrrsi	t1,0x2f7,12
    11d2:	2f637273          	csrrci	tp,0x2f6,6
    11d6:	656e                	ld	a0,216(sp)
    11d8:	62696c77          	0x62696c77
    11dc:	632d                	lui	t1,0xb
    11de:	6779                	lui	a4,0x1e
    11e0:	2f6e6977          	0x2f6e6977
    11e4:	656e                	ld	a0,216(sp)
    11e6:	62696c77          	0x62696c77
    11ea:	62696c2f          	0x62696c2f
    11ee:	6e692f63          	0x6e692f63
    11f2:	64756c63          	bltu	a0,t2,184a <_start-0xe866>
    11f6:	2f65                	addiw	t5,t5,25
    11f8:	00737973          	csrrci	s2,0x7,6
    11fc:	7300                	ld	s0,32(a4)
    11fe:	7379                	lui	t1,0xffffe
    1200:	655f 6978 2e74      	0x2e746978655f
    1206:	00010063          	beqz	sp,1206 <_start-0xeeaa>
    120a:	6900                	ld	s0,16(a0)
    120c:	746e                	ld	s0,248(sp)
    120e:	7265                	lui	tp,0xffff9
    1210:	616e                	ld	sp,216(sp)
    1212:	5f6c                	lw	a1,124(a4)
    1214:	63737973          	csrrci	s2,0x637,6
    1218:	6c61                	lui	s8,0x18
    121a:	2e6c                	fld	fa1,216(a2)
    121c:	0068                	addi	a0,sp,12
    121e:	0001                	nop
    1220:	7300                	ld	s0,32(a4)
    1222:	6474                	ld	a3,200(s0)
    1224:	6564                	ld	s1,200(a0)
    1226:	2e66                	fld	ft8,88(sp)
    1228:	0068                	addi	a0,sp,12
    122a:	0002                	c.slli64	zero
    122c:	5f00                	lw	s0,56(a4)
    122e:	7974                	ld	a3,240(a0)
    1230:	6570                	ld	a2,200(a0)
    1232:	00682e73          	csrrs	t3,0x6,a6
    1236:	72000003          	lb	zero,1824(zero) # 720 <_start-0xf990>
    123a:	6565                	lui	a0,0x19
    123c:	746e                	ld	s0,248(sp)
    123e:	682e                	ld	a6,200(sp)
    1240:	0300                	addi	s0,sp,384
    1242:	0000                	unimp
    1244:	6f6c                	ld	a1,216(a4)
    1246:	682e6b63          	bltu	t3,sp,18dc <_start-0xe7d4>
    124a:	0300                	addi	s0,sp,384
    124c:	0000                	unimp
    124e:	7265                	lui	tp,0xffff9
    1250:	6e72                	ld	t3,280(sp)
    1252:	00682e6f          	jal	t3,83258 <__global_pointer$+0x715d8>
    1256:	00000003          	lb	zero,0(zero) # 0 <_start-0x100b0>
    125a:	0105                	addi	sp,sp,1
    125c:	0900                	addi	s0,sp,144
    125e:	3a02                	fld	fs4,32(sp)
    1260:	0104                	addi	s1,sp,128
    1262:	0000                	unimp
    1264:	0000                	unimp
    1266:	1800                	addi	s0,sp,48
    1268:	0305                	addi	t1,t1,1
    126a:	00090103          	lb	sp,0(s2) # 18000 <__global_pointer$+0x6380>
    126e:	0100                	addi	s0,sp,128
    1270:	0204                	addi	s1,sp,256
    1272:	00092903          	lw	s2,0(s2)
    1276:	0100                	addi	s0,sp,128
    1278:	00096a03          	lwu	s4,0(s2)
    127c:	0100                	addi	s0,sp,128
    127e:	00090103          	lb	sp,0(s2)
    1282:	0100                	addi	s0,sp,128
    1284:	1105                	addi	sp,sp,-31
    1286:	0306                	slli	t1,t1,0x1
    1288:	0900                	addi	s0,sp,144
    128a:	0000                	unimp
    128c:	0501                	addi	a0,a0,0
    128e:	01030603          	lb	a2,16(t1) # ffffffffffffe010 <__global_pointer$+0xfffffffffffec390>
    1292:	0209                	addi	tp,tp,2
    1294:	0100                	addi	s0,sp,128
    1296:	1105                	addi	sp,sp,-31
    1298:	0306                	slli	t1,t1,0x1
    129a:	0900                	addi	s0,sp,144
    129c:	0000                	unimp
    129e:	0501                	addi	a0,a0,0
    12a0:	01030603          	lb	a2,16(t1)
    12a4:	0209                	addi	tp,tp,2
    12a6:	0100                	addi	s0,sp,128
    12a8:	1105                	addi	sp,sp,-31
    12aa:	0306                	slli	t1,t1,0x1
    12ac:	0900                	addi	s0,sp,144
    12ae:	0000                	unimp
    12b0:	0501                	addi	a0,a0,0
    12b2:	01030603          	lb	a2,16(t1)
    12b6:	0209                	addi	tp,tp,2
    12b8:	0100                	addi	s0,sp,128
    12ba:	1105                	addi	sp,sp,-31
    12bc:	0306                	slli	t1,t1,0x1
    12be:	0900                	addi	s0,sp,144
    12c0:	0000                	unimp
    12c2:	0501                	addi	a0,a0,0
    12c4:	01030603          	lb	a2,16(t1)
    12c8:	0209                	addi	tp,tp,2
    12ca:	0100                	addi	s0,sp,128
    12cc:	1105                	addi	sp,sp,-31
    12ce:	0306                	slli	t1,t1,0x1
    12d0:	0900                	addi	s0,sp,144
    12d2:	0000                	unimp
    12d4:	0501                	addi	a0,a0,0
    12d6:	05030603          	lb	a2,80(t1)
    12da:	0209                	addi	tp,tp,2
    12dc:	0100                	addi	s0,sp,128
    12de:	1105                	addi	sp,sp,-31
    12e0:	0306                	slli	t1,t1,0x1
    12e2:	0900                	addi	s0,sp,144
    12e4:	0000                	unimp
    12e6:	0501                	addi	a0,a0,0
    12e8:	03030603          	lb	a2,48(t1)
    12ec:	0409                	addi	s0,s0,2
    12ee:	0100                	addi	s0,sp,128
    12f0:	04090303          	lb	t1,64(s2)
    12f4:	0100                	addi	s0,sp,128
    12f6:	00090803          	lb	a6,0(s2)
    12fa:	0100                	addi	s0,sp,128
    12fc:	0605                	addi	a2,a2,1
    12fe:	0306                	slli	t1,t1,0x1
    1300:	0900                	addi	s0,sp,144
    1302:	0000                	unimp
    1304:	0401                	addi	s0,s0,0
    1306:	0501                	addi	a0,a0,0
    1308:	56030603          	lb	a2,1376(t1)
    130c:	0409                	addi	s0,s0,2
    130e:	0100                	addi	s0,sp,128
    1310:	0c05                	addi	s8,s8,1
    1312:	00090003          	lb	zero,0(s2)
    1316:	0100                	addi	s0,sp,128
    1318:	0905                	addi	s2,s2,1
    131a:	00090003          	lb	zero,0(s2)
    131e:	0100                	addi	s0,sp,128
    1320:	0305                	addi	t1,t1,1
    1322:	00090003          	lb	zero,0(s2)
    1326:	0100                	addi	s0,sp,128
    1328:	0c05                	addi	s8,s8,1
    132a:	00090003          	lb	zero,0(s2)
    132e:	0100                	addi	s0,sp,128
    1330:	0905                	addi	s2,s2,1
    1332:	00090003          	lb	zero,0(s2)
    1336:	0100                	addi	s0,sp,128
    1338:	0204                	addi	s1,sp,256
    133a:	0505                	addi	a0,a0,1
    133c:	02092b03          	lw	s6,32(s2)
    1340:	0100                	addi	s0,sp,128
    1342:	0104                	addi	s1,sp,128
    1344:	0105                	addi	sp,sp,1
    1346:	0306                	slli	t1,t1,0x1
    1348:	00000953          	fadd.s	fs2,ft0,ft0,rne
    134c:	0401                	addi	s0,s0,0
    134e:	0502                	c.slli64	a0
    1350:	0d030603          	lb	a2,208(t1)
    1354:	0609                	addi	a2,a2,2
    1356:	0100                	addi	s0,sp,128
    1358:	0104                	addi	s1,sp,128
    135a:	0105                	addi	sp,sp,1
    135c:	0306                	slli	t1,t1,0x1
    135e:	00000973          	0x973
    1362:	0401                	addi	s0,s0,0
    1364:	0502                	c.slli64	a0
    1366:	0309                	addi	t1,t1,2
    1368:	090d                	addi	s2,s2,3
    136a:	0002                	c.slli64	zero
    136c:	0501                	addi	a0,a0,0
    136e:	09000303          	lb	t1,144(zero) # 90 <_start-0x10020>
    1372:	0004                	0x4
    1374:	0501                	addi	a0,a0,0
    1376:	0309                	addi	t1,t1,2
    1378:	0900                	addi	s0,sp,144
    137a:	0004                	0x4
    137c:	0501                	addi	a0,a0,0
    137e:	01030603          	lb	a2,16(t1)
    1382:	0209                	addi	tp,tp,2
    1384:	0100                	addi	s0,sp,128
    1386:	0104                	addi	s1,sp,128
    1388:	0200                	addi	s0,sp,256
    138a:	0104                	addi	s1,sp,128
    138c:	00097403          	0x97403
    1390:	0100                	addi	s0,sp,128
    1392:	0c05                	addi	s8,s8,1
    1394:	0200                	addi	s0,sp,256
    1396:	0104                	addi	s1,sp,128
    1398:	00090003          	lb	zero,0(s2)
    139c:	0100                	addi	s0,sp,128
    139e:	0905                	addi	s2,s2,1
    13a0:	0200                	addi	s0,sp,256
    13a2:	0104                	addi	s1,sp,128
    13a4:	00090003          	lb	zero,0(s2)
    13a8:	0100                	addi	s0,sp,128
    13aa:	0305                	addi	t1,t1,1
    13ac:	0200                	addi	s0,sp,256
    13ae:	0104                	addi	s1,sp,128
    13b0:	00090003          	lb	zero,0(s2)
    13b4:	0100                	addi	s0,sp,128
    13b6:	0c05                	addi	s8,s8,1
    13b8:	0200                	addi	s0,sp,256
    13ba:	0104                	addi	s1,sp,128
    13bc:	00090003          	lb	zero,0(s2)
    13c0:	0100                	addi	s0,sp,128
    13c2:	0905                	addi	s2,s2,1
    13c4:	0200                	addi	s0,sp,256
    13c6:	0104                	addi	s1,sp,128
    13c8:	00090003          	lb	zero,0(s2)
    13cc:	0100                	addi	s0,sp,128
    13ce:	0209                	addi	tp,tp,2
    13d0:	0000                	unimp
    13d2:	0101                	addi	sp,sp,0
    13d4:	0142                	slli	sp,sp,0x10
    13d6:	0000                	unimp
    13d8:	010d0003          	lb	zero,16(s10) # 3001022 <__global_pointer$+0x2fef3a2>
    13dc:	0000                	unimp
    13de:	0101                	addi	sp,sp,0
    13e0:	000d0efb          	0xd0efb
    13e4:	0101                	addi	sp,sp,0
    13e6:	0101                	addi	sp,sp,0
    13e8:	0000                	unimp
    13ea:	0100                	addi	s0,sp,128
    13ec:	0000                	unimp
    13ee:	2f01                	sext.w	t5,t5
    13f0:	6f68                	ld	a0,216(a4)
    13f2:	656d                	lui	a0,0x1b
    13f4:	6e61642f          	0x6e61642f
    13f8:	6569                	lui	a0,0x1a
    13fa:	2f6c                	fld	fa1,216(a4)
    13fc:	6972                	ld	s2,280(sp)
    13fe:	2f766373          	csrrsi	t1,0x2f7,12
    1402:	2f637273          	csrrci	tp,0x2f6,6
    1406:	656e                	ld	a0,216(sp)
    1408:	62696c77          	0x62696c77
    140c:	632d                	lui	t1,0xb
    140e:	6779                	lui	a4,0x1e
    1410:	2f6e6977          	0x2f6e6977
    1414:	656e                	ld	a0,216(sp)
    1416:	62696c77          	0x62696c77
    141a:	62696c2f          	0x62696c2f
    141e:	72652f63          	0x72652f63
    1422:	6e72                	ld	t3,280(sp)
    1424:	682f006f          	j	f1aa6 <__global_pointer$+0xdfe26>
    1428:	2f656d6f          	jal	s10,5771e <__global_pointer$+0x45a9e>
    142c:	6164                	ld	s1,192(a0)
    142e:	696e                	ld	s2,216(sp)
    1430:	6c65                	lui	s8,0x19
    1432:	7369722f          	0x7369722f
    1436:	632f7663          	bgeu	t5,s2,1a62 <_start-0xe64e>
    143a:	6f72                	ld	t5,280(sp)
    143c:	68637373          	csrrci	t1,0x686,6
    1440:	6961                	lui	s2,0x18
    1442:	2f6e                	fld	ft10,216(sp)
    1444:	696c                	ld	a1,208(a0)
    1446:	2f62                	fld	ft10,24(sp)
    1448:	2f636367          	0x2f636367
    144c:	6972                	ld	s2,280(sp)
    144e:	36766373          	csrrsi	t1,0x367,12
    1452:	2d34                	fld	fa3,88(a0)
    1454:	736c                	ld	a1,224(a4)
    1456:	652d                	lui	a0,0xb
    1458:	666c                	ld	a1,200(a2)
    145a:	322e392f          	0x322e392f
    145e:	302e                	fld	ft0,232(sp)
    1460:	636e692f          	0x636e692f
    1464:	756c                	ld	a1,232(a0)
    1466:	6564                	ld	s1,200(a0)
    1468:	2f00                	fld	fs0,24(a4)
    146a:	6f68                	ld	a0,216(a4)
    146c:	656d                	lui	a0,0x1b
    146e:	6e61642f          	0x6e61642f
    1472:	6569                	lui	a0,0x1a
    1474:	2f6c                	fld	fa1,216(a4)
    1476:	6972                	ld	s2,280(sp)
    1478:	2f766373          	csrrsi	t1,0x2f7,12
    147c:	2f637273          	csrrci	tp,0x2f6,6
    1480:	656e                	ld	a0,216(sp)
    1482:	62696c77          	0x62696c77
    1486:	632d                	lui	t1,0xb
    1488:	6779                	lui	a4,0x1e
    148a:	2f6e6977          	0x2f6e6977
    148e:	656e                	ld	a0,216(sp)
    1490:	62696c77          	0x62696c77
    1494:	62696c2f          	0x62696c2f
    1498:	6e692f63          	0x6e692f63
    149c:	64756c63          	bltu	a0,t2,1af4 <_start-0xe5bc>
    14a0:	2f65                	addiw	t5,t5,25
    14a2:	00737973          	csrrci	s2,0x7,6
    14a6:	6500                	ld	s0,8(a0)
    14a8:	7272                	ld	tp,312(sp)
    14aa:	6f6e                	ld	t5,216(sp)
    14ac:	632e                	ld	t1,200(sp)
    14ae:	0100                	addi	s0,sp,128
    14b0:	0000                	unimp
    14b2:	64647473          	csrrci	s0,0x646,8
    14b6:	6665                	lui	a2,0x19
    14b8:	682e                	ld	a6,200(sp)
    14ba:	0200                	addi	s0,sp,256
    14bc:	0000                	unimp
    14be:	745f 7079 7365      	0x73657079745f
    14c4:	682e                	ld	a6,200(sp)
    14c6:	0300                	addi	s0,sp,384
    14c8:	0000                	unimp
    14ca:	6572                	ld	a0,280(sp)
    14cc:	6e65                	lui	t3,0x19
    14ce:	2e74                	fld	fa3,216(a2)
    14d0:	0068                	addi	a0,sp,12
    14d2:	6c000003          	lb	zero,1728(zero) # 6c0 <_start-0xf9f0>
    14d6:	2e6b636f          	jal	t1,b77bc <__global_pointer$+0xa5b3c>
    14da:	0068                	addi	a0,sp,12
    14dc:	65000003          	lb	zero,1616(zero) # 650 <_start-0xfa60>
    14e0:	7272                	ld	tp,312(sp)
    14e2:	6f6e                	ld	t5,216(sp)
    14e4:	682e                	ld	a6,200(sp)
    14e6:	0300                	addi	s0,sp,384
    14e8:	0000                	unimp
    14ea:	0500                	addi	s0,sp,640
    14ec:	0001                	nop
    14ee:	0209                	addi	tp,tp,2
    14f0:	0466                	slli	s0,s0,0x19
    14f2:	0001                	nop
    14f4:	0000                	unimp
    14f6:	0000                	unimp
    14f8:	05010b03          	lb	s6,80(sp)
    14fc:	09010303          	lb	t1,144(sp)
    1500:	0000                	unimp
    1502:	0501                	addi	a0,a0,0
    1504:	0611                	addi	a2,a2,4
    1506:	00090003          	lb	zero,0(s2) # 18000 <__global_pointer$+0x6380>
    150a:	0100                	addi	s0,sp,128
    150c:	0105                	addi	sp,sp,1
    150e:	00090103          	lb	sp,0(s2)
    1512:	0100                	addi	s0,sp,128
    1514:	0609                	addi	a2,a2,2
    1516:	0000                	unimp
    1518:	0101                	addi	sp,sp,0

Disassembly of section .debug_frame:

0000000000000000 <.debug_frame>:
   0:	000c                	0xc
   2:	0000                	unimp
   4:	ffff                	0xffff
   6:	ffff                	0xffff
   8:	0001                	nop
   a:	7c01                	lui	s8,0xfffe0
   c:	0d01                	addi	s10,s10,0
   e:	0002                	c.slli64	zero
  10:	0014                	0x14
  12:	0000                	unimp
  14:	0000                	unimp
  16:	0000                	unimp
  18:	0192                	slli	gp,gp,0x4
  1a:	0001                	nop
  1c:	0000                	unimp
  1e:	0000                	unimp
  20:	000a                	c.slli	zero,0x2
  22:	0000                	unimp
  24:	0000                	unimp
  26:	0000                	unimp
  28:	000c                	0xc
  2a:	0000                	unimp
  2c:	ffff                	0xffff
  2e:	ffff                	0xffff
  30:	0001                	nop
  32:	7c01                	lui	s8,0xfffe0
  34:	0d01                	addi	s10,s10,0
  36:	0002                	c.slli64	zero
  38:	001c                	0x1c
  3a:	0000                	unimp
  3c:	0028                	addi	a0,sp,8
  3e:	0000                	unimp
  40:	019c                	addi	a5,sp,192
  42:	0001                	nop
  44:	0000                	unimp
  46:	0000                	unimp
  48:	001e                	c.slli	zero,0x7
  4a:	0000                	unimp
  4c:	0000                	unimp
  4e:	0000                	unimp
  50:	0e42                	slli	t3,t3,0x10
  52:	4610                	lw	a2,8(a2)
  54:	0488                	addi	a0,sp,576
  56:	0281                	addi	t0,t0,0
  58:	000c                	0xc
  5a:	0000                	unimp
  5c:	ffff                	0xffff
  5e:	ffff                	0xffff
  60:	0001                	nop
  62:	7c01                	lui	s8,0xfffe0
  64:	0d01                	addi	s10,s10,0
  66:	0002                	c.slli64	zero
  68:	002c                	addi	a1,sp,8
  6a:	0000                	unimp
  6c:	0058                	addi	a4,sp,4
  6e:	0000                	unimp
  70:	01ba                	slli	gp,gp,0xe
  72:	0001                	nop
  74:	0000                	unimp
  76:	0000                	unimp
  78:	0034                	addi	a3,sp,8
  7a:	0000                	unimp
  7c:	0000                	unimp
  7e:	0000                	unimp
  80:	0e42                	slli	t3,t3,0x10
  82:	4420                	lw	s0,72(s0)
  84:	0488                	addi	a0,sp,576
  86:	8950                	0x8950
  88:	8106                	mv	sp,ra
  8a:	5602                	lw	a2,32(sp)
  8c:	42c1                	li	t0,16
  8e:	42c8                	lw	a0,4(a3)
  90:	42c9                	li	t0,18
  92:	000e                	c.slli	zero,0x3
  94:	0000                	unimp
  96:	0000                	unimp
  98:	000c                	0xc
  9a:	0000                	unimp
  9c:	ffff                	0xffff
  9e:	ffff                	0xffff
  a0:	0001                	nop
  a2:	7c01                	lui	s8,0xfffe0
  a4:	0d01                	addi	s10,s10,0
  a6:	0002                	c.slli64	zero
  a8:	0034                	addi	a3,sp,8
  aa:	0000                	unimp
  ac:	0098                	addi	a4,sp,64
  ae:	0000                	unimp
  b0:	01ee                	slli	gp,gp,0x1b
  b2:	0001                	nop
  b4:	0000                	unimp
  b6:	0000                	unimp
  b8:	006a                	c.slli	zero,0x1a
  ba:	0000                	unimp
  bc:	0000                	unimp
  be:	0000                	unimp
  c0:	0e42                	slli	t3,t3,0x10
  c2:	4420                	lw	s0,72(s0)
  c4:	0488                	addi	a0,sp,576
  c6:	0892                	slli	a7,a7,0x4
  c8:	8154                	0x8154
  ca:	8902                	jr	s2
  cc:	0206                	slli	tp,tp,0x1
  ce:	c146                	sw	a7,128(sp)
  d0:	c842                	sw	a6,16(sp)
  d2:	c942                	sw	a6,144(sp)
  d4:	d242                	sw	a6,36(sp)
  d6:	0e42                	slli	t3,t3,0x10
	...
  e0:	000c                	0xc
  e2:	0000                	unimp
  e4:	ffff                	0xffff
  e6:	ffff                	0xffff
  e8:	0001                	nop
  ea:	7c01                	lui	s8,0xfffe0
  ec:	0d01                	addi	s10,s10,0
  ee:	0002                	c.slli64	zero
  f0:	0014                	0x14
  f2:	0000                	unimp
  f4:	00e0                	addi	s0,sp,76
  f6:	0000                	unimp
  f8:	0302                	c.slli64	t1
  fa:	0001                	nop
  fc:	0000                	unimp
  fe:	0000                	unimp
 100:	0076                	c.slli	zero,0x1d
 102:	0000                	unimp
 104:	0000                	unimp
 106:	0000                	unimp
 108:	000c                	0xc
 10a:	0000                	unimp
 10c:	ffff                	0xffff
 10e:	ffff                	0xffff
 110:	0001                	nop
 112:	7c01                	lui	s8,0xfffe0
 114:	0d01                	addi	s10,s10,0
 116:	0002                	c.slli64	zero
 118:	004c                	addi	a1,sp,4
 11a:	0000                	unimp
 11c:	0108                	addi	a0,sp,128
 11e:	0000                	unimp
 120:	0378                	addi	a4,sp,396
 122:	0001                	nop
 124:	0000                	unimp
 126:	0000                	unimp
 128:	00c2                	slli	ra,ra,0x10
 12a:	0000                	unimp
 12c:	0000                	unimp
 12e:	0000                	unimp
 130:	0e42                	slli	t3,t3,0x10
 132:	4250                	lw	a2,4(a2)
 134:	0c94                	addi	a3,sp,592
 136:	9248                	0x9248
 138:	8108                	0x8108
 13a:	5202                	lw	tp,32(sp)
 13c:	0488                	addi	a0,sp,576
 13e:	0689                	addi	a3,a3,2
 140:	0e950a93          	addi	s5,a0,233 # 1a0e9 <__global_pointer$+0x8469>
 144:	1096                	slli	ra,ra,0x25
 146:	14981297          	auipc	t0,0x14981
 14a:	0a72                	slli	s4,s4,0x1c
 14c:	42c1                	li	t0,16
 14e:	42c8                	lw	a0,4(a3)
 150:	42c9                	li	t0,18
 152:	42d2                	lw	t0,20(sp)
 154:	42d442d3          	0x42d442d3
 158:	42d5                	li	t0,21
 15a:	42d6                	lw	t0,84(sp)
 15c:	42d842d7          	0x42d842d7
 160:	000e                	c.slli	zero,0x3
 162:	0b42                	slli	s6,s6,0x10
 164:	0000                	unimp
 166:	0000                	unimp
 168:	000c                	0xc
 16a:	0000                	unimp
 16c:	ffff                	0xffff
 16e:	ffff                	0xffff
 170:	0001                	nop
 172:	7c01                	lui	s8,0xfffe0
 174:	0d01                	addi	s10,s10,0
 176:	0002                	c.slli64	zero
 178:	0024                	addi	s1,sp,8
 17a:	0000                	unimp
 17c:	0168                	addi	a0,sp,140
 17e:	0000                	unimp
 180:	043a                	slli	s0,s0,0xe
 182:	0001                	nop
 184:	0000                	unimp
 186:	0000                	unimp
 188:	002c                	addi	a1,sp,8
 18a:	0000                	unimp
 18c:	0000                	unimp
 18e:	0000                	unimp
 190:	0e5a                	slli	t3,t3,0x16
 192:	4210                	lw	a2,0(a2)
 194:	0488                	addi	a0,sp,576
 196:	8144                	0x8144
 198:	0002                	c.slli64	zero
 19a:	0000                	unimp
 19c:	0000                	unimp
 19e:	0000                	unimp
 1a0:	000c                	0xc
 1a2:	0000                	unimp
 1a4:	ffff                	0xffff
 1a6:	ffff                	0xffff
 1a8:	0001                	nop
 1aa:	7c01                	lui	s8,0xfffe0
 1ac:	0d01                	addi	s10,s10,0
 1ae:	0002                	c.slli64	zero
 1b0:	0014                	0x14
 1b2:	0000                	unimp
 1b4:	01a0                	addi	s0,sp,200
 1b6:	0000                	unimp
 1b8:	0466                	slli	s0,s0,0x19
 1ba:	0001                	nop
 1bc:	0000                	unimp
 1be:	0000                	unimp
 1c0:	0006                	c.slli	zero,0x1
 1c2:	0000                	unimp
 1c4:	0000                	unimp
	...

Disassembly of section .debug_str:

0000000000000000 <.debug_str>:
   0:	6d6f682f          	0x6d6f682f
   4:	2f65                	addiw	t5,t5,25
   6:	6164                	ld	s1,192(a0)
   8:	696e                	ld	s2,216(sp)
   a:	6c65                	lui	s8,0x19
   c:	7369722f          	0x7369722f
  10:	732f7663          	bgeu	t5,s2,73c <_start-0xf974>
  14:	6372                	ld	t1,280(sp)
  16:	77656e2f          	0x77656e2f
  1a:	696c                	ld	a1,208(a0)
  1c:	2d62                	fld	fs10,24(sp)
  1e:	77677963          	bgeu	a4,s6,790 <_start-0xf920>
  22:	6e69                	lui	t3,0x1a
  24:	62696c2f          	0x62696c2f
  28:	736f6c67          	0x736f6c67
  2c:	69722f73          	csrrs	t5,0x697,tp
  30:	2f766373          	csrrsi	t1,0x2f7,12
  34:	30747263          	bgeu	s0,t2,338 <_start-0xfd78>
  38:	532e                	lw	t1,232(sp)
  3a:	2f00                	fld	fs0,24(a4)
  3c:	6f68                	ld	a0,216(a4)
  3e:	656d                	lui	a0,0x1b
  40:	6e61642f          	0x6e61642f
  44:	6569                	lui	a0,0x1a
  46:	2f6c                	fld	fa1,216(a4)
  48:	6972                	ld	s2,280(sp)
  4a:	2f766373          	csrrsi	t1,0x2f7,12
  4e:	646a626f          	jal	tp,a6694 <__global_pointer$+0x94a14>
  52:	7269                	lui	tp,0xffffa
  54:	7369722f          	0x7369722f
  58:	34367663          	bgeu	a2,gp,3a4 <_start-0xfd0c>
  5c:	6c2d                	lui	s8,0xb
  5e:	6c652d73          	csrrs	s10,0x6c6,a0
  62:	2f66                	fld	ft10,88(sp)
  64:	67617453          	0x67617453
  68:	3165                	addiw	sp,sp,-7
  6a:	77656e2f          	0x77656e2f
  6e:	696c                	ld	a1,208(a0)
  70:	2f62                	fld	ft10,24(sp)
  72:	6972                	ld	s2,280(sp)
  74:	36766373          	csrrsi	t1,0x367,12
  78:	2d34                	fld	fa3,88(a0)
  7a:	736c                	ld	a1,224(a4)
  7c:	652d                	lui	a0,0xb
  7e:	666c                	ld	a1,200(a2)
  80:	3676722f          	0x3676722f
  84:	6934                	ld	a3,80(a0)
  86:	616d                	addi	sp,sp,240
  88:	6466                	ld	s0,88(sp)
  8a:	706c2f63          	0x706c2f63
  8e:	3436                	fld	fs0,360(sp)
  90:	2f64                	fld	fs1,216(a4)
  92:	696c                	ld	a1,208(a0)
  94:	6762                	ld	a4,24(sp)
  96:	6f6c                	ld	a1,216(a4)
  98:	722f7373          	csrrci	t1,0x722,30
  9c:	7369                	lui	t1,0xffffa
  9e:	47007663          	bgeu	zero,a6,50a <_start-0xfba6>
  a2:	554e                	lw	a0,240(sp)
  a4:	4120                	lw	s0,64(a0)
  a6:	2e322053          	0x2e322053
  aa:	352e3233          	0x352e3233
  ae:	0031                	c.nop	12
  b0:	645f 6f73 685f      	0x685f6f73645f
  b6:	6e61                	lui	t3,0x18
  b8:	6c64                	ld	s1,216(s0)
  ba:	0065                	c.nop	25
  bc:	735f 7a69 0065      	0x657a69735f
  c2:	6d6f682f          	0x6d6f682f
  c6:	2f65                	addiw	t5,t5,25
  c8:	6164                	ld	s1,192(a0)
  ca:	696e                	ld	s2,216(sp)
  cc:	6c65                	lui	s8,0x19
  ce:	7369722f          	0x7369722f
  d2:	732f7663          	bgeu	t5,s2,7fe <_start-0xf8b2>
  d6:	6372                	ld	t1,280(sp)
  d8:	77656e2f          	0x77656e2f
  dc:	696c                	ld	a1,208(a0)
  de:	2d62                	fld	fs10,24(sp)
  e0:	77677963          	bgeu	a4,s6,852 <_start-0xf85e>
  e4:	6e69                	lui	t3,0x1a
  e6:	77656e2f          	0x77656e2f
  ea:	696c                	ld	a1,208(a0)
  ec:	2f62                	fld	ft10,24(sp)
  ee:	696c                	ld	a1,208(a0)
  f0:	6362                	ld	t1,24(sp)
  f2:	6474732f          	0x6474732f
  f6:	696c                	ld	a1,208(a0)
  f8:	2f62                	fld	ft10,24(sp)
  fa:	7461                	lui	s0,0xffff8
  fc:	7865                	lui	a6,0xffff9
  fe:	7469                	lui	s0,0xffffa
 100:	632e                	ld	t1,200(sp)
 102:	5f00                	lw	s0,56(a4)
 104:	6172                	ld	sp,280(sp)
 106:	646e                	ld	s0,216(sp)
 108:	3834                	fld	fa3,112(s0)
 10a:	5f00                	lw	s0,56(a4)
 10c:	6d65                	lui	s10,0x19
 10e:	7265                	lui	tp,0xffff9
 110:	636e6567          	0x636e6567
 114:	0079                	c.nop	30
 116:	775f 7263 6f74      	0x6f747263775f
 11c:	626d                	lui	tp,0x1b
 11e:	735f 6174 6574      	0x65746174735f
 124:	5f00                	lw	s0,56(a4)
 126:	72736377          	0x72736377
 12a:	6f74                	ld	a3,216(a4)
 12c:	626d                	lui	tp,0x1b
 12e:	74735f73          	csrrwi	t5,0x747,6
 132:	7461                	lui	s0,0xffff8
 134:	0065                	c.nop	25
 136:	6f6c                	ld	a1,216(a4)
 138:	676e                	ld	a4,216(sp)
 13a:	6c20                	ld	s0,88(s0)
 13c:	20676e6f          	jal	t3,76342 <__global_pointer$+0x646c2>
 140:	6e75                	lui	t3,0x1d
 142:	6e676973          	csrrsi	s2,0x6e6,14
 146:	6465                	lui	s0,0x19
 148:	6920                	ld	s0,80(a0)
 14a:	746e                	ld	s0,248(sp)
 14c:	5f00                	lw	s0,56(a4)
 14e:	626c                	ld	a1,192(a2)
 150:	7366                	ld	t1,120(sp)
 152:	7a69                	lui	s4,0xffffa
 154:	0065                	c.nop	25
 156:	5f5f 6f6c 6163      	0x61636f6c5f5f
 15c:	656c                	ld	a1,200(a0)
 15e:	745f 5f00 626d      	0x626d5f00745f
 164:	7472                	ld	s0,312(sp)
 166:	5f63776f          	jal	a4,3775c <__global_pointer$+0x25adc>
 16a:	74617473          	csrrci	s0,0x746,2
 16e:	0065                	c.nop	25
 170:	775f 7463 6d6f      	0x6d6f7463775f
 176:	5f62                	lw	t5,56(sp)
 178:	74617473          	csrrci	s0,0x746,2
 17c:	0065                	c.nop	25
 17e:	5f5f 6d74 735f      	0x735f6d745f5f
 184:	6365                	lui	t1,0x19
 186:	6c00                	ld	s0,24(s0)
 188:	20676e6f          	jal	t3,7638e <__global_pointer$+0x6470e>
 18c:	6f6c                	ld	a1,216(a4)
 18e:	676e                	ld	a4,216(sp)
 190:	6920                	ld	s0,80(a0)
 192:	746e                	ld	s0,248(sp)
 194:	5f00                	lw	s0,56(a4)
 196:	6275                	lui	tp,0x1d
 198:	6675                	lui	a2,0x1d
 19a:	4700                	lw	s0,8(a4)
 19c:	554e                	lw	a0,240(sp)
 19e:	4320                	lw	s0,64(a4)
 1a0:	3731                	addiw	a4,a4,-20
 1a2:	3920                	fld	fs0,112(a0)
 1a4:	322e                	fld	ft4,232(sp)
 1a6:	302e                	fld	ft0,232(sp)
 1a8:	2d20                	fld	fs0,88(a0)
 1aa:	616d                	addi	sp,sp,240
 1ac:	6372                	ld	t1,280(sp)
 1ae:	3d68                	fld	fa0,248(a0)
 1b0:	7672                	ld	a2,312(sp)
 1b2:	3436                	fld	fs0,360(sp)
 1b4:	6d69                	lui	s10,0x1a
 1b6:	6661                	lui	a2,0x18
 1b8:	6364                	ld	s1,192(a4)
 1ba:	2d20                	fld	fs0,88(a0)
 1bc:	616d                	addi	sp,sp,240
 1be:	6962                	ld	s2,24(sp)
 1c0:	6c3d                	lui	s8,0xf
 1c2:	3670                	fld	fa2,232(a2)
 1c4:	6434                	ld	a3,72(s0)
 1c6:	2d20                	fld	fs0,88(a0)
 1c8:	616d                	addi	sp,sp,240
 1ca:	6372                	ld	t1,280(sp)
 1cc:	3d68                	fld	fa0,248(a0)
 1ce:	7672                	ld	a2,312(sp)
 1d0:	3436                	fld	fs0,360(sp)
 1d2:	6d69                	lui	s10,0x1a
 1d4:	6661                	lui	a2,0x18
 1d6:	6364                	ld	s1,192(a4)
 1d8:	2d20                	fld	fs0,88(a0)
 1da:	616d                	addi	sp,sp,240
 1dc:	6962                	ld	s2,24(sp)
 1de:	6c3d                	lui	s8,0xf
 1e0:	3670                	fld	fa2,232(a2)
 1e2:	6434                	ld	a3,72(s0)
 1e4:	2d20                	fld	fs0,88(a0)
 1e6:	4f2d2067          	0x4f2d2067
 1ea:	2032                	fld	ft0,264(sp)
 1ec:	662d                	lui	a2,0xb
 1ee:	6f6e                	ld	t5,216(sp)
 1f0:	622d                	lui	tp,0xb
 1f2:	6975                	lui	s2,0x1d
 1f4:	746c                	ld	a1,232(s0)
 1f6:	6e69                	lui	t3,0x1a
 1f8:	5f00                	lw	s0,56(a4)
 1fa:	6162                	ld	sp,24(sp)
 1fc:	5f006573          	csrrsi	a0,0x5f0,0
 200:	745f 5f6d 6f68      	0x6f685f6d745f
 206:	7275                	lui	tp,0xffffd
 208:	5f00                	lw	s0,56(a4)
 20a:	735f 0066 6f5f      	0x6f5f0066735f
 210:	5f6e                	lw	t5,248(sp)
 212:	7865                	lui	a6,0xffff9
 214:	7469                	lui	s0,0xffffa
 216:	615f 6772 0073      	0x736772615f
 21c:	635f 6f6f 696b      	0x696b6f6f635f
 222:	0065                	c.nop	25
 224:	5f5f 6773 756c      	0x756c67735f5f
 22a:	0065                	c.nop	25
 22c:	665f 616c 7367      	0x7367616c665f
 232:	5f00                	lw	s0,56(a4)
 234:	7369                	lui	t1,0xffffa
 236:	635f 6178 5f00      	0x5f006178635f
 23c:	69647473          	csrrci	s0,0x696,8
 240:	006e                	c.slli	zero,0x1b
 242:	625f 6b6c 6973      	0x69736b6c625f
 248:	657a                	ld	a0,408(sp)
 24a:	5f00                	lw	s0,56(a4)
 24c:	725f 6765 7369      	0x73696765725f
 252:	6574                	ld	a3,200(a0)
 254:	5f72                	lw	t5,60(sp)
 256:	7865                	lui	a6,0xffff9
 258:	7469                	lui	s0,0xffffa
 25a:	7270                	ld	a2,224(a2)
 25c:	5f00636f          	jal	t1,684c <_start-0x9864>
 260:	62747663          	bgeu	s0,t2,88c <_start-0xf824>
 264:	6675                	lui	a2,0x1d
 266:	5f00                	lw	s0,56(a4)
 268:	7366666f          	jal	a2,6699e <__global_pointer$+0x54d1e>
 26c:	7465                	lui	s0,0xffff9
 26e:	5f00                	lw	s0,56(a4)
 270:	626d                	lui	tp,0x1b
 272:	6f747273          	csrrci	tp,0x6f7,8
 276:	5f736377          	0x5f736377
 27a:	74617473          	csrrci	s0,0x746,2
 27e:	0065                	c.nop	25
 280:	6d5f 7262 656c      	0x656c72626d5f
 286:	5f6e                	lw	t5,248(sp)
 288:	74617473          	csrrci	s0,0x746,2
 28c:	0065                	c.nop	25
 28e:	665f 616e 6772      	0x6772616e665f
 294:	665f0073          	0x665f0073
 298:	736e                	ld	t1,248(sp)
 29a:	5f00                	lw	s0,56(a4)
 29c:	6e676973          	csrrsi	s2,0x6e6,14
 2a0:	5f00                	lw	s0,56(a4)
 2a2:	6c66                	ld	s8,88(sp)
 2a4:	5f6b636f          	jal	t1,b689a <__global_pointer$+0xa4c1a>
 2a8:	0074                	addi	a3,sp,12
 2aa:	735f 6474 7265      	0x72656474735f
 2b0:	0072                	c.slli	zero,0x1c
 2b2:	425f 6769 6e69      	0x6e696769425f
 2b8:	0074                	addi	a3,sp,12
 2ba:	675f 6d61 616d      	0x616d6d61675f
 2c0:	735f 6769 676e      	0x676e6769735f
 2c6:	6d61                	lui	s10,0x18
 2c8:	5f00                	lw	s0,56(a4)
 2ca:	6572                	ld	a0,280(sp)
 2cc:	6461                	lui	s0,0x18
 2ce:	5f00                	lw	s0,56(a4)
 2d0:	6572                	ld	a0,280(sp)
 2d2:	746c7573          	csrrci	a0,0x746,24
 2d6:	6b5f 5f00 745f      	0x745f5f006b5f
 2dc:	006d                	c.nop	27
 2de:	5f5f 6377 6268      	0x626863775f5f
 2e4:	5f00                	lw	s0,56(a4)
 2e6:	6f647473          	csrrci	s0,0x6f6,8
 2ea:	7475                	lui	s0,0xffffd
 2ec:	5f00                	lw	s0,56(a4)
 2ee:	6c747663          	bgeu	s0,t2,9ba <_start-0xf6f6>
 2f2:	6e65                	lui	t3,0x19
 2f4:	5f00                	lw	s0,56(a4)
 2f6:	6966                	ld	s2,88(sp)
 2f8:	656c                	ld	a1,200(a0)
 2fa:	5f00                	lw	s0,56(a4)
 2fc:	696e                	ld	s2,216(sp)
 2fe:	0073626f          	jal	tp,36b04 <__global_pointer$+0x24e84>
 302:	726f6873          	csrrsi	a6,0x726,30
 306:	2074                	fld	fa3,192(s0)
 308:	6e75                	lui	t3,0x1d
 30a:	6e676973          	csrrsi	s2,0x6e6,14
 30e:	6465                	lui	s0,0x19
 310:	6920                	ld	s0,80(a0)
 312:	746e                	ld	s0,248(sp)
 314:	5f00                	lw	s0,56(a4)
 316:	7461                	lui	s0,0xffff8
 318:	7865                	lui	a6,0xffff9
 31a:	7469                	lui	s0,0xffffa
 31c:	0030                	addi	a2,sp,8
 31e:	735f 6769 616e      	0x616e6769735f
 324:	5f6c                	lw	a1,124(a4)
 326:	7562                	ld	a0,56(sp)
 328:	0066                	c.slli	zero,0x19
 32a:	615f 6373 6974      	0x69746373615f
 330:	656d                	lui	a0,0x1b
 332:	625f 6675 5f00      	0x5f006675625f
 338:	6572                	ld	a0,280(sp)
 33a:	746c7573          	csrrci	a0,0x746,24
 33e:	5f00                	lw	s0,56(a4)
 340:	775f 6863 7700      	0x77006863775f
 346:	6e69                	lui	t3,0x1a
 348:	5f74                	lw	a3,124(a4)
 34a:	0074                	addi	a3,sp,12
 34c:	6c5f 636f 006b      	0x6b636f6c5f
 352:	665f 616c 7367      	0x7367616c665f
 358:	0032                	c.slli	zero,0xc
 35a:	775f 6972 6574      	0x65746972775f
 360:	5f00                	lw	s0,56(a4)
 362:	745f 5f6d 6579      	0x65795f6d745f
 368:	7261                	lui	tp,0xffff8
 36a:	5f00                	lw	s0,56(a4)
 36c:	6d6e                	ld	s10,216(sp)
 36e:	6c61                	lui	s8,0x18
 370:	6f6c                	ld	a1,216(a4)
 372:	6f6c0063          	beq	s8,s6,a52 <_start-0xf65e>
 376:	676e                	ld	a4,216(sp)
 378:	6420                	ld	s0,72(s0)
 37a:	6c62756f          	jal	a0,27a40 <__global_pointer$+0x15dc0>
 37e:	0065                	c.nop	25
 380:	6e5f 7865 6674      	0x667478656e5f
 386:	2f00                	fld	fs0,24(a4)
 388:	6f68                	ld	a0,216(a4)
 38a:	656d                	lui	a0,0x1b
 38c:	6e61642f          	0x6e61642f
 390:	6569                	lui	a0,0x1a
 392:	2f6c                	fld	fa1,216(a4)
 394:	6972                	ld	s2,280(sp)
 396:	2f766373          	csrrsi	t1,0x2f7,12
 39a:	646a626f          	jal	tp,a69e0 <__global_pointer$+0x94d60>
 39e:	7269                	lui	tp,0xffffa
 3a0:	7369722f          	0x7369722f
 3a4:	34367663          	bgeu	a2,gp,6f0 <_start-0xf9c0>
 3a8:	6c2d                	lui	s8,0xb
 3aa:	6c652d73          	csrrs	s10,0x6c6,a0
 3ae:	2f66                	fld	ft10,88(sp)
 3b0:	67617453          	0x67617453
 3b4:	3165                	addiw	sp,sp,-7
 3b6:	77656e2f          	0x77656e2f
 3ba:	696c                	ld	a1,208(a0)
 3bc:	2f62                	fld	ft10,24(sp)
 3be:	6972                	ld	s2,280(sp)
 3c0:	36766373          	csrrsi	t1,0x367,12
 3c4:	2d34                	fld	fa3,88(a0)
 3c6:	736c                	ld	a1,224(a4)
 3c8:	652d                	lui	a0,0xb
 3ca:	666c                	ld	a1,200(a2)
 3cc:	3676722f          	0x3676722f
 3d0:	6934                	ld	a3,80(a0)
 3d2:	616d                	addi	sp,sp,240
 3d4:	6466                	ld	s0,88(sp)
 3d6:	706c2f63          	0x706c2f63
 3da:	3436                	fld	fs0,360(sp)
 3dc:	2f64                	fld	fs1,216(a4)
 3de:	656e                	ld	a0,216(sp)
 3e0:	62696c77          	0x62696c77
 3e4:	62696c2f          	0x62696c2f
 3e8:	74732f63          	0x74732f63
 3ec:	6c64                	ld	s1,216(s0)
 3ee:	6269                	lui	tp,0x1a
 3f0:	5f00                	lw	s0,56(a4)
 3f2:	745f 5f6d 6f6d      	0x6f6d5f6d745f
 3f8:	006e                	c.slli	zero,0x1b
 3fa:	6f627573          	csrrci	a0,0x6f6,4
 3fe:	7470                	ld	a2,232(s0)
 400:	7261                	lui	tp,0xffff8
 402:	5f5f0067          	jr	1525(t5) # fffffffffffe15f5 <__global_pointer$+0xfffffffffffcf975>
 406:	64696473          	csrrsi	s0,0x646,18
 40a:	6e69                	lui	t3,0x1a
 40c:	7469                	lui	s0,0xffffa
 40e:	5f00                	lw	s0,56(a4)
 410:	5f66666f          	jal	a2,66a06 <__global_pointer$+0x54d86>
 414:	0074                	addi	a3,sp,12
 416:	5f5f 7465 635f      	0x635f74655f5f
 41c:	6178                	ld	a4,192(a0)
 41e:	5f00                	lw	s0,56(a4)
 420:	7266                	ld	tp,120(sp)
 422:	6565                	lui	a0,0x19
 424:	696c                	ld	a1,208(a0)
 426:	5f007473          	csrrci	s0,0x5f0,0
 42a:	4f4c                	lw	a1,28(a4)
 42c:	525f4b43          	fmadd.d	fs6,ft10,ft5,fa0,rmm
 430:	4345                	li	t1,17
 432:	5255                	li	tp,-11
 434:	45564953          	0x45564953
 438:	545f 7500 736e      	0x736e7500545f
 43e:	6769                	lui	a4,0x1a
 440:	656e                	ld	a0,216(sp)
 442:	2064                	fld	fs1,192(s0)
 444:	72616863          	bltu	sp,t1,b74 <_start-0xf53c>
 448:	5f00                	lw	s0,56(a4)
 44a:	656e                	ld	a0,216(sp)
 44c:	685f0077          	0x685f0077
 450:	655f 7272 6f6e      	0x6f6e7272655f
 456:	7300                	ld	s0,32(a4)
 458:	6f68                	ld	a0,216(a4)
 45a:	7472                	ld	s0,312(sp)
 45c:	6920                	ld	s0,80(a0)
 45e:	746e                	ld	s0,248(sp)
 460:	5f00                	lw	s0,56(a4)
 462:	745f 5f6d 6479      	0x64795f6d745f
 468:	7961                	lui	s2,0xffff8
 46a:	5f00                	lw	s0,56(a4)
 46c:	735f 7562 0066      	0x667562735f
 472:	695f 626f 0073      	0x73626f695f
 478:	5f5f 4946 454c      	0x454c49465f5f
 47e:	5f00                	lw	s0,56(a4)
 480:	626d                	lui	tp,0x1b
 482:	74617473          	csrrci	s0,0x746,2
 486:	5f65                	li	t5,-7
 488:	0074                	addi	a3,sp,12
 48a:	5f5f 4673 4c49      	0x4c4946735f5f
 490:	0045                	c.nop	17
 492:	6d5f 7362 6174      	0x617473626d5f
 498:	6574                	ld	a3,200(a0)
 49a:	5f00                	lw	s0,56(a4)
 49c:	6172                	ld	sp,280(sp)
 49e:	646e                	ld	s0,216(sp)
 4a0:	6e5f 7865 0074      	0x7478656e5f
 4a6:	6d5f 6c62 6e65      	0x6e656c626d5f
 4ac:	735f 6174 6574      	0x65746174735f
 4b2:	5f00                	lw	s0,56(a4)
 4b4:	6e69                	lui	t3,0x1a
 4b6:	695f0063          	beq	t5,s5,b36 <_start-0xf57a>
 4ba:	646e                	ld	s0,216(sp)
 4bc:	5f00                	lw	s0,56(a4)
 4be:	6f6c                	ld	a1,216(a4)
 4c0:	656c6163          	bltu	s8,s6,b02 <_start-0xf5ae>
 4c4:	5f00                	lw	s0,56(a4)
 4c6:	635f 656c 6e61      	0x6e61656c635f
 4cc:	7075                	c.lui	zero,0xffffd
 4ce:	5f00                	lw	s0,56(a4)
 4d0:	6e75                	lui	t3,0x1d
 4d2:	63657073          	csrci	0x636,10
 4d6:	6669                	lui	a2,0x1a
 4d8:	6569                	lui	a0,0x1a
 4da:	5f64                	lw	s1,124(a4)
 4dc:	6f6c                	ld	a1,216(a4)
 4de:	656c6163          	bltu	s8,s6,b20 <_start-0xf590>
 4e2:	695f 666e 006f      	0x6f666e695f
 4e8:	6d5f 7861 6477      	0x647778616d5f
 4ee:	725f0073          	0x725f0073
 4f2:	6565                	lui	a0,0x19
 4f4:	746e                	ld	s0,248(sp)
 4f6:	5f00                	lw	s0,56(a4)
 4f8:	64656573          	csrrsi	a0,0x646,10
 4fc:	5f00                	lw	s0,56(a4)
 4fe:	635f 756f 746e      	0x746e756f635f
 504:	5f00                	lw	s0,56(a4)
 506:	765f 6c61 6575      	0x65756c61765f
 50c:	5f00                	lw	s0,56(a4)
 50e:	6b656573          	csrrsi	a0,0x6b6,10
 512:	5f00                	lw	s0,56(a4)
 514:	7066                	0x7066
 516:	745f736f          	jal	t1,f845a <__global_pointer$+0xe67da>
 51a:	5f00                	lw	s0,56(a4)
 51c:	745f 5f6d 696d      	0x696d5f6d745f
 522:	006e                	c.slli	zero,0x1b
 524:	6d5f 6c75 0074      	0x746c756d5f
 52a:	735f 7274 6f74      	0x6f747274735f
 530:	616c5f6b          	0x616c5f6b
 534:	5f007473          	csrrci	s0,0x5f0,0
 538:	655f 5f74 6e6f      	0x6e6f5f74655f
 53e:	7865                	lui	a6,0xffff9
 540:	7469                	lui	s0,0xffffa
 542:	5f00                	lw	s0,56(a4)
 544:	6e66                	ld	t3,88(sp)
 546:	7974                	ld	a3,240(a0)
 548:	6570                	ld	a2,200(a0)
 54a:	5f5f0073          	0x5f5f0073
 54e:	7465                	lui	s0,0xffff9
 550:	615f 6574 6978      	0x69786574615f
 556:	0074                	addi	a3,sp,12
 558:	615f 6464 5f00      	0x5f006464615f
 55e:	555f 6f4c 676e      	0x676e6f4c555f
 564:	5f00                	lw	s0,56(a4)
 566:	64746567          	0x64746567
 56a:	7461                	lui	s0,0xffff8
 56c:	5f65                	li	t5,-7
 56e:	7265                	lui	tp,0xffff9
 570:	0072                	c.slli	zero,0x1c
 572:	675f 6f6c 6162      	0x61626f6c675f
 578:	5f6c                	lw	a1,124(a4)
 57a:	6d69                	lui	s10,0x1a
 57c:	7570                	ld	a2,232(a0)
 57e:	6572                	ld	a0,280(sp)
 580:	705f 7274 5f00      	0x5f007274705f
 586:	6e75                	lui	t3,0x1d
 588:	7375                	lui	t1,0xffffd
 58a:	6465                	lui	s0,0x19
 58c:	725f 6e61 0064      	0x646e61725f
 592:	775f 7364 5f00      	0x5f007364775f
 598:	745f 5f6d 6477      	0x64775f6d745f
 59e:	7961                	lui	s2,0xffff8
 5a0:	5f00                	lw	s0,56(a4)
 5a2:	65756c67          	0x65756c67
 5a6:	5f00                	lw	s0,56(a4)
 5a8:	7a697373          	csrrci	t1,0x7a6,18
 5ac:	5f65                	li	t5,-7
 5ae:	0074                	addi	a3,sp,12
 5b0:	6c5f 3436 5f61      	0x5f6134366c5f
 5b6:	7562                	ld	a0,56(sp)
 5b8:	0066                	c.slli	zero,0x19
 5ba:	735f 6769 665f      	0x665f6769735f
 5c0:	6e75                	lui	t3,0x1d
 5c2:	6e5f0063          	beq	t5,t0,ca2 <_start-0xf40e>
 5c6:	7562                	ld	a0,56(sp)
 5c8:	0066                	c.slli	zero,0x19
 5ca:	755f 756e 6573      	0x6573756e755f
 5d0:	0064                	addi	s1,sp,12
 5d2:	5f5f 6d74 695f      	0x695f6d745f5f
 5d8:	74736473          	csrrsi	s0,0x747,6
 5dc:	5f00                	lw	s0,56(a4)
 5de:	6f6c                	ld	a1,216(a4)
 5e0:	746c6163          	bltu	s8,t1,d22 <_start-0xf38e>
 5e4:	6d69                	lui	s10,0x1a
 5e6:	5f65                	li	t5,-7
 5e8:	7562                	ld	a0,56(sp)
 5ea:	0066                	c.slli	zero,0x19
 5ec:	635f 6f6c 6573      	0x65736f6c635f
 5f2:	5f00                	lw	s0,56(a4)
 5f4:	3472                	fld	fs0,312(sp)
 5f6:	0038                	addi	a4,sp,8
 5f8:	6d5f 7462 776f      	0x776f74626d5f
 5fe:	74735f63          	bge	t1,t2,d5c <_start-0xf354>
 602:	7461                	lui	s0,0xffff8
 604:	0065                	c.nop	25
 606:	705f 7335 5f00      	0x5f007335705f
 60c:	615f 6574 6978      	0x69786574615f
 612:	5f74                	lw	a3,124(a4)
 614:	7974                	ld	a3,240(a0)
 616:	6570                	ld	a2,200(a0)
 618:	5f5f0073          	0x5f5f0073
 61c:	6d74                	ld	a3,216(a0)
 61e:	6d5f 6164 0079      	0x7961646d5f
 624:	655f 6978 0074      	0x746978655f
 62a:	6d6f682f          	0x6d6f682f
 62e:	2f65                	addiw	t5,t5,25
 630:	6164                	ld	s1,192(a0)
 632:	696e                	ld	s2,216(sp)
 634:	6c65                	lui	s8,0x19
 636:	7369722f          	0x7369722f
 63a:	732f7663          	bgeu	t5,s2,d66 <_start-0xf34a>
 63e:	6372                	ld	t1,280(sp)
 640:	77656e2f          	0x77656e2f
 644:	696c                	ld	a1,208(a0)
 646:	2d62                	fld	fs10,24(sp)
 648:	77677963          	bgeu	a4,s6,dba <_start-0xf2f6>
 64c:	6e69                	lui	t3,0x1a
 64e:	77656e2f          	0x77656e2f
 652:	696c                	ld	a1,208(a0)
 654:	2f62                	fld	ft10,24(sp)
 656:	696c                	ld	a1,208(a0)
 658:	6362                	ld	t1,24(sp)
 65a:	6474732f          	0x6474732f
 65e:	696c                	ld	a1,208(a0)
 660:	2f62                	fld	ft10,24(sp)
 662:	7865                	lui	a6,0xffff9
 664:	7469                	lui	s0,0xffffa
 666:	632e                	ld	t1,200(sp)
 668:	6500                	ld	s0,8(a0)
 66a:	766e                	ld	a2,248(sp)
 66c:	7269                	lui	tp,0xffffa
 66e:	6f006e6f          	jal	t3,6d5e <_start-0x9352>
 672:	7470                	ld	a2,232(s0)
 674:	6572                	ld	a0,280(sp)
 676:	00746573          	csrrsi	a0,0x7,8
 67a:	6974706f          	j	48510 <__global_pointer$+0x36890>
 67e:	646e                	ld	s0,216(sp)
 680:	5f00                	lw	s0,56(a4)
 682:	635f 6c61 5f6c      	0x5f6c6c61635f
 688:	7865                	lui	a6,0xffff9
 68a:	7469                	lui	s0,0xffffa
 68c:	7270                	ld	a2,224(a2)
 68e:	0073636f          	jal	t1,36e94 <__global_pointer$+0x25214>
 692:	6574706f          	j	484e8 <__global_pointer$+0x36868>
 696:	7272                	ld	tp,312(sp)
 698:	6300                	ld	s0,0(a4)
 69a:	0065646f          	jal	s0,566a0 <__global_pointer$+0x44a20>
 69e:	6f74706f          	j	48594 <__global_pointer$+0x36914>
 6a2:	7470                	ld	a2,232(s0)
 6a4:	5f00                	lw	s0,56(a4)
 6a6:	665f 6e69 5f69      	0x5f696e69665f
 6ac:	7261                	lui	tp,0xffff8
 6ae:	6172                	ld	sp,280(sp)
 6b0:	5f79                	li	t5,-2
 6b2:	72617473          	csrrci	s0,0x726,2
 6b6:	0074                	addi	a3,sp,12
 6b8:	5f5f 6966 696e      	0x696e69665f5f
 6be:	615f 7272 7961      	0x79617272615f
 6c4:	655f 646e 2f00      	0x2f00646e655f
 6ca:	6f68                	ld	a0,216(a4)
 6cc:	656d                	lui	a0,0x1b
 6ce:	6e61642f          	0x6e61642f
 6d2:	6569                	lui	a0,0x1a
 6d4:	2f6c                	fld	fa1,216(a4)
 6d6:	6972                	ld	s2,280(sp)
 6d8:	2f766373          	csrrsi	t1,0x2f7,12
 6dc:	2f637273          	csrrci	tp,0x2f6,6
 6e0:	656e                	ld	a0,216(sp)
 6e2:	62696c77          	0x62696c77
 6e6:	632d                	lui	t1,0xb
 6e8:	6779                	lui	a4,0x1e
 6ea:	2f6e6977          	0x2f6e6977
 6ee:	656e                	ld	a0,216(sp)
 6f0:	62696c77          	0x62696c77
 6f4:	62696c2f          	0x62696c2f
 6f8:	696d2f63          	0x696d2f63
 6fc:	662f6373          	csrrsi	t1,0x662,30
 700:	6e69                	lui	t3,0x1a
 702:	2e69                	addiw	t3,t3,26
 704:	5f5f0063          	beq	t5,s5,ce4 <_start-0xf3cc>
 708:	696c                	ld	a1,208(a0)
 70a:	6362                	ld	t1,24(sp)
 70c:	665f 6e69 5f69      	0x5f696e69665f
 712:	7261                	lui	tp,0xffff8
 714:	6172                	ld	sp,280(sp)
 716:	0079                	c.nop	30
 718:	6d6f682f          	0x6d6f682f
 71c:	2f65                	addiw	t5,t5,25
 71e:	6164                	ld	s1,192(a0)
 720:	696e                	ld	s2,216(sp)
 722:	6c65                	lui	s8,0x19
 724:	7369722f          	0x7369722f
 728:	6f2f7663          	bgeu	t5,s2,e14 <_start-0xf29c>
 72c:	6a62                	ld	s4,24(sp)
 72e:	6964                	ld	s1,208(a0)
 730:	2f72                	fld	ft10,280(sp)
 732:	6972                	ld	s2,280(sp)
 734:	36766373          	csrrsi	t1,0x367,12
 738:	2d34                	fld	fa3,88(a0)
 73a:	736c                	ld	a1,224(a4)
 73c:	652d                	lui	a0,0xb
 73e:	666c                	ld	a1,200(a2)
 740:	6174532f          	0x6174532f
 744:	2f316567          	0x2f316567
 748:	656e                	ld	a0,216(sp)
 74a:	62696c77          	0x62696c77
 74e:	7369722f          	0x7369722f
 752:	34367663          	bgeu	a2,gp,a9e <_start-0xf612>
 756:	6c2d                	lui	s8,0xb
 758:	6c652d73          	csrrs	s10,0x6c6,a0
 75c:	2f66                	fld	ft10,88(sp)
 75e:	7672                	ld	a2,312(sp)
 760:	3436                	fld	fs0,360(sp)
 762:	6d69                	lui	s10,0x1a
 764:	6661                	lui	a2,0x18
 766:	6364                	ld	s1,192(a4)
 768:	36706c2f          	0x36706c2f
 76c:	6434                	ld	a3,72(s0)
 76e:	77656e2f          	0x77656e2f
 772:	696c                	ld	a1,208(a0)
 774:	2f62                	fld	ft10,24(sp)
 776:	696c                	ld	a1,208(a0)
 778:	6362                	ld	t1,24(sp)
 77a:	73696d2f          	0x73696d2f
 77e:	682f0063          	beq	t5,sp,dfe <_start-0xf2b2>
 782:	2f656d6f          	jal	s10,56a78 <__global_pointer$+0x44df8>
 786:	6164                	ld	s1,192(a0)
 788:	696e                	ld	s2,216(sp)
 78a:	6c65                	lui	s8,0x19
 78c:	7369722f          	0x7369722f
 790:	732f7663          	bgeu	t5,s2,ebc <_start-0xf1f4>
 794:	6372                	ld	t1,280(sp)
 796:	77656e2f          	0x77656e2f
 79a:	696c                	ld	a1,208(a0)
 79c:	2d62                	fld	fs10,24(sp)
 79e:	77677963          	bgeu	a4,s6,f10 <_start-0xf1a0>
 7a2:	6e69                	lui	t3,0x1a
 7a4:	77656e2f          	0x77656e2f
 7a8:	696c                	ld	a1,208(a0)
 7aa:	2f62                	fld	ft10,24(sp)
 7ac:	696c                	ld	a1,208(a0)
 7ae:	6362                	ld	t1,24(sp)
 7b0:	6565722f          	0x6565722f
 7b4:	746e                	ld	s0,248(sp)
 7b6:	706d692f          	0x706d692f
 7ba:	7275                	lui	tp,0xffffd
 7bc:	2e65                	addiw	t3,t3,25
 7be:	6d690063          	beq	s2,s6,e7e <_start-0xf232>
 7c2:	7570                	ld	a2,232(a0)
 7c4:	6572                	ld	a0,280(sp)
 7c6:	645f 7461 0061      	0x617461645f
 7cc:	6d6f682f          	0x6d6f682f
 7d0:	2f65                	addiw	t5,t5,25
 7d2:	6164                	ld	s1,192(a0)
 7d4:	696e                	ld	s2,216(sp)
 7d6:	6c65                	lui	s8,0x19
 7d8:	7369722f          	0x7369722f
 7dc:	6f2f7663          	bgeu	t5,s2,ec8 <_start-0xf1e8>
 7e0:	6a62                	ld	s4,24(sp)
 7e2:	6964                	ld	s1,208(a0)
 7e4:	2f72                	fld	ft10,280(sp)
 7e6:	6972                	ld	s2,280(sp)
 7e8:	36766373          	csrrsi	t1,0x367,12
 7ec:	2d34                	fld	fa3,88(a0)
 7ee:	736c                	ld	a1,224(a4)
 7f0:	652d                	lui	a0,0xb
 7f2:	666c                	ld	a1,200(a2)
 7f4:	6174532f          	0x6174532f
 7f8:	2f316567          	0x2f316567
 7fc:	656e                	ld	a0,216(sp)
 7fe:	62696c77          	0x62696c77
 802:	7369722f          	0x7369722f
 806:	34367663          	bgeu	a2,gp,b52 <_start-0xf55e>
 80a:	6c2d                	lui	s8,0xb
 80c:	6c652d73          	csrrs	s10,0x6c6,a0
 810:	2f66                	fld	ft10,88(sp)
 812:	7672                	ld	a2,312(sp)
 814:	3436                	fld	fs0,360(sp)
 816:	6d69                	lui	s10,0x1a
 818:	6661                	lui	a2,0x18
 81a:	6364                	ld	s1,192(a4)
 81c:	36706c2f          	0x36706c2f
 820:	6434                	ld	a3,72(s0)
 822:	77656e2f          	0x77656e2f
 826:	696c                	ld	a1,208(a0)
 828:	2f62                	fld	ft10,24(sp)
 82a:	696c                	ld	a1,208(a0)
 82c:	6362                	ld	t1,24(sp)
 82e:	6565722f          	0x6565722f
 832:	746e                	ld	s0,248(sp)
 834:	5f00                	lw	s0,56(a4)
 836:	695f 696e 5f74      	0x5f74696e695f
 83c:	7261                	lui	tp,0xffff8
 83e:	6172                	ld	sp,280(sp)
 840:	5f79                	li	t5,-2
 842:	72617473          	csrrci	s0,0x726,2
 846:	0074                	addi	a3,sp,12
 848:	5f5f 696c 6362      	0x6362696c5f5f
 84e:	695f 696e 5f74      	0x5f74696e695f
 854:	7261                	lui	tp,0xffff8
 856:	6172                	ld	sp,280(sp)
 858:	0079                	c.nop	30
 85a:	6d6f682f          	0x6d6f682f
 85e:	2f65                	addiw	t5,t5,25
 860:	6164                	ld	s1,192(a0)
 862:	696e                	ld	s2,216(sp)
 864:	6c65                	lui	s8,0x19
 866:	7369722f          	0x7369722f
 86a:	732f7663          	bgeu	t5,s2,f96 <_start-0xf11a>
 86e:	6372                	ld	t1,280(sp)
 870:	77656e2f          	0x77656e2f
 874:	696c                	ld	a1,208(a0)
 876:	2d62                	fld	fs10,24(sp)
 878:	77677963          	bgeu	a4,s6,fea <_start-0xf0c6>
 87c:	6e69                	lui	t3,0x1a
 87e:	77656e2f          	0x77656e2f
 882:	696c                	ld	a1,208(a0)
 884:	2f62                	fld	ft10,24(sp)
 886:	696c                	ld	a1,208(a0)
 888:	6362                	ld	t1,24(sp)
 88a:	73696d2f          	0x73696d2f
 88e:	6e692f63          	0x6e692f63
 892:	7469                	lui	s0,0xffffa
 894:	632e                	ld	t1,200(sp)
 896:	5f00                	lw	s0,56(a4)
 898:	705f 6572 6e69      	0x6e696572705f
 89e:	7469                	lui	s0,0xffffa
 8a0:	615f 7272 7961      	0x79617272615f
 8a6:	735f 6174 7472      	0x74726174735f
 8ac:	5f00                	lw	s0,56(a4)
 8ae:	705f 6572 6e69      	0x6e696572705f
 8b4:	7469                	lui	s0,0xffffa
 8b6:	615f 7272 7961      	0x79617272615f
 8bc:	655f 646e 5f00      	0x5f00646e655f
 8c2:	695f 696e 5f74      	0x5f74696e695f
 8c8:	7261                	lui	tp,0xffff8
 8ca:	6172                	ld	sp,280(sp)
 8cc:	5f79                	li	t5,-2
 8ce:	6e65                	lui	t3,0x19
 8d0:	0064                	addi	s1,sp,12
 8d2:	6d6f682f          	0x6d6f682f
 8d6:	2f65                	addiw	t5,t5,25
 8d8:	6164                	ld	s1,192(a0)
 8da:	696e                	ld	s2,216(sp)
 8dc:	6c65                	lui	s8,0x19
 8de:	7369722f          	0x7369722f
 8e2:	732f7663          	bgeu	t5,s2,100e <_start-0xf0a2>
 8e6:	6372                	ld	t1,280(sp)
 8e8:	77656e2f          	0x77656e2f
 8ec:	696c                	ld	a1,208(a0)
 8ee:	2d62                	fld	fs10,24(sp)
 8f0:	77677963          	bgeu	a4,s6,1062 <_start-0xf04e>
 8f4:	6e69                	lui	t3,0x1a
 8f6:	77656e2f          	0x77656e2f
 8fa:	696c                	ld	a1,208(a0)
 8fc:	2f62                	fld	ft10,24(sp)
 8fe:	696c                	ld	a1,208(a0)
 900:	6362                	ld	t1,24(sp)
 902:	63616d2f          	0x63616d2f
 906:	6968                	ld	a0,208(a0)
 908:	656e                	ld	a0,216(sp)
 90a:	7369722f          	0x7369722f
 90e:	6d2f7663          	bgeu	t5,s2,fda <_start-0xf0d6>
 912:	6d65                	lui	s10,0x19
 914:	2e746573          	csrrsi	a0,0x2e7,8
 918:	682f0053          	0x682f0053
 91c:	2f656d6f          	jal	s10,56c12 <__global_pointer$+0x44f92>
 920:	6164                	ld	s1,192(a0)
 922:	696e                	ld	s2,216(sp)
 924:	6c65                	lui	s8,0x19
 926:	7369722f          	0x7369722f
 92a:	6f2f7663          	bgeu	t5,s2,1016 <_start-0xf09a>
 92e:	6a62                	ld	s4,24(sp)
 930:	6964                	ld	s1,208(a0)
 932:	2f72                	fld	ft10,280(sp)
 934:	6972                	ld	s2,280(sp)
 936:	36766373          	csrrsi	t1,0x367,12
 93a:	2d34                	fld	fa3,88(a0)
 93c:	736c                	ld	a1,224(a4)
 93e:	652d                	lui	a0,0xb
 940:	666c                	ld	a1,200(a2)
 942:	6174532f          	0x6174532f
 946:	2f316567          	0x2f316567
 94a:	656e                	ld	a0,216(sp)
 94c:	62696c77          	0x62696c77
 950:	7369722f          	0x7369722f
 954:	34367663          	bgeu	a2,gp,ca0 <_start-0xf410>
 958:	6c2d                	lui	s8,0xb
 95a:	6c652d73          	csrrs	s10,0x6c6,a0
 95e:	2f66                	fld	ft10,88(sp)
 960:	7672                	ld	a2,312(sp)
 962:	3436                	fld	fs0,360(sp)
 964:	6d69                	lui	s10,0x1a
 966:	6661                	lui	a2,0x18
 968:	6364                	ld	s1,192(a4)
 96a:	36706c2f          	0x36706c2f
 96e:	6434                	ld	a3,72(s0)
 970:	77656e2f          	0x77656e2f
 974:	696c                	ld	a1,208(a0)
 976:	2f62                	fld	ft10,24(sp)
 978:	696c                	ld	a1,208(a0)
 97a:	6362                	ld	t1,24(sp)
 97c:	63616d2f          	0x63616d2f
 980:	6968                	ld	a0,208(a0)
 982:	656e                	ld	a0,216(sp)
 984:	7369722f          	0x7369722f
 988:	74007663          	bgeu	zero,zero,10d4 <_start-0xefdc>
 98c:	7079                	c.lui	zero,0xffffe
 98e:	0065                	c.nop	25
 990:	6d6f682f          	0x6d6f682f
 994:	2f65                	addiw	t5,t5,25
 996:	6164                	ld	s1,192(a0)
 998:	696e                	ld	s2,216(sp)
 99a:	6c65                	lui	s8,0x19
 99c:	7369722f          	0x7369722f
 9a0:	732f7663          	bgeu	t5,s2,10cc <_start-0xefe4>
 9a4:	6372                	ld	t1,280(sp)
 9a6:	77656e2f          	0x77656e2f
 9aa:	696c                	ld	a1,208(a0)
 9ac:	2d62                	fld	fs10,24(sp)
 9ae:	77677963          	bgeu	a4,s6,1120 <_start-0xef90>
 9b2:	6e69                	lui	t3,0x1a
 9b4:	77656e2f          	0x77656e2f
 9b8:	696c                	ld	a1,208(a0)
 9ba:	2f62                	fld	ft10,24(sp)
 9bc:	696c                	ld	a1,208(a0)
 9be:	6362                	ld	t1,24(sp)
 9c0:	6474732f          	0x6474732f
 9c4:	696c                	ld	a1,208(a0)
 9c6:	2f62                	fld	ft10,24(sp)
 9c8:	5f5f 7461 7865      	0x786574615f5f
 9ce:	7469                	lui	s0,0xffffa
 9d0:	632e                	ld	t1,200(sp)
 9d2:	5f00                	lw	s0,56(a4)
 9d4:	615f 6574 6978      	0x69786574615f
 9da:	5f74                	lw	a3,124(a4)
 9dc:	6572                	ld	a0,280(sp)
 9de:	73727563          	bgeu	tp,s7,1108 <_start-0xefa8>
 9e2:	7669                	lui	a2,0xffffa
 9e4:	5f65                	li	t5,-7
 9e6:	756d                	lui	a0,0xffffb
 9e8:	6574                	ld	a3,200(a0)
 9ea:	0078                	addi	a4,sp,12
 9ec:	616c                	ld	a1,192(a0)
 9ee:	00707473          	csrrci	s0,0x7,0
 9f2:	6572                	ld	a0,280(sp)
 9f4:	72617473          	csrrci	s0,0x726,2
 9f8:	0074                	addi	a3,sp,12
 9fa:	6d6f682f          	0x6d6f682f
 9fe:	2f65                	addiw	t5,t5,25
 a00:	6164                	ld	s1,192(a0)
 a02:	696e                	ld	s2,216(sp)
 a04:	6c65                	lui	s8,0x19
 a06:	7369722f          	0x7369722f
 a0a:	732f7663          	bgeu	t5,s2,1136 <_start-0xef7a>
 a0e:	6372                	ld	t1,280(sp)
 a10:	77656e2f          	0x77656e2f
 a14:	696c                	ld	a1,208(a0)
 a16:	2d62                	fld	fs10,24(sp)
 a18:	77677963          	bgeu	a4,s6,118a <_start-0xef26>
 a1c:	6e69                	lui	t3,0x1a
 a1e:	77656e2f          	0x77656e2f
 a22:	696c                	ld	a1,208(a0)
 a24:	2f62                	fld	ft10,24(sp)
 a26:	696c                	ld	a1,208(a0)
 a28:	6362                	ld	t1,24(sp)
 a2a:	6474732f          	0x6474732f
 a2e:	696c                	ld	a1,208(a0)
 a30:	2f62                	fld	ft10,24(sp)
 a32:	5f5f 6163 6c6c      	0x6c6c61635f5f
 a38:	615f 6574 6978      	0x69786574615f
 a3e:	2e74                	fld	fa3,216(a2)
 a40:	5f5f0063          	beq	t5,s5,1020 <_start-0xf090>
 a44:	6e69                	lui	t3,0x1a
 a46:	6574                	ld	a3,200(a0)
 a48:	6e72                	ld	t3,280(sp)
 a4a:	6c61                	lui	s8,0x18
 a4c:	735f 7379 6163      	0x61637379735f
 a52:	6c6c                	ld	a1,216(s0)
 a54:	7300                	ld	s0,32(a4)
 a56:	7379                	lui	t1,0xffffe
 a58:	6c6c6163          	bltu	s8,t1,111a <_start-0xef96>
 a5c:	695f 0064 5f5f      	0x5f5f0064695f
 a62:	7265                	lui	tp,0xffff9
 a64:	6e72                	ld	t3,280(sp)
 a66:	4e47006f          	j	70f4a <__global_pointer$+0x5f2ca>
 a6a:	2055                	0x2055
 a6c:	20373143          	fmadd.s	ft2,fa4,ft3,ft4,rup
 a70:	2e39                	addiw	t3,t3,14
 a72:	2e32                	fld	ft8,264(sp)
 a74:	2030                	fld	fa2,64(s0)
 a76:	6d2d                	lui	s10,0xb
 a78:	7261                	lui	tp,0xffff8
 a7a:	723d6863          	bltu	s10,gp,11aa <_start-0xef06>
 a7e:	3676                	fld	fa2,376(sp)
 a80:	6934                	ld	a3,80(a0)
 a82:	616d                	addi	sp,sp,240
 a84:	6466                	ld	s0,88(sp)
 a86:	6d2d2063          	0x6d2d2063
 a8a:	6261                	lui	tp,0x18
 a8c:	3d69                	addiw	s10,s10,-6
 a8e:	706c                	ld	a1,224(s0)
 a90:	3436                	fld	fs0,360(sp)
 a92:	2064                	fld	fs1,192(s0)
 a94:	672d                	lui	a4,0xb
 a96:	2d20                	fld	fs0,88(a0)
 a98:	5f00324f          	fnmadd.q	ft4,ft0,fa6,fa1,rup
 a9c:	5f737973          	csrrci	s2,0x5f7,6
 aa0:	7265                	lui	tp,0xffff9
 aa2:	6c72                	ld	s8,280(sp)
 aa4:	7369                	lui	t1,0xffffa
 aa6:	0074                	addi	a3,sp,12
 aa8:	63737973          	csrrci	s2,0x637,6
 aac:	6c61                	lui	s8,0x18
 aae:	5f6c                	lw	a1,124(a4)
 ab0:	7265                	lui	tp,0xffff9
 ab2:	6e72                	ld	t3,280(sp)
 ab4:	5f5f006f          	j	f18a8 <__global_pointer$+0xdfc28>
 ab8:	63737973          	csrrci	s2,0x637,6
 abc:	6c61                	lui	s8,0x18
 abe:	5f6c                	lw	a1,124(a4)
 ac0:	7265                	lui	tp,0xffff9
 ac2:	6f72                	ld	t5,280(sp)
 ac4:	0072                	c.slli	zero,0x1c
 ac6:	6d6f682f          	0x6d6f682f
 aca:	2f65                	addiw	t5,t5,25
 acc:	6164                	ld	s1,192(a0)
 ace:	696e                	ld	s2,216(sp)
 ad0:	6c65                	lui	s8,0x19
 ad2:	7369722f          	0x7369722f
 ad6:	732f7663          	bgeu	t5,s2,1202 <_start-0xeeae>
 ada:	6372                	ld	t1,280(sp)
 adc:	77656e2f          	0x77656e2f
 ae0:	696c                	ld	a1,208(a0)
 ae2:	2d62                	fld	fs10,24(sp)
 ae4:	77677963          	bgeu	a4,s6,1256 <_start-0xee5a>
 ae8:	6e69                	lui	t3,0x1a
 aea:	62696c2f          	0x62696c2f
 aee:	736f6c67          	0x736f6c67
 af2:	69722f73          	csrrs	t5,0x697,tp
 af6:	2f766373          	csrrsi	t1,0x2f7,12
 afa:	5f737973          	csrrci	s2,0x5f7,6
 afe:	7865                	lui	a6,0xffff9
 b00:	7469                	lui	s0,0xffffa
 b02:	632e                	ld	t1,200(sp)
 b04:	6500                	ld	s0,8(a0)
 b06:	6978                	ld	a4,208(a0)
 b08:	5f74                	lw	a3,124(a4)
 b0a:	74617473          	csrrci	s0,0x746,2
 b0e:	7375                	lui	t1,0xffffd
 b10:	5f00                	lw	s0,56(a4)
 b12:	5f737973          	csrrci	s2,0x5f7,6
 b16:	656e                	ld	a0,216(sp)
 b18:	7272                	ld	tp,312(sp)
 b1a:	2f00                	fld	fs0,24(a4)
 b1c:	6f68                	ld	a0,216(a4)
 b1e:	656d                	lui	a0,0x1b
 b20:	6e61642f          	0x6e61642f
 b24:	6569                	lui	a0,0x1a
 b26:	2f6c                	fld	fa1,216(a4)
 b28:	6972                	ld	s2,280(sp)
 b2a:	2f766373          	csrrsi	t1,0x2f7,12
 b2e:	646a626f          	jal	tp,a7174 <__global_pointer$+0x954f4>
 b32:	7269                	lui	tp,0xffffa
 b34:	7369722f          	0x7369722f
 b38:	34367663          	bgeu	a2,gp,e84 <_start-0xf22c>
 b3c:	6c2d                	lui	s8,0xb
 b3e:	6c652d73          	csrrs	s10,0x6c6,a0
 b42:	2f66                	fld	ft10,88(sp)
 b44:	67617453          	0x67617453
 b48:	3165                	addiw	sp,sp,-7
 b4a:	77656e2f          	0x77656e2f
 b4e:	696c                	ld	a1,208(a0)
 b50:	2f62                	fld	ft10,24(sp)
 b52:	6972                	ld	s2,280(sp)
 b54:	36766373          	csrrsi	t1,0x367,12
 b58:	2d34                	fld	fa3,88(a0)
 b5a:	736c                	ld	a1,224(a4)
 b5c:	652d                	lui	a0,0xb
 b5e:	666c                	ld	a1,200(a2)
 b60:	3676722f          	0x3676722f
 b64:	6934                	ld	a3,80(a0)
 b66:	616d                	addi	sp,sp,240
 b68:	6466                	ld	s0,88(sp)
 b6a:	706c2f63          	0x706c2f63
 b6e:	3436                	fld	fs0,360(sp)
 b70:	2f64                	fld	fs1,216(a4)
 b72:	656e                	ld	a0,216(sp)
 b74:	62696c77          	0x62696c77
 b78:	62696c2f          	0x62696c2f
 b7c:	72652f63          	0x72652f63
 b80:	6e72                	ld	t3,280(sp)
 b82:	682f006f          	j	f1204 <__global_pointer$+0xdf584>
 b86:	2f656d6f          	jal	s10,56e7c <__global_pointer$+0x451fc>
 b8a:	6164                	ld	s1,192(a0)
 b8c:	696e                	ld	s2,216(sp)
 b8e:	6c65                	lui	s8,0x19
 b90:	7369722f          	0x7369722f
 b94:	732f7663          	bgeu	t5,s2,12c0 <_start-0xedf0>
 b98:	6372                	ld	t1,280(sp)
 b9a:	77656e2f          	0x77656e2f
 b9e:	696c                	ld	a1,208(a0)
 ba0:	2d62                	fld	fs10,24(sp)
 ba2:	77677963          	bgeu	a4,s6,1314 <_start-0xed9c>
 ba6:	6e69                	lui	t3,0x1a
 ba8:	77656e2f          	0x77656e2f
 bac:	696c                	ld	a1,208(a0)
 bae:	2f62                	fld	ft10,24(sp)
 bb0:	696c                	ld	a1,208(a0)
 bb2:	6362                	ld	t1,24(sp)
 bb4:	7272652f          	0x7272652f
 bb8:	6f6e                	ld	t5,216(sp)
 bba:	7272652f          	0x7272652f
 bbe:	6f6e                	ld	t5,216(sp)
 bc0:	632e                	ld	t1,200(sp)
	...

Disassembly of section .debug_loc:

0000000000000000 <.debug_loc>:
	...
   8:	0008                	0x8
   a:	0000                	unimp
   c:	0000                	unimp
   e:	0000                	unimp
  10:	0001                	nop
  12:	085a                	slli	a6,a6,0x16
  14:	0000                	unimp
  16:	0000                	unimp
  18:	0000                	unimp
  1a:	0900                	addi	s0,sp,144
  1c:	0000                	unimp
  1e:	0000                	unimp
  20:	0000                	unimp
  22:	0100                	addi	s0,sp,128
  24:	5b00                	lw	s0,48(a4)
  26:	0009                	c.nop	2
  28:	0000                	unimp
  2a:	0000                	unimp
  2c:	0000                	unimp
  2e:	000a                	c.slli	zero,0x2
  30:	0000                	unimp
  32:	0000                	unimp
  34:	0000                	unimp
  36:	0004                	0x4
  38:	9f5a01f3          	0x9f5a01f3
	...
  54:	000d                	c.nop	3
  56:	0000                	unimp
  58:	0000                	unimp
  5a:	0000                	unimp
  5c:	0001                	nop
  5e:	0d5a                	slli	s10,s10,0x16
  60:	0000                	unimp
  62:	0000                	unimp
  64:	0000                	unimp
  66:	1e00                	addi	s0,sp,816
  68:	0000                	unimp
  6a:	0000                	unimp
  6c:	0000                	unimp
  6e:	0400                	addi	s0,sp,512
  70:	f300                	sd	s0,32(a4)
  72:	5a01                	li	s4,-32
  74:	009f 0000 0000      	0x9f
	...
  82:	0000                	unimp
  84:	1a00                	addi	s0,sp,304
  86:	0000                	unimp
  88:	0000                	unimp
  8a:	0000                	unimp
  8c:	2000                	fld	fs0,0(s0)
  8e:	0000                	unimp
  90:	0000                	unimp
  92:	0000                	unimp
  94:	0100                	addi	s0,sp,128
  96:	5900                	lw	s0,48(a0)
	...
  a8:	001a                	c.slli	zero,0x6
  aa:	0000                	unimp
  ac:	0000                	unimp
  ae:	0000                	unimp
  b0:	0024                	addi	s1,sp,8
  b2:	0000                	unimp
  b4:	0000                	unimp
  b6:	0000                	unimp
  b8:	0001                	nop
  ba:	2459                	addiw	s0,s0,22
  bc:	0000                	unimp
  be:	0000                	unimp
  c0:	0000                	unimp
  c2:	2800                	fld	fs0,16(s0)
  c4:	0000                	unimp
  c6:	0000                	unimp
  c8:	0000                	unimp
  ca:	0300                	addi	s0,sp,384
  cc:	7900                	ld	s0,48(a0)
  ce:	9f01                	subw	a4,a4,s0
  d0:	0028                	addi	a0,sp,8
  d2:	0000                	unimp
  d4:	0000                	unimp
  d6:	0000                	unimp
  d8:	0030                	addi	a2,sp,8
  da:	0000                	unimp
  dc:	0000                	unimp
  de:	0000                	unimp
  e0:	0001                	nop
  e2:	0059                	c.nop	22
	...
  f0:	0000                	unimp
  f2:	1e00                	addi	s0,sp,816
  f4:	0000                	unimp
  f6:	0000                	unimp
  f8:	0000                	unimp
  fa:	3800                	fld	fs0,48(s0)
  fc:	0000                	unimp
  fe:	0000                	unimp
 100:	0000                	unimp
 102:	0100                	addi	s0,sp,128
 104:	6200                	ld	s0,0(a2)
 106:	0048                	addi	a0,sp,4
 108:	0000                	unimp
 10a:	0000                	unimp
 10c:	0000                	unimp
 10e:	0066                	c.slli	zero,0x19
 110:	0000                	unimp
 112:	0000                	unimp
 114:	0000                	unimp
 116:	0001                	nop
 118:	0062                	c.slli	zero,0x18
	...
 126:	0000                	unimp
 128:	1e00                	addi	s0,sp,816
 12a:	0000                	unimp
 12c:	0000                	unimp
 12e:	0000                	unimp
 130:	2800                	fld	fs0,16(s0)
 132:	0000                	unimp
 134:	0000                	unimp
 136:	0000                	unimp
 138:	0200                	addi	s0,sp,256
 13a:	3000                	fld	fs0,32(s0)
 13c:	289f 0000 0000      	0x289f
 142:	0000                	unimp
 144:	2c00                	fld	fs0,24(s0)
 146:	0000                	unimp
 148:	0000                	unimp
 14a:	0000                	unimp
 14c:	0100                	addi	s0,sp,128
 14e:	5900                	lw	s0,48(a0)
 150:	002c                	addi	a1,sp,8
 152:	0000                	unimp
 154:	0000                	unimp
 156:	0000                	unimp
 158:	0030                	addi	a2,sp,8
 15a:	0000                	unimp
 15c:	0000                	unimp
 15e:	0000                	unimp
 160:	7f790003          	lb	zero,2039(s2) # ffffffffffff87f7 <__global_pointer$+0xfffffffffffe6b77>
 164:	309f 0000 0000      	0x309f
 16a:	0000                	unimp
 16c:	3400                	fld	fs0,40(s0)
 16e:	0000                	unimp
 170:	0000                	unimp
 172:	0000                	unimp
 174:	0100                	addi	s0,sp,128
 176:	5900                	lw	s0,48(a0)
 178:	0048                	addi	a0,sp,4
 17a:	0000                	unimp
 17c:	0000                	unimp
 17e:	0000                	unimp
 180:	0052                	c.slli	zero,0x14
 182:	0000                	unimp
 184:	0000                	unimp
 186:	0000                	unimp
 188:	0002                	c.slli64	zero
 18a:	9f30                	0x9f30
 18c:	0052                	c.slli	zero,0x14
 18e:	0000                	unimp
 190:	0000                	unimp
 192:	0000                	unimp
 194:	0056                	c.slli	zero,0x15
 196:	0000                	unimp
 198:	0000                	unimp
 19a:	0000                	unimp
 19c:	0001                	nop
 19e:	5659                	li	a2,-10
 1a0:	0000                	unimp
 1a2:	0000                	unimp
 1a4:	0000                	unimp
 1a6:	5a00                	lw	s0,48(a2)
 1a8:	0000                	unimp
 1aa:	0000                	unimp
 1ac:	0000                	unimp
 1ae:	0300                	addi	s0,sp,384
 1b0:	7900                	ld	s0,48(a0)
 1b2:	9f7f                	0x9f7f
 1b4:	005a                	c.slli	zero,0x16
 1b6:	0000                	unimp
 1b8:	0000                	unimp
 1ba:	0000                	unimp
 1bc:	005e                	c.slli	zero,0x17
 1be:	0000                	unimp
 1c0:	0000                	unimp
 1c2:	0000                	unimp
 1c4:	0001                	nop
 1c6:	0059                	c.nop	22
	...
 1dc:	0000                	unimp
 1de:	4a00                	lw	s0,16(a2)
 1e0:	0000                	unimp
 1e2:	0000                	unimp
 1e4:	0000                	unimp
 1e6:	0100                	addi	s0,sp,128
 1e8:	5a00                	lw	s0,48(a2)
 1ea:	004a                	c.slli	zero,0x12
 1ec:	0000                	unimp
 1ee:	0000                	unimp
 1f0:	0000                	unimp
 1f2:	004c                	addi	a1,sp,4
 1f4:	0000                	unimp
 1f6:	0000                	unimp
 1f8:	0000                	unimp
 1fa:	0004                	0x4
 1fc:	9f5a01f3          	0x9f5a01f3
 200:	004c                	addi	a1,sp,4
 202:	0000                	unimp
 204:	0000                	unimp
 206:	0000                	unimp
 208:	005c                	addi	a5,sp,4
 20a:	0000                	unimp
 20c:	0000                	unimp
 20e:	0000                	unimp
 210:	0001                	nop
 212:	5c5a                	lw	s8,180(sp)
 214:	0000                	unimp
 216:	0000                	unimp
 218:	0000                	unimp
 21a:	7200                	ld	s0,32(a2)
 21c:	0000                	unimp
 21e:	0000                	unimp
 220:	0000                	unimp
 222:	0400                	addi	s0,sp,512
 224:	f300                	sd	s0,32(a4)
 226:	5a01                	li	s4,-32
 228:	729f 0000 0000      	0x729f
 22e:	0000                	unimp
 230:	7400                	ld	s0,40(s0)
 232:	0000                	unimp
 234:	0000                	unimp
 236:	0000                	unimp
 238:	0100                	addi	s0,sp,128
 23a:	5a00                	lw	s0,48(a2)
 23c:	0074                	addi	a3,sp,12
 23e:	0000                	unimp
 240:	0000                	unimp
 242:	0000                	unimp
 244:	0076                	c.slli	zero,0x1d
 246:	0000                	unimp
 248:	0000                	unimp
 24a:	0000                	unimp
 24c:	0004                	0x4
 24e:	9f5a01f3          	0x9f5a01f3
	...
 26a:	0024                	addi	s1,sp,8
 26c:	0000                	unimp
 26e:	0000                	unimp
 270:	0000                	unimp
 272:	0001                	nop
 274:	245c                	fld	fa5,136(s0)
 276:	0000                	unimp
 278:	0000                	unimp
 27a:	0000                	unimp
 27c:	3000                	fld	fs0,32(s0)
 27e:	0000                	unimp
 280:	0000                	unimp
 282:	0000                	unimp
 284:	0300                	addi	s0,sp,384
 286:	8000                	0x8000
 288:	0290                	addi	a2,sp,320
 28a:	0030                	addi	a2,sp,8
 28c:	0000                	unimp
 28e:	0000                	unimp
 290:	0000                	unimp
 292:	004c                	addi	a1,sp,4
 294:	0000                	unimp
 296:	0000                	unimp
 298:	0000                	unimp
 29a:	0004                	0x4
 29c:	9f5c01f3          	0x9f5c01f3
 2a0:	004c                	addi	a1,sp,4
 2a2:	0000                	unimp
 2a4:	0000                	unimp
 2a6:	0000                	unimp
 2a8:	0056                	c.slli	zero,0x15
 2aa:	0000                	unimp
 2ac:	0000                	unimp
 2ae:	0000                	unimp
 2b0:	0001                	nop
 2b2:	565c                	lw	a5,44(a2)
 2b4:	0000                	unimp
 2b6:	0000                	unimp
 2b8:	0000                	unimp
 2ba:	7200                	ld	s0,32(a2)
 2bc:	0000                	unimp
 2be:	0000                	unimp
 2c0:	0000                	unimp
 2c2:	0400                	addi	s0,sp,512
 2c4:	f300                	sd	s0,32(a4)
 2c6:	5c01                	li	s8,-32
 2c8:	729f 0000 0000      	0x729f
 2ce:	0000                	unimp
 2d0:	7600                	ld	s0,40(a2)
 2d2:	0000                	unimp
 2d4:	0000                	unimp
 2d6:	0000                	unimp
 2d8:	0100                	addi	s0,sp,128
 2da:	5c00                	lw	s0,56(s0)
	...
 2f4:	0036                	c.slli	zero,0xd
 2f6:	0000                	unimp
 2f8:	0000                	unimp
 2fa:	0000                	unimp
 2fc:	0001                	nop
 2fe:	365d                	addiw	a2,a2,-9
 300:	0000                	unimp
 302:	0000                	unimp
 304:	0000                	unimp
 306:	3a00                	fld	fs0,48(a2)
 308:	0000                	unimp
 30a:	0000                	unimp
 30c:	0000                	unimp
 30e:	0300                	addi	s0,sp,384
 310:	8000                	0x8000
 312:	0490                	addi	a2,sp,576
 314:	003a                	c.slli	zero,0xe
 316:	0000                	unimp
 318:	0000                	unimp
 31a:	0000                	unimp
 31c:	004c                	addi	a1,sp,4
 31e:	0000                	unimp
 320:	0000                	unimp
 322:	0000                	unimp
 324:	0004                	0x4
 326:	9f5d01f3          	0x9f5d01f3
 32a:	004c                	addi	a1,sp,4
 32c:	0000                	unimp
 32e:	0000                	unimp
 330:	0000                	unimp
 332:	0056                	c.slli	zero,0x15
 334:	0000                	unimp
 336:	0000                	unimp
 338:	0000                	unimp
 33a:	0001                	nop
 33c:	565d                	li	a2,-9
 33e:	0000                	unimp
 340:	0000                	unimp
 342:	0000                	unimp
 344:	6a00                	ld	s0,16(a2)
 346:	0000                	unimp
 348:	0000                	unimp
 34a:	0000                	unimp
 34c:	0300                	addi	s0,sp,384
 34e:	8000                	0x8000
 350:	0490                	addi	a2,sp,576
 352:	006a                	c.slli	zero,0x1a
 354:	0000                	unimp
 356:	0000                	unimp
 358:	0000                	unimp
 35a:	0072                	c.slli	zero,0x1c
 35c:	0000                	unimp
 35e:	0000                	unimp
 360:	0000                	unimp
 362:	0004                	0x4
 364:	9f5d01f3          	0x9f5d01f3
 368:	0072                	c.slli	zero,0x1c
 36a:	0000                	unimp
 36c:	0000                	unimp
 36e:	0000                	unimp
 370:	0076                	c.slli	zero,0x1d
 372:	0000                	unimp
 374:	0000                	unimp
 376:	0000                	unimp
 378:	0001                	nop
 37a:	005d                	c.nop	23
	...
 388:	0000                	unimp
 38a:	1400                	addi	s0,sp,544
 38c:	0000                	unimp
 38e:	0000                	unimp
 390:	0000                	unimp
 392:	3a00                	fld	fs0,48(a2)
 394:	0000                	unimp
 396:	0000                	unimp
 398:	0000                	unimp
 39a:	0400                	addi	s0,sp,512
 39c:	7f00                	ld	s0,56(a4)
 39e:	0290                	addi	a2,sp,320
 3a0:	569f 0000 0000      	0x569f
 3a6:	0000                	unimp
 3a8:	6e00                	ld	s0,24(a2)
 3aa:	0000                	unimp
 3ac:	0000                	unimp
 3ae:	0000                	unimp
 3b0:	0400                	addi	s0,sp,512
 3b2:	7f00                	ld	s0,56(a4)
 3b4:	0290                	addi	a2,sp,320
 3b6:	009f 0000 0000      	0x9f
	...
 3c4:	0000                	unimp
 3c6:	0800                	addi	s0,sp,16
 3c8:	0000                	unimp
 3ca:	0000                	unimp
 3cc:	0000                	unimp
 3ce:	4600                	lw	s0,8(a2)
 3d0:	0000                	unimp
 3d2:	0000                	unimp
 3d4:	0000                	unimp
 3d6:	0100                	addi	s0,sp,128
 3d8:	5f00                	lw	s0,56(a4)
 3da:	004c                	addi	a1,sp,4
 3dc:	0000                	unimp
 3de:	0000                	unimp
 3e0:	0000                	unimp
 3e2:	006e                	c.slli	zero,0x1b
 3e4:	0000                	unimp
 3e6:	0000                	unimp
 3e8:	0000                	unimp
 3ea:	0001                	nop
 3ec:	725f 0000 0000      	0x725f
 3f2:	0000                	unimp
 3f4:	7600                	ld	s0,40(a2)
 3f6:	0000                	unimp
 3f8:	0000                	unimp
 3fa:	0000                	unimp
 3fc:	0100                	addi	s0,sp,128
 3fe:	5f00                	lw	s0,56(a4)
	...
 418:	002a                	c.slli	zero,0xa
 41a:	0000                	unimp
 41c:	0000                	unimp
 41e:	0000                	unimp
 420:	0001                	nop
 422:	2a5a                	fld	fs4,400(sp)
 424:	0000                	unimp
 426:	0000                	unimp
 428:	0000                	unimp
 42a:	c200                	sw	s0,0(a2)
 42c:	0000                	unimp
 42e:	0000                	unimp
 430:	0000                	unimp
 432:	0400                	addi	s0,sp,512
 434:	f300                	sd	s0,32(a4)
 436:	5a01                	li	s4,-32
 438:	009f 0000 0000      	0x9f
	...
 44e:	0000                	unimp
 450:	2a00                	fld	fs0,16(a2)
 452:	0000                	unimp
 454:	0000                	unimp
 456:	0000                	unimp
 458:	0100                	addi	s0,sp,128
 45a:	5b00                	lw	s0,48(a4)
 45c:	002a                	c.slli	zero,0xa
 45e:	0000                	unimp
 460:	0000                	unimp
 462:	0000                	unimp
 464:	004e                	c.slli	zero,0x13
 466:	0000                	unimp
 468:	0000                	unimp
 46a:	0000                	unimp
 46c:	0001                	nop
 46e:	00004e67          	0x4e67
 472:	0000                	unimp
 474:	0000                	unimp
 476:	6600                	ld	s0,8(a2)
 478:	0000                	unimp
 47a:	0000                	unimp
 47c:	0000                	unimp
 47e:	0400                	addi	s0,sp,512
 480:	f300                	sd	s0,32(a4)
 482:	5b01                	li	s6,-32
 484:	669f 0000 0000      	0x669f
 48a:	0000                	unimp
 48c:	c200                	sw	s0,0(a2)
 48e:	0000                	unimp
 490:	0000                	unimp
 492:	0000                	unimp
 494:	0100                	addi	s0,sp,128
 496:	6700                	ld	s0,8(a4)
	...
 4a8:	0010                	0x10
 4aa:	0000                	unimp
 4ac:	0000                	unimp
 4ae:	0000                	unimp
 4b0:	004e                	c.slli	zero,0x13
 4b2:	0000                	unimp
 4b4:	0000                	unimp
 4b6:	0000                	unimp
 4b8:	0001                	nop
 4ba:	6662                	ld	a2,24(sp)
 4bc:	0000                	unimp
 4be:	0000                	unimp
 4c0:	0000                	unimp
 4c2:	9c00                	0x9c00
 4c4:	0000                	unimp
 4c6:	0000                	unimp
 4c8:	0000                	unimp
 4ca:	0100                	addi	s0,sp,128
 4cc:	6200                	ld	s0,0(a2)
 4ce:	009c                	addi	a5,sp,64
 4d0:	0000                	unimp
 4d2:	0000                	unimp
 4d4:	0000                	unimp
 4d6:	00a2                	slli	ra,ra,0x8
 4d8:	0000                	unimp
 4da:	0000                	unimp
 4dc:	0000                	unimp
 4de:	f8840003          	lb	zero,-120(s0) # ffffffffffff9f88 <__global_pointer$+0xfffffffffffe8308>
 4e2:	0000a203          	lw	tp,0(ra)
 4e6:	0000                	unimp
 4e8:	0000                	unimp
 4ea:	c200                	sw	s0,0(a2)
 4ec:	0000                	unimp
 4ee:	0000                	unimp
 4f0:	0000                	unimp
 4f2:	0100                	addi	s0,sp,128
 4f4:	6200                	ld	s0,0(a2)
	...
 506:	0010                	0x10
 508:	0000                	unimp
 50a:	0000                	unimp
 50c:	0000                	unimp
 50e:	004e                	c.slli	zero,0x13
 510:	0000                	unimp
 512:	0000                	unimp
 514:	0000                	unimp
 516:	0004                	0x4
 518:	f884                	sd	s1,48(s1)
 51a:	00669f03          	lh	t5,6(a3)
 51e:	0000                	unimp
 520:	0000                	unimp
 522:	0000                	unimp
 524:	00c2                	slli	ra,ra,0x10
 526:	0000                	unimp
 528:	0000                	unimp
 52a:	0000                	unimp
 52c:	0004                	0x4
 52e:	f884                	sd	s1,48(s1)
 530:	00009f03          	lh	t5,0(ra)
	...
 540:	0000                	unimp
 542:	002a                	c.slli	zero,0xa
 544:	0000                	unimp
 546:	0000                	unimp
 548:	0000                	unimp
 54a:	004e                	c.slli	zero,0x13
 54c:	0000                	unimp
 54e:	0000                	unimp
 550:	0000                	unimp
 552:	0004                	0x4
 554:	9082                	jalr	ra
 556:	9f02                	jalr	t5
 558:	0066                	c.slli	zero,0x19
 55a:	0000                	unimp
 55c:	0000                	unimp
 55e:	0000                	unimp
 560:	00a0                	addi	s0,sp,72
 562:	0000                	unimp
 564:	0000                	unimp
 566:	0000                	unimp
 568:	0004                	0x4
 56a:	9082                	jalr	ra
 56c:	9f02                	jalr	t5
 56e:	00a2                	slli	ra,ra,0x8
 570:	0000                	unimp
 572:	0000                	unimp
 574:	0000                	unimp
 576:	00c2                	slli	ra,ra,0x10
 578:	0000                	unimp
 57a:	0000                	unimp
 57c:	0000                	unimp
 57e:	0004                	0x4
 580:	9082                	jalr	ra
 582:	9f02                	jalr	t5
	...
 594:	0032                	c.slli	zero,0xc
 596:	0000                	unimp
 598:	0000                	unimp
 59a:	0000                	unimp
 59c:	0038                	addi	a4,sp,8
 59e:	0000                	unimp
 5a0:	0000                	unimp
 5a2:	0000                	unimp
 5a4:	7f790003          	lb	zero,2039(s2)
 5a8:	389f 0000 0000      	0x389f
 5ae:	0000                	unimp
 5b0:	3a00                	fld	fs0,48(a2)
 5b2:	0000                	unimp
 5b4:	0000                	unimp
 5b6:	0000                	unimp
 5b8:	0700                	addi	s0,sp,896
 5ba:	8200                	0x8200
 5bc:	9408                	0x9408
 5be:	3104                	fld	fs1,32(a0)
 5c0:	9f1c                	0x9f1c
 5c2:	003a                	c.slli	zero,0xe
 5c4:	0000                	unimp
 5c6:	0000                	unimp
 5c8:	0000                	unimp
 5ca:	0048                	addi	a0,sp,4
 5cc:	0000                	unimp
 5ce:	0000                	unimp
 5d0:	0000                	unimp
 5d2:	0001                	nop
 5d4:	6658                	ld	a4,136(a2)
 5d6:	0000                	unimp
 5d8:	0000                	unimp
 5da:	0000                	unimp
 5dc:	c200                	sw	s0,0(a2)
 5de:	0000                	unimp
 5e0:	0000                	unimp
 5e2:	0000                	unimp
 5e4:	0100                	addi	s0,sp,128
 5e6:	5800                	lw	s0,48(s0)
	...
 5f8:	003a                	c.slli	zero,0xe
 5fa:	0000                	unimp
 5fc:	0000                	unimp
 5fe:	0000                	unimp
 600:	0048                	addi	a0,sp,4
 602:	0000                	unimp
 604:	0000                	unimp
 606:	0000                	unimp
 608:	0005                	c.nop	1
 60a:	7831                	lui	a6,0xfffec
 60c:	2400                	fld	fs0,8(s0)
 60e:	669f 0000 0000      	0x669f
 614:	0000                	unimp
 616:	c200                	sw	s0,0(a2)
 618:	0000                	unimp
 61a:	0000                	unimp
 61c:	0000                	unimp
 61e:	0500                	addi	s0,sp,640
 620:	3100                	fld	fs0,32(a0)
 622:	0078                	addi	a4,sp,12
 624:	9f24                	0x9f24
	...
 636:	006c                	addi	a1,sp,12
 638:	0000                	unimp
 63a:	0000                	unimp
 63c:	0000                	unimp
 63e:	0000008b          	0x8b
 642:	0000                	unimp
 644:	0000                	unimp
 646:	0001                	nop
 648:	a25e                	fsd	fs7,256(sp)
 64a:	0000                	unimp
 64c:	0000                	unimp
 64e:	0000                	unimp
 650:	b300                	fsd	fs0,32(a4)
 652:	0000                	unimp
 654:	0000                	unimp
 656:	0000                	unimp
 658:	0100                	addi	s0,sp,128
 65a:	5e00                	lw	s0,56(a2)
 65c:	00b6                	slli	ra,ra,0xd
 65e:	0000                	unimp
 660:	0000                	unimp
 662:	0000                	unimp
 664:	000000bf 00000000 	0xbf
 66c:	0001                	nop
 66e:	005e                	c.slli	zero,0x17
	...
 67c:	0000                	unimp
 67e:	8400                	0x8400
 680:	0000                	unimp
 682:	0000                	unimp
 684:	0000                	unimp
 686:	b600                	fsd	fs0,40(a2)
 688:	0000                	unimp
 68a:	0000                	unimp
 68c:	0000                	unimp
 68e:	0100                	addi	s0,sp,128
 690:	6800                	ld	s0,16(s0)
 692:	00bc                	addi	a5,sp,72
 694:	0000                	unimp
 696:	0000                	unimp
 698:	0000                	unimp
 69a:	00c2                	slli	ra,ra,0x10
 69c:	0000                	unimp
 69e:	0000                	unimp
 6a0:	0000                	unimp
 6a2:	0001                	nop
 6a4:	0068                	addi	a0,sp,12
	...
 6ba:	0000                	unimp
 6bc:	1200                	addi	s0,sp,288
 6be:	0000                	unimp
 6c0:	0000                	unimp
 6c2:	0000                	unimp
 6c4:	0100                	addi	s0,sp,128
 6c6:	5a00                	lw	s0,48(a2)
 6c8:	0012                	c.slli	zero,0x4
 6ca:	0000                	unimp
 6cc:	0000                	unimp
 6ce:	0000                	unimp
 6d0:	002c                	addi	a1,sp,8
 6d2:	0000                	unimp
 6d4:	0000                	unimp
 6d6:	0000                	unimp
 6d8:	0004                	0x4
 6da:	9f5a01f3          	0x9f5a01f3
	...
 6f6:	0016                	c.slli	zero,0x5
 6f8:	0000                	unimp
 6fa:	0000                	unimp
 6fc:	0000                	unimp
 6fe:	0002                	c.slli64	zero
 700:	9f30                	0x9f30
 702:	0018                	0x18
 704:	0000                	unimp
 706:	0000                	unimp
 708:	0000                	unimp
 70a:	002a                	c.slli	zero,0xa
 70c:	0000                	unimp
 70e:	0000                	unimp
 710:	0000                	unimp
 712:	0002                	c.slli64	zero
 714:	9f30                	0x9f30
	...
 72e:	0012                	c.slli	zero,0x4
 730:	0000                	unimp
 732:	0000                	unimp
 734:	0000                	unimp
 736:	0009                	c.nop	2
 738:	007a                	c.slli	zero,0x1e
 73a:	2008                	fld	fa0,0(s0)
 73c:	0824                	addi	s1,sp,24
 73e:	2620                	fld	fs0,72(a2)
 740:	009f 0000 0000      	0x9f
	...
 756:	0000                	unimp
 758:	1600                	addi	s0,sp,800
 75a:	0000                	unimp
 75c:	0000                	unimp
 75e:	0000                	unimp
 760:	0300                	addi	s0,sp,384
 762:	0800                	addi	s0,sp,16
 764:	9f5d                	0x9f5d
 766:	0018                	0x18
 768:	0000                	unimp
 76a:	0000                	unimp
 76c:	0000                	unimp
 76e:	002a                	c.slli	zero,0xa
 770:	0000                	unimp
 772:	0000                	unimp
 774:	0000                	unimp
 776:	5d080003          	lb	zero,1488(a6) # fffffffffffec5d0 <__global_pointer$+0xfffffffffffda950>
 77a:	009f 0000 0000      	0x9f
	...
 788:	0000                	unimp
 78a:	1200                	addi	s0,sp,288
 78c:	0000                	unimp
 78e:	0000                	unimp
 790:	0000                	unimp
 792:	2700                	fld	fs0,8(a4)
 794:	0000                	unimp
 796:	0000                	unimp
 798:	0000                	unimp
 79a:	0100                	addi	s0,sp,128
 79c:	5a00                	lw	s0,48(a2)
	...
 7b6:	0012                	c.slli	zero,0x4
 7b8:	0000                	unimp
 7ba:	0000                	unimp
 7bc:	0000                	unimp
 7be:	0002                	c.slli64	zero
 7c0:	9f30                	0x9f30
	...
 7da:	0012                	c.slli	zero,0x4
 7dc:	0000                	unimp
 7de:	0000                	unimp
 7e0:	0000                	unimp
 7e2:	5d080003          	lb	zero,1488(a6)
 7e6:	009f 0000 0000      	0x9f
	...
 7f4:	0000                	unimp
 7f6:	1e00                	addi	s0,sp,816
 7f8:	0000                	unimp
 7fa:	0000                	unimp
 7fc:	0000                	unimp
 7fe:	2400                	fld	fs0,8(s0)
 800:	0000                	unimp
 802:	0000                	unimp
 804:	0000                	unimp
 806:	0100                	addi	s0,sp,128
 808:	5800                	lw	s0,48(s0)
 80a:	0024                	addi	s1,sp,8
 80c:	0000                	unimp
 80e:	0000                	unimp
 810:	0000                	unimp
 812:	00000027          	0x27
 816:	0000                	unimp
 818:	0000                	unimp
 81a:	0001                	nop
 81c:	005a                	c.slli	zero,0x16
	...

Disassembly of section .debug_ranges:

0000000000000000 <.debug_ranges>:
   0:	003a                	c.slli	zero,0xe
   2:	0000                	unimp
   4:	0000                	unimp
   6:	0000                	unimp
   8:	0046                	c.slli	zero,0x11
   a:	0000                	unimp
   c:	0000                	unimp
   e:	0000                	unimp
  10:	0066                	c.slli	zero,0x19
  12:	0000                	unimp
  14:	0000                	unimp
  16:	0000                	unimp
  18:	009c                	addi	a5,sp,64
  1a:	0000                	unimp
  1c:	0000                	unimp
  1e:	0000                	unimp
  20:	00a2                	slli	ra,ra,0x8
  22:	0000                	unimp
  24:	0000                	unimp
  26:	0000                	unimp
  28:	00c2                	slli	ra,ra,0x10
	...
  46:	0000                	unimp
  48:	0016                	c.slli	zero,0x5
  4a:	0000                	unimp
  4c:	0000                	unimp
  4e:	0000                	unimp
  50:	0018                	0x18
  52:	0000                	unimp
  54:	0000                	unimp
  56:	0000                	unimp
  58:	0018                	0x18
  5a:	0000                	unimp
  5c:	0000                	unimp
  5e:	0000                	unimp
  60:	001e                	c.slli	zero,0x7
  62:	0000                	unimp
  64:	0000                	unimp
  66:	0000                	unimp
  68:	001e                	c.slli	zero,0x7
  6a:	0000                	unimp
  6c:	0000                	unimp
  6e:	0000                	unimp
  70:	0020                	addi	s0,sp,8
  72:	0000                	unimp
  74:	0000                	unimp
  76:	0000                	unimp
  78:	002a                	c.slli	zero,0xa
	...
