
test:     file format elf64-littleriscv
test
architecture: riscv:rv64, flags 0x00000112:
EXEC_P, HAS_SYMS, D_PAGED
start address 0x0000000040000000

Program Header:
    LOAD off    0x0000000000001000 vaddr 0x0000000040000000 paddr 0x0000000040000000 align 2**12
         filesz 0x0000000000000184 memsz 0x0000000000000184 flags r-x
    LOAD off    0x0000000000002000 vaddr 0x0000000040001000 paddr 0x0000000040001000 align 2**12
         filesz 0x0000000000008000 memsz 0x0000000000008000 flags rw-
    LOAD off    0x000000000000a000 vaddr 0xffffffffc0000000 paddr 0x0000000080000000 align 2**12
         filesz 0x0000000000000016 memsz 0x0000000000000016 flags r-x

Sections:
Idx Name          Size      VMA               LMA               File off  Algn
  0 .text         00000184  0000000040000000  0000000040000000  00001000  2**6
                  CONTENTS, ALLOC, LOAD, READONLY, CODE
  1 .data         00008000  0000000040001000  0000000040001000  00002000  2**12
                  CONTENTS, ALLOC, LOAD, DATA
  2 .paddr        00000016  ffffffffc0000000  0000000080000000  0000a000  2**0
                  CONTENTS, ALLOC, LOAD, READONLY, CODE
  3 .riscv.attributes 00000035  0000000000000000  0000000000000000  0000a016  2**0
                  CONTENTS, READONLY
  4 .comment      00000011  0000000000000000  0000000000000000  0000a04b  2**0
                  CONTENTS, READONLY
SYMBOL TABLE:
0000000040000000 l    d  .text	0000000000000000 .text
0000000040001000 l    d  .data	0000000000000000 .data
ffffffffc0000000 l    d  .paddr	0000000000000000 .paddr
0000000000000000 l    d  .riscv.attributes	0000000000000000 .riscv.attributes
0000000000000000 l    d  .comment	0000000000000000 .comment
0000000000000000 l    df *ABS*	0000000000000000 /tmp/cc7tRIEp.o
0000000040000002 l       .text	0000000000000000 do_reset
0000000040000030 l       .text	0000000000000000 test
0000000040001000 l       .data	0000000000000000 boot_page
0000000040005000 l       .data	0000000000000000 bootstack
ffffffffc0000000 l       .paddr	0000000000000000 patable
0000000000000000 l    df *ABS*	0000000000000000 set_ppn2.c
ffffffffc0000000 g       .paddr	0000000000000000 start_pa
0000000040004000 g       .data	0000000000000000 ppn4_page
000000004000007e g     F .text	0000000000000056 set_ppn2
0000000040000000 g       .text	0000000000000000 reset_vector
0000000040003000 g       .data	0000000000000000 ppn3_page
00000000400000d4 g     F .text	0000000000000048 set_ppn3
ffffffffc0000016 g       .paddr	0000000000000000 end_pa
0000000040009000 g       .data	0000000000000000 end_bss
0000000040009000 g       .data	0000000000000000 bootstacktop
0000000040002000 g       .data	0000000000000000 ppn2_page
000000004000011c g     F .text	0000000000000068 set_ppn4
0000000040009000 g       .data	0000000000000000 start_bss



Disassembly of section .text:

0000000040000000 <reset_vector>:
    40000000:	a009                	j	40000002 <do_reset>

0000000040000002 <do_reset>:
    40000002:	659d                	lui	a1,0x7
    40000004:	80a5859b          	addiw	a1,a1,-2038
    40000008:	30002673          	csrr	a2,mstatus
    4000000c:	8e4d                	or	a2,a2,a1
    4000000e:	30061073          	csrw	mstatus,a2
    40000012:	00000697          	auipc	a3,0x0
    40000016:	01e68693          	addi	a3,a3,30 # 40000030 <test>
    4000001a:	34169073          	csrw	mepc,a3
    4000001e:	30200073          	mret
    40000022:	0001                	nop
    40000024:	00000013          	nop
    40000028:	00000013          	nop
    4000002c:	00000013          	nop

0000000040000030 <test>:
    40000030:	00009117          	auipc	sp,0x9
    40000034:	fd010113          	addi	sp,sp,-48 # 40009000 <bootstacktop>
    40000038:	00001297          	auipc	t0,0x1
    4000003c:	fc828293          	addi	t0,t0,-56 # 40001000 <boot_page>
    40000040:	00c2d293          	srli	t0,t0,0xc
    40000044:	fff0031b          	addiw	t1,zero,-1
    40000048:	137e                	slli	t1,t1,0x3f
    4000004a:	0062e2b3          	or	t0,t0,t1
    4000004e:	00001517          	auipc	a0,0x1
    40000052:	fb250513          	addi	a0,a0,-78 # 40001000 <boot_page>
    40000056:	028000ef          	jal	ra,4000007e <set_ppn2>
    4000005a:	0772                	slli	a4,a4,0x1c
    4000005c:	12000073          	sfence.vma
    40000060:	0ff0000f          	fence
    40000064:	18029073          	csrw	satp,t0
    40000068:	0007b803          	ld	a6,0(a5)
    4000006c:	0000100f          	fence.i
    40000070:	9782                	jalr	a5
	...

000000004000007e <set_ppn2>:
    4000007e:	7179                	addi	sp,sp,-48
    40000080:	f406                	sd	ra,40(sp)
    40000082:	f022                	sd	s0,32(sp)
    40000084:	1800                	addi	s0,sp,48
    40000086:	fca43c23          	sd	a0,-40(s0)
    4000008a:	fd843783          	ld	a5,-40(s0)
    4000008e:	fef43423          	sd	a5,-24(s0)
    40000092:	400027b7          	lui	a5,0x40002
    40000096:	00078793          	mv	a5,a5
    4000009a:	fef43023          	sd	a5,-32(s0)
    4000009e:	fe043783          	ld	a5,-32(s0)
    400000a2:	87b1                	srai	a5,a5,0xc
    400000a4:	fef43023          	sd	a5,-32(s0)
    400000a8:	fe043783          	ld	a5,-32(s0)
    400000ac:	07aa                	slli	a5,a5,0xa
    400000ae:	0c17e793          	ori	a5,a5,193
    400000b2:	fef43023          	sd	a5,-32(s0)
    400000b6:	fe843783          	ld	a5,-24(s0)
    400000ba:	07a1                	addi	a5,a5,8
    400000bc:	fe043703          	ld	a4,-32(s0)
    400000c0:	e398                	sd	a4,0(a5)
    400000c2:	012000ef          	jal	ra,400000d4 <set_ppn3>
    400000c6:	056000ef          	jal	ra,4000011c <set_ppn4>
    400000ca:	0001                	nop
    400000cc:	70a2                	ld	ra,40(sp)
    400000ce:	7402                	ld	s0,32(sp)
    400000d0:	6145                	addi	sp,sp,48
    400000d2:	8082                	ret

00000000400000d4 <set_ppn3>:
    400000d4:	1101                	addi	sp,sp,-32
    400000d6:	ec22                	sd	s0,24(sp)
    400000d8:	1000                	addi	s0,sp,32
    400000da:	400027b7          	lui	a5,0x40002
    400000de:	00078793          	mv	a5,a5
    400000e2:	fef43423          	sd	a5,-24(s0)
    400000e6:	400037b7          	lui	a5,0x40003
    400000ea:	00078793          	mv	a5,a5
    400000ee:	fef43023          	sd	a5,-32(s0)
    400000f2:	fe043783          	ld	a5,-32(s0)
    400000f6:	87b1                	srai	a5,a5,0xc
    400000f8:	fef43023          	sd	a5,-32(s0)
    400000fc:	fe043783          	ld	a5,-32(s0)
    40000100:	07aa                	slli	a5,a5,0xa
    40000102:	0c17e793          	ori	a5,a5,193
    40000106:	fef43023          	sd	a5,-32(s0)
    4000010a:	fe843783          	ld	a5,-24(s0)
    4000010e:	fe043703          	ld	a4,-32(s0)
    40000112:	e398                	sd	a4,0(a5)
    40000114:	0001                	nop
    40000116:	6462                	ld	s0,24(sp)
    40000118:	6105                	addi	sp,sp,32
    4000011a:	8082                	ret

000000004000011c <set_ppn4>:
    4000011c:	1101                	addi	sp,sp,-32
    4000011e:	ec22                	sd	s0,24(sp)
    40000120:	1000                	addi	s0,sp,32
    40000122:	400037b7          	lui	a5,0x40003
    40000126:	00078793          	mv	a5,a5
    4000012a:	fef43023          	sd	a5,-32(s0)
    4000012e:	fe042623          	sw	zero,-20(s0)
    40000132:	a825                	j	4000016a <set_ppn4+0x4e>
    40000134:	fec42783          	lw	a5,-20(s0)
    40000138:	00a7979b          	slliw	a5,a5,0xa
    4000013c:	2781                	sext.w	a5,a5
    4000013e:	0cf7e793          	ori	a5,a5,207
    40000142:	0007871b          	sext.w	a4,a5
    40000146:	100007b7          	lui	a5,0x10000
    4000014a:	9fb9                	addw	a5,a5,a4
    4000014c:	0007869b          	sext.w	a3,a5
    40000150:	fec42783          	lw	a5,-20(s0)
    40000154:	078e                	slli	a5,a5,0x3
    40000156:	fe043703          	ld	a4,-32(s0)
    4000015a:	97ba                	add	a5,a5,a4
    4000015c:	8736                	mv	a4,a3
    4000015e:	e398                	sd	a4,0(a5)
    40000160:	fec42783          	lw	a5,-20(s0)
    40000164:	2785                	addiw	a5,a5,1
    40000166:	fef42623          	sw	a5,-20(s0)
    4000016a:	fec42783          	lw	a5,-20(s0)
    4000016e:	0007871b          	sext.w	a4,a5
    40000172:	1ff00793          	li	a5,511
    40000176:	fae7dfe3          	bge	a5,a4,40000134 <set_ppn4+0x18>
    4000017a:	0001                	nop
    4000017c:	0001                	nop
    4000017e:	6462                	ld	s0,24(sp)
    40000180:	6105                	addi	sp,sp,32
    40000182:	8082                	ret

Disassembly of section .paddr:

ffffffffc0000000 <start_pa>:
ffffffffc0000000:	4181                	li	gp,0
ffffffffc0000002:	4201                	li	tp,0
ffffffffc0000004:	4281                	li	t0,0
ffffffffc0000006:	4301                	li	t1,0
ffffffffc0000008:	4381                	li	t2,0
ffffffffc000000a:	4401                	li	s0,0
ffffffffc000000c:	4481                	li	s1,0
ffffffffc000000e:	4501                	li	a0,0
ffffffffc0000010:	4581                	li	a1,0
ffffffffc0000012:	4601                	li	a2,0
ffffffffc0000014:	4681                	li	a3,0

test:     file format elf64-littleriscv

Contents of section .data:
 40001000 00000000 00000000 00000000 00000000  ................
 40001010 00000000 00000000 00000000 00000000  ................
 40001020 00000000 00000000 00000000 00000000  ................
 40001030 00000000 00000000 00000000 00000000  ................
 40001040 00000000 00000000 00000000 00000000  ................
 40001050 00000000 00000000 00000000 00000000  ................
 40001060 00000000 00000000 00000000 00000000  ................
 40001070 00000000 00000000 00000000 00000000  ................
 40001080 00000000 00000000 00000000 00000000  ................
 40001090 00000000 00000000 00000000 00000000  ................
 400010a0 00000000 00000000 00000000 00000000  ................
 400010b0 00000000 00000000 00000000 00000000  ................
 400010c0 00000000 00000000 00000000 00000000  ................
 400010d0 00000000 00000000 00000000 00000000  ................
 400010e0 00000000 00000000 00000000 00000000  ................
 400010f0 00000000 00000000 00000000 00000000  ................
 40001100 00000000 00000000 00000000 00000000  ................
 40001110 00000000 00000000 00000000 00000000  ................
 40001120 00000000 00000000 00000000 00000000  ................
 40001130 00000000 00000000 00000000 00000000  ................
 40001140 00000000 00000000 00000000 00000000  ................
 40001150 00000000 00000000 00000000 00000000  ................
 40001160 00000000 00000000 00000000 00000000  ................
 40001170 00000000 00000000 00000000 00000000  ................
 40001180 00000000 00000000 00000000 00000000  ................
 40001190 00000000 00000000 00000000 00000000  ................
 400011a0 00000000 00000000 00000000 00000000  ................
 400011b0 00000000 00000000 00000000 00000000  ................
 400011c0 00000000 00000000 00000000 00000000  ................
 400011d0 00000000 00000000 00000000 00000000  ................
 400011e0 00000000 00000000 00000000 00000000  ................
 400011f0 00000000 00000000 00000000 00000000  ................
 40001200 00000000 00000000 00000000 00000000  ................
 40001210 00000000 00000000 00000000 00000000  ................
 40001220 00000000 00000000 00000000 00000000  ................
 40001230 00000000 00000000 00000000 00000000  ................
 40001240 00000000 00000000 00000000 00000000  ................
 40001250 00000000 00000000 00000000 00000000  ................
 40001260 00000000 00000000 00000000 00000000  ................
 40001270 00000000 00000000 00000000 00000000  ................
 40001280 00000000 00000000 00000000 00000000  ................
 40001290 00000000 00000000 00000000 00000000  ................
 400012a0 00000000 00000000 00000000 00000000  ................
 400012b0 00000000 00000000 00000000 00000000  ................
 400012c0 00000000 00000000 00000000 00000000  ................
 400012d0 00000000 00000000 00000000 00000000  ................
 400012e0 00000000 00000000 00000000 00000000  ................
 400012f0 00000000 00000000 00000000 00000000  ................
 40001300 00000000 00000000 00000000 00000000  ................
 40001310 00000000 00000000 00000000 00000000  ................
 40001320 00000000 00000000 00000000 00000000  ................
 40001330 00000000 00000000 00000000 00000000  ................
 40001340 00000000 00000000 00000000 00000000  ................
 40001350 00000000 00000000 00000000 00000000  ................
 40001360 00000000 00000000 00000000 00000000  ................
 40001370 00000000 00000000 00000000 00000000  ................
 40001380 00000000 00000000 00000000 00000000  ................
 40001390 00000000 00000000 00000000 00000000  ................
 400013a0 00000000 00000000 00000000 00000000  ................
 400013b0 00000000 00000000 00000000 00000000  ................
 400013c0 00000000 00000000 00000000 00000000  ................
 400013d0 00000000 00000000 00000000 00000000  ................
 400013e0 00000000 00000000 00000000 00000000  ................
 400013f0 00000000 00000000 00000000 00000000  ................
 40001400 00000000 00000000 00000000 00000000  ................
 40001410 00000000 00000000 00000000 00000000  ................
 40001420 00000000 00000000 00000000 00000000  ................
 40001430 00000000 00000000 00000000 00000000  ................
 40001440 00000000 00000000 00000000 00000000  ................
 40001450 00000000 00000000 00000000 00000000  ................
 40001460 00000000 00000000 00000000 00000000  ................
 40001470 00000000 00000000 00000000 00000000  ................
 40001480 00000000 00000000 00000000 00000000  ................
 40001490 00000000 00000000 00000000 00000000  ................
 400014a0 00000000 00000000 00000000 00000000  ................
 400014b0 00000000 00000000 00000000 00000000  ................
 400014c0 00000000 00000000 00000000 00000000  ................
 400014d0 00000000 00000000 00000000 00000000  ................
 400014e0 00000000 00000000 00000000 00000000  ................
 400014f0 00000000 00000000 00000000 00000000  ................
 40001500 00000000 00000000 00000000 00000000  ................
 40001510 00000000 00000000 00000000 00000000  ................
 40001520 00000000 00000000 00000000 00000000  ................
 40001530 00000000 00000000 00000000 00000000  ................
 40001540 00000000 00000000 00000000 00000000  ................
 40001550 00000000 00000000 00000000 00000000  ................
 40001560 00000000 00000000 00000000 00000000  ................
 40001570 00000000 00000000 00000000 00000000  ................
 40001580 00000000 00000000 00000000 00000000  ................
 40001590 00000000 00000000 00000000 00000000  ................
 400015a0 00000000 00000000 00000000 00000000  ................
 400015b0 00000000 00000000 00000000 00000000  ................
 400015c0 00000000 00000000 00000000 00000000  ................
 400015d0 00000000 00000000 00000000 00000000  ................
 400015e0 00000000 00000000 00000000 00000000  ................
 400015f0 00000000 00000000 00000000 00000000  ................
 40001600 00000000 00000000 00000000 00000000  ................
 40001610 00000000 00000000 00000000 00000000  ................
 40001620 00000000 00000000 00000000 00000000  ................
 40001630 00000000 00000000 00000000 00000000  ................
 40001640 00000000 00000000 00000000 00000000  ................
 40001650 00000000 00000000 00000000 00000000  ................
 40001660 00000000 00000000 00000000 00000000  ................
 40001670 00000000 00000000 00000000 00000000  ................
 40001680 00000000 00000000 00000000 00000000  ................
 40001690 00000000 00000000 00000000 00000000  ................
 400016a0 00000000 00000000 00000000 00000000  ................
 400016b0 00000000 00000000 00000000 00000000  ................
 400016c0 00000000 00000000 00000000 00000000  ................
 400016d0 00000000 00000000 00000000 00000000  ................
 400016e0 00000000 00000000 00000000 00000000  ................
 400016f0 00000000 00000000 00000000 00000000  ................
 40001700 00000000 00000000 00000000 00000000  ................
 40001710 00000000 00000000 00000000 00000000  ................
 40001720 00000000 00000000 00000000 00000000  ................
 40001730 00000000 00000000 00000000 00000000  ................
 40001740 00000000 00000000 00000000 00000000  ................
 40001750 00000000 00000000 00000000 00000000  ................
 40001760 00000000 00000000 00000000 00000000  ................
 40001770 00000000 00000000 00000000 00000000  ................
 40001780 00000000 00000000 00000000 00000000  ................
 40001790 00000000 00000000 00000000 00000000  ................
 400017a0 00000000 00000000 00000000 00000000  ................
 400017b0 00000000 00000000 00000000 00000000  ................
 400017c0 00000000 00000000 00000000 00000000  ................
 400017d0 00000000 00000000 00000000 00000000  ................
 400017e0 00000000 00000000 00000000 00000000  ................
 400017f0 00000000 00000000 00000000 00000000  ................
 40001800 00000000 00000000 00000000 00000000  ................
 40001810 00000000 00000000 00000000 00000000  ................
 40001820 00000000 00000000 00000000 00000000  ................
 40001830 00000000 00000000 00000000 00000000  ................
 40001840 00000000 00000000 00000000 00000000  ................
 40001850 00000000 00000000 00000000 00000000  ................
 40001860 00000000 00000000 00000000 00000000  ................
 40001870 00000000 00000000 00000000 00000000  ................
 40001880 00000000 00000000 00000000 00000000  ................
 40001890 00000000 00000000 00000000 00000000  ................
 400018a0 00000000 00000000 00000000 00000000  ................
 400018b0 00000000 00000000 00000000 00000000  ................
 400018c0 00000000 00000000 00000000 00000000  ................
 400018d0 00000000 00000000 00000000 00000000  ................
 400018e0 00000000 00000000 00000000 00000000  ................
 400018f0 00000000 00000000 00000000 00000000  ................
 40001900 00000000 00000000 00000000 00000000  ................
 40001910 00000000 00000000 00000000 00000000  ................
 40001920 00000000 00000000 00000000 00000000  ................
 40001930 00000000 00000000 00000000 00000000  ................
 40001940 00000000 00000000 00000000 00000000  ................
 40001950 00000000 00000000 00000000 00000000  ................
 40001960 00000000 00000000 00000000 00000000  ................
 40001970 00000000 00000000 00000000 00000000  ................
 40001980 00000000 00000000 00000000 00000000  ................
 40001990 00000000 00000000 00000000 00000000  ................
 400019a0 00000000 00000000 00000000 00000000  ................
 400019b0 00000000 00000000 00000000 00000000  ................
 400019c0 00000000 00000000 00000000 00000000  ................
 400019d0 00000000 00000000 00000000 00000000  ................
 400019e0 00000000 00000000 00000000 00000000  ................
 400019f0 00000000 00000000 00000000 00000000  ................
 40001a00 00000000 00000000 00000000 00000000  ................
 40001a10 00000000 00000000 00000000 00000000  ................
 40001a20 00000000 00000000 00000000 00000000  ................
 40001a30 00000000 00000000 00000000 00000000  ................
 40001a40 00000000 00000000 00000000 00000000  ................
 40001a50 00000000 00000000 00000000 00000000  ................
 40001a60 00000000 00000000 00000000 00000000  ................
 40001a70 00000000 00000000 00000000 00000000  ................
 40001a80 00000000 00000000 00000000 00000000  ................
 40001a90 00000000 00000000 00000000 00000000  ................
 40001aa0 00000000 00000000 00000000 00000000  ................
 40001ab0 00000000 00000000 00000000 00000000  ................
 40001ac0 00000000 00000000 00000000 00000000  ................
 40001ad0 00000000 00000000 00000000 00000000  ................
 40001ae0 00000000 00000000 00000000 00000000  ................
 40001af0 00000000 00000000 00000000 00000000  ................
 40001b00 00000000 00000000 00000000 00000000  ................
 40001b10 00000000 00000000 00000000 00000000  ................
 40001b20 00000000 00000000 00000000 00000000  ................
 40001b30 00000000 00000000 00000000 00000000  ................
 40001b40 00000000 00000000 00000000 00000000  ................
 40001b50 00000000 00000000 00000000 00000000  ................
 40001b60 00000000 00000000 00000000 00000000  ................
 40001b70 00000000 00000000 00000000 00000000  ................
 40001b80 00000000 00000000 00000000 00000000  ................
 40001b90 00000000 00000000 00000000 00000000  ................
 40001ba0 00000000 00000000 00000000 00000000  ................
 40001bb0 00000000 00000000 00000000 00000000  ................
 40001bc0 00000000 00000000 00000000 00000000  ................
 40001bd0 00000000 00000000 00000000 00000000  ................
 40001be0 00000000 00000000 00000000 00000000  ................
 40001bf0 00000000 00000000 00000000 00000000  ................
 40001c00 00000000 00000000 00000000 00000000  ................
 40001c10 00000000 00000000 00000000 00000000  ................
 40001c20 00000000 00000000 00000000 00000000  ................
 40001c30 00000000 00000000 00000000 00000000  ................
 40001c40 00000000 00000000 00000000 00000000  ................
 40001c50 00000000 00000000 00000000 00000000  ................
 40001c60 00000000 00000000 00000000 00000000  ................
 40001c70 00000000 00000000 00000000 00000000  ................
 40001c80 00000000 00000000 00000000 00000000  ................
 40001c90 00000000 00000000 00000000 00000000  ................
 40001ca0 00000000 00000000 00000000 00000000  ................
 40001cb0 00000000 00000000 00000000 00000000  ................
 40001cc0 00000000 00000000 00000000 00000000  ................
 40001cd0 00000000 00000000 00000000 00000000  ................
 40001ce0 00000000 00000000 00000000 00000000  ................
 40001cf0 00000000 00000000 00000000 00000000  ................
 40001d00 00000000 00000000 00000000 00000000  ................
 40001d10 00000000 00000000 00000000 00000000  ................
 40001d20 00000000 00000000 00000000 00000000  ................
 40001d30 00000000 00000000 00000000 00000000  ................
 40001d40 00000000 00000000 00000000 00000000  ................
 40001d50 00000000 00000000 00000000 00000000  ................
 40001d60 00000000 00000000 00000000 00000000  ................
 40001d70 00000000 00000000 00000000 00000000  ................
 40001d80 00000000 00000000 00000000 00000000  ................
 40001d90 00000000 00000000 00000000 00000000  ................
 40001da0 00000000 00000000 00000000 00000000  ................
 40001db0 00000000 00000000 00000000 00000000  ................
 40001dc0 00000000 00000000 00000000 00000000  ................
 40001dd0 00000000 00000000 00000000 00000000  ................
 40001de0 00000000 00000000 00000000 00000000  ................
 40001df0 00000000 00000000 00000000 00000000  ................
 40001e00 00000000 00000000 00000000 00000000  ................
 40001e10 00000000 00000000 00000000 00000000  ................
 40001e20 00000000 00000000 00000000 00000000  ................
 40001e30 00000000 00000000 00000000 00000000  ................
 40001e40 00000000 00000000 00000000 00000000  ................
 40001e50 00000000 00000000 00000000 00000000  ................
 40001e60 00000000 00000000 00000000 00000000  ................
 40001e70 00000000 00000000 00000000 00000000  ................
 40001e80 00000000 00000000 00000000 00000000  ................
 40001e90 00000000 00000000 00000000 00000000  ................
 40001ea0 00000000 00000000 00000000 00000000  ................
 40001eb0 00000000 00000000 00000000 00000000  ................
 40001ec0 00000000 00000000 00000000 00000000  ................
 40001ed0 00000000 00000000 00000000 00000000  ................
 40001ee0 00000000 00000000 00000000 00000000  ................
 40001ef0 00000000 00000000 00000000 00000000  ................
 40001f00 00000000 00000000 00000000 00000000  ................
 40001f10 00000000 00000000 00000000 00000000  ................
 40001f20 00000000 00000000 00000000 00000000  ................
 40001f30 00000000 00000000 00000000 00000000  ................
 40001f40 00000000 00000000 00000000 00000000  ................
 40001f50 00000000 00000000 00000000 00000000  ................
 40001f60 00000000 00000000 00000000 00000000  ................
 40001f70 00000000 00000000 00000000 00000000  ................
 40001f80 00000000 00000000 00000000 00000000  ................
 40001f90 00000000 00000000 00000000 00000000  ................
 40001fa0 00000000 00000000 00000000 00000000  ................
 40001fb0 00000000 00000000 00000000 00000000  ................
 40001fc0 00000000 00000000 00000000 00000000  ................
 40001fd0 00000000 00000000 00000000 00000000  ................
 40001fe0 00000000 00000000 00000000 00000000  ................
 40001ff0 00000000 00000000 cf000020 00000000  ........... ....
 40002000 00000000 00000000 00000000 00000000  ................
 40002010 00000000 00000000 00000000 00000000  ................
 40002020 00000000 00000000 00000000 00000000  ................
 40002030 00000000 00000000 00000000 00000000  ................
 40002040 00000000 00000000 00000000 00000000  ................
 40002050 00000000 00000000 00000000 00000000  ................
 40002060 00000000 00000000 00000000 00000000  ................
 40002070 00000000 00000000 00000000 00000000  ................
 40002080 00000000 00000000 00000000 00000000  ................
 40002090 00000000 00000000 00000000 00000000  ................
 400020a0 00000000 00000000 00000000 00000000  ................
 400020b0 00000000 00000000 00000000 00000000  ................
 400020c0 00000000 00000000 00000000 00000000  ................
 400020d0 00000000 00000000 00000000 00000000  ................
 400020e0 00000000 00000000 00000000 00000000  ................
 400020f0 00000000 00000000 00000000 00000000  ................
 40002100 00000000 00000000 00000000 00000000  ................
 40002110 00000000 00000000 00000000 00000000  ................
 40002120 00000000 00000000 00000000 00000000  ................
 40002130 00000000 00000000 00000000 00000000  ................
 40002140 00000000 00000000 00000000 00000000  ................
 40002150 00000000 00000000 00000000 00000000  ................
 40002160 00000000 00000000 00000000 00000000  ................
 40002170 00000000 00000000 00000000 00000000  ................
 40002180 00000000 00000000 00000000 00000000  ................
 40002190 00000000 00000000 00000000 00000000  ................
 400021a0 00000000 00000000 00000000 00000000  ................
 400021b0 00000000 00000000 00000000 00000000  ................
 400021c0 00000000 00000000 00000000 00000000  ................
 400021d0 00000000 00000000 00000000 00000000  ................
 400021e0 00000000 00000000 00000000 00000000  ................
 400021f0 00000000 00000000 00000000 00000000  ................
 40002200 00000000 00000000 00000000 00000000  ................
 40002210 00000000 00000000 00000000 00000000  ................
 40002220 00000000 00000000 00000000 00000000  ................
 40002230 00000000 00000000 00000000 00000000  ................
 40002240 00000000 00000000 00000000 00000000  ................
 40002250 00000000 00000000 00000000 00000000  ................
 40002260 00000000 00000000 00000000 00000000  ................
 40002270 00000000 00000000 00000000 00000000  ................
 40002280 00000000 00000000 00000000 00000000  ................
 40002290 00000000 00000000 00000000 00000000  ................
 400022a0 00000000 00000000 00000000 00000000  ................
 400022b0 00000000 00000000 00000000 00000000  ................
 400022c0 00000000 00000000 00000000 00000000  ................
 400022d0 00000000 00000000 00000000 00000000  ................
 400022e0 00000000 00000000 00000000 00000000  ................
 400022f0 00000000 00000000 00000000 00000000  ................
 40002300 00000000 00000000 00000000 00000000  ................
 40002310 00000000 00000000 00000000 00000000  ................
 40002320 00000000 00000000 00000000 00000000  ................
 40002330 00000000 00000000 00000000 00000000  ................
 40002340 00000000 00000000 00000000 00000000  ................
 40002350 00000000 00000000 00000000 00000000  ................
 40002360 00000000 00000000 00000000 00000000  ................
 40002370 00000000 00000000 00000000 00000000  ................
 40002380 00000000 00000000 00000000 00000000  ................
 40002390 00000000 00000000 00000000 00000000  ................
 400023a0 00000000 00000000 00000000 00000000  ................
 400023b0 00000000 00000000 00000000 00000000  ................
 400023c0 00000000 00000000 00000000 00000000  ................
 400023d0 00000000 00000000 00000000 00000000  ................
 400023e0 00000000 00000000 00000000 00000000  ................
 400023f0 00000000 00000000 00000000 00000000  ................
 40002400 00000000 00000000 00000000 00000000  ................
 40002410 00000000 00000000 00000000 00000000  ................
 40002420 00000000 00000000 00000000 00000000  ................
 40002430 00000000 00000000 00000000 00000000  ................
 40002440 00000000 00000000 00000000 00000000  ................
 40002450 00000000 00000000 00000000 00000000  ................
 40002460 00000000 00000000 00000000 00000000  ................
 40002470 00000000 00000000 00000000 00000000  ................
 40002480 00000000 00000000 00000000 00000000  ................
 40002490 00000000 00000000 00000000 00000000  ................
 400024a0 00000000 00000000 00000000 00000000  ................
 400024b0 00000000 00000000 00000000 00000000  ................
 400024c0 00000000 00000000 00000000 00000000  ................
 400024d0 00000000 00000000 00000000 00000000  ................
 400024e0 00000000 00000000 00000000 00000000  ................
 400024f0 00000000 00000000 00000000 00000000  ................
 40002500 00000000 00000000 00000000 00000000  ................
 40002510 00000000 00000000 00000000 00000000  ................
 40002520 00000000 00000000 00000000 00000000  ................
 40002530 00000000 00000000 00000000 00000000  ................
 40002540 00000000 00000000 00000000 00000000  ................
 40002550 00000000 00000000 00000000 00000000  ................
 40002560 00000000 00000000 00000000 00000000  ................
 40002570 00000000 00000000 00000000 00000000  ................
 40002580 00000000 00000000 00000000 00000000  ................
 40002590 00000000 00000000 00000000 00000000  ................
 400025a0 00000000 00000000 00000000 00000000  ................
 400025b0 00000000 00000000 00000000 00000000  ................
 400025c0 00000000 00000000 00000000 00000000  ................
 400025d0 00000000 00000000 00000000 00000000  ................
 400025e0 00000000 00000000 00000000 00000000  ................
 400025f0 00000000 00000000 00000000 00000000  ................
 40002600 00000000 00000000 00000000 00000000  ................
 40002610 00000000 00000000 00000000 00000000  ................
 40002620 00000000 00000000 00000000 00000000  ................
 40002630 00000000 00000000 00000000 00000000  ................
 40002640 00000000 00000000 00000000 00000000  ................
 40002650 00000000 00000000 00000000 00000000  ................
 40002660 00000000 00000000 00000000 00000000  ................
 40002670 00000000 00000000 00000000 00000000  ................
 40002680 00000000 00000000 00000000 00000000  ................
 40002690 00000000 00000000 00000000 00000000  ................
 400026a0 00000000 00000000 00000000 00000000  ................
 400026b0 00000000 00000000 00000000 00000000  ................
 400026c0 00000000 00000000 00000000 00000000  ................
 400026d0 00000000 00000000 00000000 00000000  ................
 400026e0 00000000 00000000 00000000 00000000  ................
 400026f0 00000000 00000000 00000000 00000000  ................
 40002700 00000000 00000000 00000000 00000000  ................
 40002710 00000000 00000000 00000000 00000000  ................
 40002720 00000000 00000000 00000000 00000000  ................
 40002730 00000000 00000000 00000000 00000000  ................
 40002740 00000000 00000000 00000000 00000000  ................
 40002750 00000000 00000000 00000000 00000000  ................
 40002760 00000000 00000000 00000000 00000000  ................
 40002770 00000000 00000000 00000000 00000000  ................
 40002780 00000000 00000000 00000000 00000000  ................
 40002790 00000000 00000000 00000000 00000000  ................
 400027a0 00000000 00000000 00000000 00000000  ................
 400027b0 00000000 00000000 00000000 00000000  ................
 400027c0 00000000 00000000 00000000 00000000  ................
 400027d0 00000000 00000000 00000000 00000000  ................
 400027e0 00000000 00000000 00000000 00000000  ................
 400027f0 00000000 00000000 00000000 00000000  ................
 40002800 00000000 00000000 00000000 00000000  ................
 40002810 00000000 00000000 00000000 00000000  ................
 40002820 00000000 00000000 00000000 00000000  ................
 40002830 00000000 00000000 00000000 00000000  ................
 40002840 00000000 00000000 00000000 00000000  ................
 40002850 00000000 00000000 00000000 00000000  ................
 40002860 00000000 00000000 00000000 00000000  ................
 40002870 00000000 00000000 00000000 00000000  ................
 40002880 00000000 00000000 00000000 00000000  ................
 40002890 00000000 00000000 00000000 00000000  ................
 400028a0 00000000 00000000 00000000 00000000  ................
 400028b0 00000000 00000000 00000000 00000000  ................
 400028c0 00000000 00000000 00000000 00000000  ................
 400028d0 00000000 00000000 00000000 00000000  ................
 400028e0 00000000 00000000 00000000 00000000  ................
 400028f0 00000000 00000000 00000000 00000000  ................
 40002900 00000000 00000000 00000000 00000000  ................
 40002910 00000000 00000000 00000000 00000000  ................
 40002920 00000000 00000000 00000000 00000000  ................
 40002930 00000000 00000000 00000000 00000000  ................
 40002940 00000000 00000000 00000000 00000000  ................
 40002950 00000000 00000000 00000000 00000000  ................
 40002960 00000000 00000000 00000000 00000000  ................
 40002970 00000000 00000000 00000000 00000000  ................
 40002980 00000000 00000000 00000000 00000000  ................
 40002990 00000000 00000000 00000000 00000000  ................
 400029a0 00000000 00000000 00000000 00000000  ................
 400029b0 00000000 00000000 00000000 00000000  ................
 400029c0 00000000 00000000 00000000 00000000  ................
 400029d0 00000000 00000000 00000000 00000000  ................
 400029e0 00000000 00000000 00000000 00000000  ................
 400029f0 00000000 00000000 00000000 00000000  ................
 40002a00 00000000 00000000 00000000 00000000  ................
 40002a10 00000000 00000000 00000000 00000000  ................
 40002a20 00000000 00000000 00000000 00000000  ................
 40002a30 00000000 00000000 00000000 00000000  ................
 40002a40 00000000 00000000 00000000 00000000  ................
 40002a50 00000000 00000000 00000000 00000000  ................
 40002a60 00000000 00000000 00000000 00000000  ................
 40002a70 00000000 00000000 00000000 00000000  ................
 40002a80 00000000 00000000 00000000 00000000  ................
 40002a90 00000000 00000000 00000000 00000000  ................
 40002aa0 00000000 00000000 00000000 00000000  ................
 40002ab0 00000000 00000000 00000000 00000000  ................
 40002ac0 00000000 00000000 00000000 00000000  ................
 40002ad0 00000000 00000000 00000000 00000000  ................
 40002ae0 00000000 00000000 00000000 00000000  ................
 40002af0 00000000 00000000 00000000 00000000  ................
 40002b00 00000000 00000000 00000000 00000000  ................
 40002b10 00000000 00000000 00000000 00000000  ................
 40002b20 00000000 00000000 00000000 00000000  ................
 40002b30 00000000 00000000 00000000 00000000  ................
 40002b40 00000000 00000000 00000000 00000000  ................
 40002b50 00000000 00000000 00000000 00000000  ................
 40002b60 00000000 00000000 00000000 00000000  ................
 40002b70 00000000 00000000 00000000 00000000  ................
 40002b80 00000000 00000000 00000000 00000000  ................
 40002b90 00000000 00000000 00000000 00000000  ................
 40002ba0 00000000 00000000 00000000 00000000  ................
 40002bb0 00000000 00000000 00000000 00000000  ................
 40002bc0 00000000 00000000 00000000 00000000  ................
 40002bd0 00000000 00000000 00000000 00000000  ................
 40002be0 00000000 00000000 00000000 00000000  ................
 40002bf0 00000000 00000000 00000000 00000000  ................
 40002c00 00000000 00000000 00000000 00000000  ................
 40002c10 00000000 00000000 00000000 00000000  ................
 40002c20 00000000 00000000 00000000 00000000  ................
 40002c30 00000000 00000000 00000000 00000000  ................
 40002c40 00000000 00000000 00000000 00000000  ................
 40002c50 00000000 00000000 00000000 00000000  ................
 40002c60 00000000 00000000 00000000 00000000  ................
 40002c70 00000000 00000000 00000000 00000000  ................
 40002c80 00000000 00000000 00000000 00000000  ................
 40002c90 00000000 00000000 00000000 00000000  ................
 40002ca0 00000000 00000000 00000000 00000000  ................
 40002cb0 00000000 00000000 00000000 00000000  ................
 40002cc0 00000000 00000000 00000000 00000000  ................
 40002cd0 00000000 00000000 00000000 00000000  ................
 40002ce0 00000000 00000000 00000000 00000000  ................
 40002cf0 00000000 00000000 00000000 00000000  ................
 40002d00 00000000 00000000 00000000 00000000  ................
 40002d10 00000000 00000000 00000000 00000000  ................
 40002d20 00000000 00000000 00000000 00000000  ................
 40002d30 00000000 00000000 00000000 00000000  ................
 40002d40 00000000 00000000 00000000 00000000  ................
 40002d50 00000000 00000000 00000000 00000000  ................
 40002d60 00000000 00000000 00000000 00000000  ................
 40002d70 00000000 00000000 00000000 00000000  ................
 40002d80 00000000 00000000 00000000 00000000  ................
 40002d90 00000000 00000000 00000000 00000000  ................
 40002da0 00000000 00000000 00000000 00000000  ................
 40002db0 00000000 00000000 00000000 00000000  ................
 40002dc0 00000000 00000000 00000000 00000000  ................
 40002dd0 00000000 00000000 00000000 00000000  ................
 40002de0 00000000 00000000 00000000 00000000  ................
 40002df0 00000000 00000000 00000000 00000000  ................
 40002e00 00000000 00000000 00000000 00000000  ................
 40002e10 00000000 00000000 00000000 00000000  ................
 40002e20 00000000 00000000 00000000 00000000  ................
 40002e30 00000000 00000000 00000000 00000000  ................
 40002e40 00000000 00000000 00000000 00000000  ................
 40002e50 00000000 00000000 00000000 00000000  ................
 40002e60 00000000 00000000 00000000 00000000  ................
 40002e70 00000000 00000000 00000000 00000000  ................
 40002e80 00000000 00000000 00000000 00000000  ................
 40002e90 00000000 00000000 00000000 00000000  ................
 40002ea0 00000000 00000000 00000000 00000000  ................
 40002eb0 00000000 00000000 00000000 00000000  ................
 40002ec0 00000000 00000000 00000000 00000000  ................
 40002ed0 00000000 00000000 00000000 00000000  ................
 40002ee0 00000000 00000000 00000000 00000000  ................
 40002ef0 00000000 00000000 00000000 00000000  ................
 40002f00 00000000 00000000 00000000 00000000  ................
 40002f10 00000000 00000000 00000000 00000000  ................
 40002f20 00000000 00000000 00000000 00000000  ................
 40002f30 00000000 00000000 00000000 00000000  ................
 40002f40 00000000 00000000 00000000 00000000  ................
 40002f50 00000000 00000000 00000000 00000000  ................
 40002f60 00000000 00000000 00000000 00000000  ................
 40002f70 00000000 00000000 00000000 00000000  ................
 40002f80 00000000 00000000 00000000 00000000  ................
 40002f90 00000000 00000000 00000000 00000000  ................
 40002fa0 00000000 00000000 00000000 00000000  ................
 40002fb0 00000000 00000000 00000000 00000000  ................
 40002fc0 00000000 00000000 00000000 00000000  ................
 40002fd0 00000000 00000000 00000000 00000000  ................
 40002fe0 00000000 00000000 00000000 00000000  ................
 40002ff0 00000000 00000000 00000000 00000000  ................
 40003000 00000000 00000000 00000000 00000000  ................
 40003010 00000000 00000000 00000000 00000000  ................
 40003020 00000000 00000000 00000000 00000000  ................
 40003030 00000000 00000000 00000000 00000000  ................
 40003040 00000000 00000000 00000000 00000000  ................
 40003050 00000000 00000000 00000000 00000000  ................
 40003060 00000000 00000000 00000000 00000000  ................
 40003070 00000000 00000000 00000000 00000000  ................
 40003080 00000000 00000000 00000000 00000000  ................
 40003090 00000000 00000000 00000000 00000000  ................
 400030a0 00000000 00000000 00000000 00000000  ................
 400030b0 00000000 00000000 00000000 00000000  ................
 400030c0 00000000 00000000 00000000 00000000  ................
 400030d0 00000000 00000000 00000000 00000000  ................
 400030e0 00000000 00000000 00000000 00000000  ................
 400030f0 00000000 00000000 00000000 00000000  ................
 40003100 00000000 00000000 00000000 00000000  ................
 40003110 00000000 00000000 00000000 00000000  ................
 40003120 00000000 00000000 00000000 00000000  ................
 40003130 00000000 00000000 00000000 00000000  ................
 40003140 00000000 00000000 00000000 00000000  ................
 40003150 00000000 00000000 00000000 00000000  ................
 40003160 00000000 00000000 00000000 00000000  ................
 40003170 00000000 00000000 00000000 00000000  ................
 40003180 00000000 00000000 00000000 00000000  ................
 40003190 00000000 00000000 00000000 00000000  ................
 400031a0 00000000 00000000 00000000 00000000  ................
 400031b0 00000000 00000000 00000000 00000000  ................
 400031c0 00000000 00000000 00000000 00000000  ................
 400031d0 00000000 00000000 00000000 00000000  ................
 400031e0 00000000 00000000 00000000 00000000  ................
 400031f0 00000000 00000000 00000000 00000000  ................
 40003200 00000000 00000000 00000000 00000000  ................
 40003210 00000000 00000000 00000000 00000000  ................
 40003220 00000000 00000000 00000000 00000000  ................
 40003230 00000000 00000000 00000000 00000000  ................
 40003240 00000000 00000000 00000000 00000000  ................
 40003250 00000000 00000000 00000000 00000000  ................
 40003260 00000000 00000000 00000000 00000000  ................
 40003270 00000000 00000000 00000000 00000000  ................
 40003280 00000000 00000000 00000000 00000000  ................
 40003290 00000000 00000000 00000000 00000000  ................
 400032a0 00000000 00000000 00000000 00000000  ................
 400032b0 00000000 00000000 00000000 00000000  ................
 400032c0 00000000 00000000 00000000 00000000  ................
 400032d0 00000000 00000000 00000000 00000000  ................
 400032e0 00000000 00000000 00000000 00000000  ................
 400032f0 00000000 00000000 00000000 00000000  ................
 40003300 00000000 00000000 00000000 00000000  ................
 40003310 00000000 00000000 00000000 00000000  ................
 40003320 00000000 00000000 00000000 00000000  ................
 40003330 00000000 00000000 00000000 00000000  ................
 40003340 00000000 00000000 00000000 00000000  ................
 40003350 00000000 00000000 00000000 00000000  ................
 40003360 00000000 00000000 00000000 00000000  ................
 40003370 00000000 00000000 00000000 00000000  ................
 40003380 00000000 00000000 00000000 00000000  ................
 40003390 00000000 00000000 00000000 00000000  ................
 400033a0 00000000 00000000 00000000 00000000  ................
 400033b0 00000000 00000000 00000000 00000000  ................
 400033c0 00000000 00000000 00000000 00000000  ................
 400033d0 00000000 00000000 00000000 00000000  ................
 400033e0 00000000 00000000 00000000 00000000  ................
 400033f0 00000000 00000000 00000000 00000000  ................
 40003400 00000000 00000000 00000000 00000000  ................
 40003410 00000000 00000000 00000000 00000000  ................
 40003420 00000000 00000000 00000000 00000000  ................
 40003430 00000000 00000000 00000000 00000000  ................
 40003440 00000000 00000000 00000000 00000000  ................
 40003450 00000000 00000000 00000000 00000000  ................
 40003460 00000000 00000000 00000000 00000000  ................
 40003470 00000000 00000000 00000000 00000000  ................
 40003480 00000000 00000000 00000000 00000000  ................
 40003490 00000000 00000000 00000000 00000000  ................
 400034a0 00000000 00000000 00000000 00000000  ................
 400034b0 00000000 00000000 00000000 00000000  ................
 400034c0 00000000 00000000 00000000 00000000  ................
 400034d0 00000000 00000000 00000000 00000000  ................
 400034e0 00000000 00000000 00000000 00000000  ................
 400034f0 00000000 00000000 00000000 00000000  ................
 40003500 00000000 00000000 00000000 00000000  ................
 40003510 00000000 00000000 00000000 00000000  ................
 40003520 00000000 00000000 00000000 00000000  ................
 40003530 00000000 00000000 00000000 00000000  ................
 40003540 00000000 00000000 00000000 00000000  ................
 40003550 00000000 00000000 00000000 00000000  ................
 40003560 00000000 00000000 00000000 00000000  ................
 40003570 00000000 00000000 00000000 00000000  ................
 40003580 00000000 00000000 00000000 00000000  ................
 40003590 00000000 00000000 00000000 00000000  ................
 400035a0 00000000 00000000 00000000 00000000  ................
 400035b0 00000000 00000000 00000000 00000000  ................
 400035c0 00000000 00000000 00000000 00000000  ................
 400035d0 00000000 00000000 00000000 00000000  ................
 400035e0 00000000 00000000 00000000 00000000  ................
 400035f0 00000000 00000000 00000000 00000000  ................
 40003600 00000000 00000000 00000000 00000000  ................
 40003610 00000000 00000000 00000000 00000000  ................
 40003620 00000000 00000000 00000000 00000000  ................
 40003630 00000000 00000000 00000000 00000000  ................
 40003640 00000000 00000000 00000000 00000000  ................
 40003650 00000000 00000000 00000000 00000000  ................
 40003660 00000000 00000000 00000000 00000000  ................
 40003670 00000000 00000000 00000000 00000000  ................
 40003680 00000000 00000000 00000000 00000000  ................
 40003690 00000000 00000000 00000000 00000000  ................
 400036a0 00000000 00000000 00000000 00000000  ................
 400036b0 00000000 00000000 00000000 00000000  ................
 400036c0 00000000 00000000 00000000 00000000  ................
 400036d0 00000000 00000000 00000000 00000000  ................
 400036e0 00000000 00000000 00000000 00000000  ................
 400036f0 00000000 00000000 00000000 00000000  ................
 40003700 00000000 00000000 00000000 00000000  ................
 40003710 00000000 00000000 00000000 00000000  ................
 40003720 00000000 00000000 00000000 00000000  ................
 40003730 00000000 00000000 00000000 00000000  ................
 40003740 00000000 00000000 00000000 00000000  ................
 40003750 00000000 00000000 00000000 00000000  ................
 40003760 00000000 00000000 00000000 00000000  ................
 40003770 00000000 00000000 00000000 00000000  ................
 40003780 00000000 00000000 00000000 00000000  ................
 40003790 00000000 00000000 00000000 00000000  ................
 400037a0 00000000 00000000 00000000 00000000  ................
 400037b0 00000000 00000000 00000000 00000000  ................
 400037c0 00000000 00000000 00000000 00000000  ................
 400037d0 00000000 00000000 00000000 00000000  ................
 400037e0 00000000 00000000 00000000 00000000  ................
 400037f0 00000000 00000000 00000000 00000000  ................
 40003800 00000000 00000000 00000000 00000000  ................
 40003810 00000000 00000000 00000000 00000000  ................
 40003820 00000000 00000000 00000000 00000000  ................
 40003830 00000000 00000000 00000000 00000000  ................
 40003840 00000000 00000000 00000000 00000000  ................
 40003850 00000000 00000000 00000000 00000000  ................
 40003860 00000000 00000000 00000000 00000000  ................
 40003870 00000000 00000000 00000000 00000000  ................
 40003880 00000000 00000000 00000000 00000000  ................
 40003890 00000000 00000000 00000000 00000000  ................
 400038a0 00000000 00000000 00000000 00000000  ................
 400038b0 00000000 00000000 00000000 00000000  ................
 400038c0 00000000 00000000 00000000 00000000  ................
 400038d0 00000000 00000000 00000000 00000000  ................
 400038e0 00000000 00000000 00000000 00000000  ................
 400038f0 00000000 00000000 00000000 00000000  ................
 40003900 00000000 00000000 00000000 00000000  ................
 40003910 00000000 00000000 00000000 00000000  ................
 40003920 00000000 00000000 00000000 00000000  ................
 40003930 00000000 00000000 00000000 00000000  ................
 40003940 00000000 00000000 00000000 00000000  ................
 40003950 00000000 00000000 00000000 00000000  ................
 40003960 00000000 00000000 00000000 00000000  ................
 40003970 00000000 00000000 00000000 00000000  ................
 40003980 00000000 00000000 00000000 00000000  ................
 40003990 00000000 00000000 00000000 00000000  ................
 400039a0 00000000 00000000 00000000 00000000  ................
 400039b0 00000000 00000000 00000000 00000000  ................
 400039c0 00000000 00000000 00000000 00000000  ................
 400039d0 00000000 00000000 00000000 00000000  ................
 400039e0 00000000 00000000 00000000 00000000  ................
 400039f0 00000000 00000000 00000000 00000000  ................
 40003a00 00000000 00000000 00000000 00000000  ................
 40003a10 00000000 00000000 00000000 00000000  ................
 40003a20 00000000 00000000 00000000 00000000  ................
 40003a30 00000000 00000000 00000000 00000000  ................
 40003a40 00000000 00000000 00000000 00000000  ................
 40003a50 00000000 00000000 00000000 00000000  ................
 40003a60 00000000 00000000 00000000 00000000  ................
 40003a70 00000000 00000000 00000000 00000000  ................
 40003a80 00000000 00000000 00000000 00000000  ................
 40003a90 00000000 00000000 00000000 00000000  ................
 40003aa0 00000000 00000000 00000000 00000000  ................
 40003ab0 00000000 00000000 00000000 00000000  ................
 40003ac0 00000000 00000000 00000000 00000000  ................
 40003ad0 00000000 00000000 00000000 00000000  ................
 40003ae0 00000000 00000000 00000000 00000000  ................
 40003af0 00000000 00000000 00000000 00000000  ................
 40003b00 00000000 00000000 00000000 00000000  ................
 40003b10 00000000 00000000 00000000 00000000  ................
 40003b20 00000000 00000000 00000000 00000000  ................
 40003b30 00000000 00000000 00000000 00000000  ................
 40003b40 00000000 00000000 00000000 00000000  ................
 40003b50 00000000 00000000 00000000 00000000  ................
 40003b60 00000000 00000000 00000000 00000000  ................
 40003b70 00000000 00000000 00000000 00000000  ................
 40003b80 00000000 00000000 00000000 00000000  ................
 40003b90 00000000 00000000 00000000 00000000  ................
 40003ba0 00000000 00000000 00000000 00000000  ................
 40003bb0 00000000 00000000 00000000 00000000  ................
 40003bc0 00000000 00000000 00000000 00000000  ................
 40003bd0 00000000 00000000 00000000 00000000  ................
 40003be0 00000000 00000000 00000000 00000000  ................
 40003bf0 00000000 00000000 00000000 00000000  ................
 40003c00 00000000 00000000 00000000 00000000  ................
 40003c10 00000000 00000000 00000000 00000000  ................
 40003c20 00000000 00000000 00000000 00000000  ................
 40003c30 00000000 00000000 00000000 00000000  ................
 40003c40 00000000 00000000 00000000 00000000  ................
 40003c50 00000000 00000000 00000000 00000000  ................
 40003c60 00000000 00000000 00000000 00000000  ................
 40003c70 00000000 00000000 00000000 00000000  ................
 40003c80 00000000 00000000 00000000 00000000  ................
 40003c90 00000000 00000000 00000000 00000000  ................
 40003ca0 00000000 00000000 00000000 00000000  ................
 40003cb0 00000000 00000000 00000000 00000000  ................
 40003cc0 00000000 00000000 00000000 00000000  ................
 40003cd0 00000000 00000000 00000000 00000000  ................
 40003ce0 00000000 00000000 00000000 00000000  ................
 40003cf0 00000000 00000000 00000000 00000000  ................
 40003d00 00000000 00000000 00000000 00000000  ................
 40003d10 00000000 00000000 00000000 00000000  ................
 40003d20 00000000 00000000 00000000 00000000  ................
 40003d30 00000000 00000000 00000000 00000000  ................
 40003d40 00000000 00000000 00000000 00000000  ................
 40003d50 00000000 00000000 00000000 00000000  ................
 40003d60 00000000 00000000 00000000 00000000  ................
 40003d70 00000000 00000000 00000000 00000000  ................
 40003d80 00000000 00000000 00000000 00000000  ................
 40003d90 00000000 00000000 00000000 00000000  ................
 40003da0 00000000 00000000 00000000 00000000  ................
 40003db0 00000000 00000000 00000000 00000000  ................
 40003dc0 00000000 00000000 00000000 00000000  ................
 40003dd0 00000000 00000000 00000000 00000000  ................
 40003de0 00000000 00000000 00000000 00000000  ................
 40003df0 00000000 00000000 00000000 00000000  ................
 40003e00 00000000 00000000 00000000 00000000  ................
 40003e10 00000000 00000000 00000000 00000000  ................
 40003e20 00000000 00000000 00000000 00000000  ................
 40003e30 00000000 00000000 00000000 00000000  ................
 40003e40 00000000 00000000 00000000 00000000  ................
 40003e50 00000000 00000000 00000000 00000000  ................
 40003e60 00000000 00000000 00000000 00000000  ................
 40003e70 00000000 00000000 00000000 00000000  ................
 40003e80 00000000 00000000 00000000 00000000  ................
 40003e90 00000000 00000000 00000000 00000000  ................
 40003ea0 00000000 00000000 00000000 00000000  ................
 40003eb0 00000000 00000000 00000000 00000000  ................
 40003ec0 00000000 00000000 00000000 00000000  ................
 40003ed0 00000000 00000000 00000000 00000000  ................
 40003ee0 00000000 00000000 00000000 00000000  ................
 40003ef0 00000000 00000000 00000000 00000000  ................
 40003f00 00000000 00000000 00000000 00000000  ................
 40003f10 00000000 00000000 00000000 00000000  ................
 40003f20 00000000 00000000 00000000 00000000  ................
 40003f30 00000000 00000000 00000000 00000000  ................
 40003f40 00000000 00000000 00000000 00000000  ................
 40003f50 00000000 00000000 00000000 00000000  ................
 40003f60 00000000 00000000 00000000 00000000  ................
 40003f70 00000000 00000000 00000000 00000000  ................
 40003f80 00000000 00000000 00000000 00000000  ................
 40003f90 00000000 00000000 00000000 00000000  ................
 40003fa0 00000000 00000000 00000000 00000000  ................
 40003fb0 00000000 00000000 00000000 00000000  ................
 40003fc0 00000000 00000000 00000000 00000000  ................
 40003fd0 00000000 00000000 00000000 00000000  ................
 40003fe0 00000000 00000000 00000000 00000000  ................
 40003ff0 00000000 00000000 00000000 00000000  ................
 40004000 00000000 00000000 00000000 00000000  ................
 40004010 00000000 00000000 00000000 00000000  ................
 40004020 00000000 00000000 00000000 00000000  ................
 40004030 00000000 00000000 00000000 00000000  ................
 40004040 00000000 00000000 00000000 00000000  ................
 40004050 00000000 00000000 00000000 00000000  ................
 40004060 00000000 00000000 00000000 00000000  ................
 40004070 00000000 00000000 00000000 00000000  ................
 40004080 00000000 00000000 00000000 00000000  ................
 40004090 00000000 00000000 00000000 00000000  ................
 400040a0 00000000 00000000 00000000 00000000  ................
 400040b0 00000000 00000000 00000000 00000000  ................
 400040c0 00000000 00000000 00000000 00000000  ................
 400040d0 00000000 00000000 00000000 00000000  ................
 400040e0 00000000 00000000 00000000 00000000  ................
 400040f0 00000000 00000000 00000000 00000000  ................
 40004100 00000000 00000000 00000000 00000000  ................
 40004110 00000000 00000000 00000000 00000000  ................
 40004120 00000000 00000000 00000000 00000000  ................
 40004130 00000000 00000000 00000000 00000000  ................
 40004140 00000000 00000000 00000000 00000000  ................
 40004150 00000000 00000000 00000000 00000000  ................
 40004160 00000000 00000000 00000000 00000000  ................
 40004170 00000000 00000000 00000000 00000000  ................
 40004180 00000000 00000000 00000000 00000000  ................
 40004190 00000000 00000000 00000000 00000000  ................
 400041a0 00000000 00000000 00000000 00000000  ................
 400041b0 00000000 00000000 00000000 00000000  ................
 400041c0 00000000 00000000 00000000 00000000  ................
 400041d0 00000000 00000000 00000000 00000000  ................
 400041e0 00000000 00000000 00000000 00000000  ................
 400041f0 00000000 00000000 00000000 00000000  ................
 40004200 00000000 00000000 00000000 00000000  ................
 40004210 00000000 00000000 00000000 00000000  ................
 40004220 00000000 00000000 00000000 00000000  ................
 40004230 00000000 00000000 00000000 00000000  ................
 40004240 00000000 00000000 00000000 00000000  ................
 40004250 00000000 00000000 00000000 00000000  ................
 40004260 00000000 00000000 00000000 00000000  ................
 40004270 00000000 00000000 00000000 00000000  ................
 40004280 00000000 00000000 00000000 00000000  ................
 40004290 00000000 00000000 00000000 00000000  ................
 400042a0 00000000 00000000 00000000 00000000  ................
 400042b0 00000000 00000000 00000000 00000000  ................
 400042c0 00000000 00000000 00000000 00000000  ................
 400042d0 00000000 00000000 00000000 00000000  ................
 400042e0 00000000 00000000 00000000 00000000  ................
 400042f0 00000000 00000000 00000000 00000000  ................
 40004300 00000000 00000000 00000000 00000000  ................
 40004310 00000000 00000000 00000000 00000000  ................
 40004320 00000000 00000000 00000000 00000000  ................
 40004330 00000000 00000000 00000000 00000000  ................
 40004340 00000000 00000000 00000000 00000000  ................
 40004350 00000000 00000000 00000000 00000000  ................
 40004360 00000000 00000000 00000000 00000000  ................
 40004370 00000000 00000000 00000000 00000000  ................
 40004380 00000000 00000000 00000000 00000000  ................
 40004390 00000000 00000000 00000000 00000000  ................
 400043a0 00000000 00000000 00000000 00000000  ................
 400043b0 00000000 00000000 00000000 00000000  ................
 400043c0 00000000 00000000 00000000 00000000  ................
 400043d0 00000000 00000000 00000000 00000000  ................
 400043e0 00000000 00000000 00000000 00000000  ................
 400043f0 00000000 00000000 00000000 00000000  ................
 40004400 00000000 00000000 00000000 00000000  ................
 40004410 00000000 00000000 00000000 00000000  ................
 40004420 00000000 00000000 00000000 00000000  ................
 40004430 00000000 00000000 00000000 00000000  ................
 40004440 00000000 00000000 00000000 00000000  ................
 40004450 00000000 00000000 00000000 00000000  ................
 40004460 00000000 00000000 00000000 00000000  ................
 40004470 00000000 00000000 00000000 00000000  ................
 40004480 00000000 00000000 00000000 00000000  ................
 40004490 00000000 00000000 00000000 00000000  ................
 400044a0 00000000 00000000 00000000 00000000  ................
 400044b0 00000000 00000000 00000000 00000000  ................
 400044c0 00000000 00000000 00000000 00000000  ................
 400044d0 00000000 00000000 00000000 00000000  ................
 400044e0 00000000 00000000 00000000 00000000  ................
 400044f0 00000000 00000000 00000000 00000000  ................
 40004500 00000000 00000000 00000000 00000000  ................
 40004510 00000000 00000000 00000000 00000000  ................
 40004520 00000000 00000000 00000000 00000000  ................
 40004530 00000000 00000000 00000000 00000000  ................
 40004540 00000000 00000000 00000000 00000000  ................
 40004550 00000000 00000000 00000000 00000000  ................
 40004560 00000000 00000000 00000000 00000000  ................
 40004570 00000000 00000000 00000000 00000000  ................
 40004580 00000000 00000000 00000000 00000000  ................
 40004590 00000000 00000000 00000000 00000000  ................
 400045a0 00000000 00000000 00000000 00000000  ................
 400045b0 00000000 00000000 00000000 00000000  ................
 400045c0 00000000 00000000 00000000 00000000  ................
 400045d0 00000000 00000000 00000000 00000000  ................
 400045e0 00000000 00000000 00000000 00000000  ................
 400045f0 00000000 00000000 00000000 00000000  ................
 40004600 00000000 00000000 00000000 00000000  ................
 40004610 00000000 00000000 00000000 00000000  ................
 40004620 00000000 00000000 00000000 00000000  ................
 40004630 00000000 00000000 00000000 00000000  ................
 40004640 00000000 00000000 00000000 00000000  ................
 40004650 00000000 00000000 00000000 00000000  ................
 40004660 00000000 00000000 00000000 00000000  ................
 40004670 00000000 00000000 00000000 00000000  ................
 40004680 00000000 00000000 00000000 00000000  ................
 40004690 00000000 00000000 00000000 00000000  ................
 400046a0 00000000 00000000 00000000 00000000  ................
 400046b0 00000000 00000000 00000000 00000000  ................
 400046c0 00000000 00000000 00000000 00000000  ................
 400046d0 00000000 00000000 00000000 00000000  ................
 400046e0 00000000 00000000 00000000 00000000  ................
 400046f0 00000000 00000000 00000000 00000000  ................
 40004700 00000000 00000000 00000000 00000000  ................
 40004710 00000000 00000000 00000000 00000000  ................
 40004720 00000000 00000000 00000000 00000000  ................
 40004730 00000000 00000000 00000000 00000000  ................
 40004740 00000000 00000000 00000000 00000000  ................
 40004750 00000000 00000000 00000000 00000000  ................
 40004760 00000000 00000000 00000000 00000000  ................
 40004770 00000000 00000000 00000000 00000000  ................
 40004780 00000000 00000000 00000000 00000000  ................
 40004790 00000000 00000000 00000000 00000000  ................
 400047a0 00000000 00000000 00000000 00000000  ................
 400047b0 00000000 00000000 00000000 00000000  ................
 400047c0 00000000 00000000 00000000 00000000  ................
 400047d0 00000000 00000000 00000000 00000000  ................
 400047e0 00000000 00000000 00000000 00000000  ................
 400047f0 00000000 00000000 00000000 00000000  ................
 40004800 00000000 00000000 00000000 00000000  ................
 40004810 00000000 00000000 00000000 00000000  ................
 40004820 00000000 00000000 00000000 00000000  ................
 40004830 00000000 00000000 00000000 00000000  ................
 40004840 00000000 00000000 00000000 00000000  ................
 40004850 00000000 00000000 00000000 00000000  ................
 40004860 00000000 00000000 00000000 00000000  ................
 40004870 00000000 00000000 00000000 00000000  ................
 40004880 00000000 00000000 00000000 00000000  ................
 40004890 00000000 00000000 00000000 00000000  ................
 400048a0 00000000 00000000 00000000 00000000  ................
 400048b0 00000000 00000000 00000000 00000000  ................
 400048c0 00000000 00000000 00000000 00000000  ................
 400048d0 00000000 00000000 00000000 00000000  ................
 400048e0 00000000 00000000 00000000 00000000  ................
 400048f0 00000000 00000000 00000000 00000000  ................
 40004900 00000000 00000000 00000000 00000000  ................
 40004910 00000000 00000000 00000000 00000000  ................
 40004920 00000000 00000000 00000000 00000000  ................
 40004930 00000000 00000000 00000000 00000000  ................
 40004940 00000000 00000000 00000000 00000000  ................
 40004950 00000000 00000000 00000000 00000000  ................
 40004960 00000000 00000000 00000000 00000000  ................
 40004970 00000000 00000000 00000000 00000000  ................
 40004980 00000000 00000000 00000000 00000000  ................
 40004990 00000000 00000000 00000000 00000000  ................
 400049a0 00000000 00000000 00000000 00000000  ................
 400049b0 00000000 00000000 00000000 00000000  ................
 400049c0 00000000 00000000 00000000 00000000  ................
 400049d0 00000000 00000000 00000000 00000000  ................
 400049e0 00000000 00000000 00000000 00000000  ................
 400049f0 00000000 00000000 00000000 00000000  ................
 40004a00 00000000 00000000 00000000 00000000  ................
 40004a10 00000000 00000000 00000000 00000000  ................
 40004a20 00000000 00000000 00000000 00000000  ................
 40004a30 00000000 00000000 00000000 00000000  ................
 40004a40 00000000 00000000 00000000 00000000  ................
 40004a50 00000000 00000000 00000000 00000000  ................
 40004a60 00000000 00000000 00000000 00000000  ................
 40004a70 00000000 00000000 00000000 00000000  ................
 40004a80 00000000 00000000 00000000 00000000  ................
 40004a90 00000000 00000000 00000000 00000000  ................
 40004aa0 00000000 00000000 00000000 00000000  ................
 40004ab0 00000000 00000000 00000000 00000000  ................
 40004ac0 00000000 00000000 00000000 00000000  ................
 40004ad0 00000000 00000000 00000000 00000000  ................
 40004ae0 00000000 00000000 00000000 00000000  ................
 40004af0 00000000 00000000 00000000 00000000  ................
 40004b00 00000000 00000000 00000000 00000000  ................
 40004b10 00000000 00000000 00000000 00000000  ................
 40004b20 00000000 00000000 00000000 00000000  ................
 40004b30 00000000 00000000 00000000 00000000  ................
 40004b40 00000000 00000000 00000000 00000000  ................
 40004b50 00000000 00000000 00000000 00000000  ................
 40004b60 00000000 00000000 00000000 00000000  ................
 40004b70 00000000 00000000 00000000 00000000  ................
 40004b80 00000000 00000000 00000000 00000000  ................
 40004b90 00000000 00000000 00000000 00000000  ................
 40004ba0 00000000 00000000 00000000 00000000  ................
 40004bb0 00000000 00000000 00000000 00000000  ................
 40004bc0 00000000 00000000 00000000 00000000  ................
 40004bd0 00000000 00000000 00000000 00000000  ................
 40004be0 00000000 00000000 00000000 00000000  ................
 40004bf0 00000000 00000000 00000000 00000000  ................
 40004c00 00000000 00000000 00000000 00000000  ................
 40004c10 00000000 00000000 00000000 00000000  ................
 40004c20 00000000 00000000 00000000 00000000  ................
 40004c30 00000000 00000000 00000000 00000000  ................
 40004c40 00000000 00000000 00000000 00000000  ................
 40004c50 00000000 00000000 00000000 00000000  ................
 40004c60 00000000 00000000 00000000 00000000  ................
 40004c70 00000000 00000000 00000000 00000000  ................
 40004c80 00000000 00000000 00000000 00000000  ................
 40004c90 00000000 00000000 00000000 00000000  ................
 40004ca0 00000000 00000000 00000000 00000000  ................
 40004cb0 00000000 00000000 00000000 00000000  ................
 40004cc0 00000000 00000000 00000000 00000000  ................
 40004cd0 00000000 00000000 00000000 00000000  ................
 40004ce0 00000000 00000000 00000000 00000000  ................
 40004cf0 00000000 00000000 00000000 00000000  ................
 40004d00 00000000 00000000 00000000 00000000  ................
 40004d10 00000000 00000000 00000000 00000000  ................
 40004d20 00000000 00000000 00000000 00000000  ................
 40004d30 00000000 00000000 00000000 00000000  ................
 40004d40 00000000 00000000 00000000 00000000  ................
 40004d50 00000000 00000000 00000000 00000000  ................
 40004d60 00000000 00000000 00000000 00000000  ................
 40004d70 00000000 00000000 00000000 00000000  ................
 40004d80 00000000 00000000 00000000 00000000  ................
 40004d90 00000000 00000000 00000000 00000000  ................
 40004da0 00000000 00000000 00000000 00000000  ................
 40004db0 00000000 00000000 00000000 00000000  ................
 40004dc0 00000000 00000000 00000000 00000000  ................
 40004dd0 00000000 00000000 00000000 00000000  ................
 40004de0 00000000 00000000 00000000 00000000  ................
 40004df0 00000000 00000000 00000000 00000000  ................
 40004e00 00000000 00000000 00000000 00000000  ................
 40004e10 00000000 00000000 00000000 00000000  ................
 40004e20 00000000 00000000 00000000 00000000  ................
 40004e30 00000000 00000000 00000000 00000000  ................
 40004e40 00000000 00000000 00000000 00000000  ................
 40004e50 00000000 00000000 00000000 00000000  ................
 40004e60 00000000 00000000 00000000 00000000  ................
 40004e70 00000000 00000000 00000000 00000000  ................
 40004e80 00000000 00000000 00000000 00000000  ................
 40004e90 00000000 00000000 00000000 00000000  ................
 40004ea0 00000000 00000000 00000000 00000000  ................
 40004eb0 00000000 00000000 00000000 00000000  ................
 40004ec0 00000000 00000000 00000000 00000000  ................
 40004ed0 00000000 00000000 00000000 00000000  ................
 40004ee0 00000000 00000000 00000000 00000000  ................
 40004ef0 00000000 00000000 00000000 00000000  ................
 40004f00 00000000 00000000 00000000 00000000  ................
 40004f10 00000000 00000000 00000000 00000000  ................
 40004f20 00000000 00000000 00000000 00000000  ................
 40004f30 00000000 00000000 00000000 00000000  ................
 40004f40 00000000 00000000 00000000 00000000  ................
 40004f50 00000000 00000000 00000000 00000000  ................
 40004f60 00000000 00000000 00000000 00000000  ................
 40004f70 00000000 00000000 00000000 00000000  ................
 40004f80 00000000 00000000 00000000 00000000  ................
 40004f90 00000000 00000000 00000000 00000000  ................
 40004fa0 00000000 00000000 00000000 00000000  ................
 40004fb0 00000000 00000000 00000000 00000000  ................
 40004fc0 00000000 00000000 00000000 00000000  ................
 40004fd0 00000000 00000000 00000000 00000000  ................
 40004fe0 00000000 00000000 00000000 00000000  ................
 40004ff0 00000000 00000000 00000000 00000000  ................
 40005000 00000000 00000000 00000000 00000000  ................
 40005010 00000000 00000000 00000000 00000000  ................
 40005020 00000000 00000000 00000000 00000000  ................
 40005030 00000000 00000000 00000000 00000000  ................
 40005040 00000000 00000000 00000000 00000000  ................
 40005050 00000000 00000000 00000000 00000000  ................
 40005060 00000000 00000000 00000000 00000000  ................
 40005070 00000000 00000000 00000000 00000000  ................
 40005080 00000000 00000000 00000000 00000000  ................
 40005090 00000000 00000000 00000000 00000000  ................
 400050a0 00000000 00000000 00000000 00000000  ................
 400050b0 00000000 00000000 00000000 00000000  ................
 400050c0 00000000 00000000 00000000 00000000  ................
 400050d0 00000000 00000000 00000000 00000000  ................
 400050e0 00000000 00000000 00000000 00000000  ................
 400050f0 00000000 00000000 00000000 00000000  ................
 40005100 00000000 00000000 00000000 00000000  ................
 40005110 00000000 00000000 00000000 00000000  ................
 40005120 00000000 00000000 00000000 00000000  ................
 40005130 00000000 00000000 00000000 00000000  ................
 40005140 00000000 00000000 00000000 00000000  ................
 40005150 00000000 00000000 00000000 00000000  ................
 40005160 00000000 00000000 00000000 00000000  ................
 40005170 00000000 00000000 00000000 00000000  ................
 40005180 00000000 00000000 00000000 00000000  ................
 40005190 00000000 00000000 00000000 00000000  ................
 400051a0 00000000 00000000 00000000 00000000  ................
 400051b0 00000000 00000000 00000000 00000000  ................
 400051c0 00000000 00000000 00000000 00000000  ................
 400051d0 00000000 00000000 00000000 00000000  ................
 400051e0 00000000 00000000 00000000 00000000  ................
 400051f0 00000000 00000000 00000000 00000000  ................
 40005200 00000000 00000000 00000000 00000000  ................
 40005210 00000000 00000000 00000000 00000000  ................
 40005220 00000000 00000000 00000000 00000000  ................
 40005230 00000000 00000000 00000000 00000000  ................
 40005240 00000000 00000000 00000000 00000000  ................
 40005250 00000000 00000000 00000000 00000000  ................
 40005260 00000000 00000000 00000000 00000000  ................
 40005270 00000000 00000000 00000000 00000000  ................
 40005280 00000000 00000000 00000000 00000000  ................
 40005290 00000000 00000000 00000000 00000000  ................
 400052a0 00000000 00000000 00000000 00000000  ................
 400052b0 00000000 00000000 00000000 00000000  ................
 400052c0 00000000 00000000 00000000 00000000  ................
 400052d0 00000000 00000000 00000000 00000000  ................
 400052e0 00000000 00000000 00000000 00000000  ................
 400052f0 00000000 00000000 00000000 00000000  ................
 40005300 00000000 00000000 00000000 00000000  ................
 40005310 00000000 00000000 00000000 00000000  ................
 40005320 00000000 00000000 00000000 00000000  ................
 40005330 00000000 00000000 00000000 00000000  ................
 40005340 00000000 00000000 00000000 00000000  ................
 40005350 00000000 00000000 00000000 00000000  ................
 40005360 00000000 00000000 00000000 00000000  ................
 40005370 00000000 00000000 00000000 00000000  ................
 40005380 00000000 00000000 00000000 00000000  ................
 40005390 00000000 00000000 00000000 00000000  ................
 400053a0 00000000 00000000 00000000 00000000  ................
 400053b0 00000000 00000000 00000000 00000000  ................
 400053c0 00000000 00000000 00000000 00000000  ................
 400053d0 00000000 00000000 00000000 00000000  ................
 400053e0 00000000 00000000 00000000 00000000  ................
 400053f0 00000000 00000000 00000000 00000000  ................
 40005400 00000000 00000000 00000000 00000000  ................
 40005410 00000000 00000000 00000000 00000000  ................
 40005420 00000000 00000000 00000000 00000000  ................
 40005430 00000000 00000000 00000000 00000000  ................
 40005440 00000000 00000000 00000000 00000000  ................
 40005450 00000000 00000000 00000000 00000000  ................
 40005460 00000000 00000000 00000000 00000000  ................
 40005470 00000000 00000000 00000000 00000000  ................
 40005480 00000000 00000000 00000000 00000000  ................
 40005490 00000000 00000000 00000000 00000000  ................
 400054a0 00000000 00000000 00000000 00000000  ................
 400054b0 00000000 00000000 00000000 00000000  ................
 400054c0 00000000 00000000 00000000 00000000  ................
 400054d0 00000000 00000000 00000000 00000000  ................
 400054e0 00000000 00000000 00000000 00000000  ................
 400054f0 00000000 00000000 00000000 00000000  ................
 40005500 00000000 00000000 00000000 00000000  ................
 40005510 00000000 00000000 00000000 00000000  ................
 40005520 00000000 00000000 00000000 00000000  ................
 40005530 00000000 00000000 00000000 00000000  ................
 40005540 00000000 00000000 00000000 00000000  ................
 40005550 00000000 00000000 00000000 00000000  ................
 40005560 00000000 00000000 00000000 00000000  ................
 40005570 00000000 00000000 00000000 00000000  ................
 40005580 00000000 00000000 00000000 00000000  ................
 40005590 00000000 00000000 00000000 00000000  ................
 400055a0 00000000 00000000 00000000 00000000  ................
 400055b0 00000000 00000000 00000000 00000000  ................
 400055c0 00000000 00000000 00000000 00000000  ................
 400055d0 00000000 00000000 00000000 00000000  ................
 400055e0 00000000 00000000 00000000 00000000  ................
 400055f0 00000000 00000000 00000000 00000000  ................
 40005600 00000000 00000000 00000000 00000000  ................
 40005610 00000000 00000000 00000000 00000000  ................
 40005620 00000000 00000000 00000000 00000000  ................
 40005630 00000000 00000000 00000000 00000000  ................
 40005640 00000000 00000000 00000000 00000000  ................
 40005650 00000000 00000000 00000000 00000000  ................
 40005660 00000000 00000000 00000000 00000000  ................
 40005670 00000000 00000000 00000000 00000000  ................
 40005680 00000000 00000000 00000000 00000000  ................
 40005690 00000000 00000000 00000000 00000000  ................
 400056a0 00000000 00000000 00000000 00000000  ................
 400056b0 00000000 00000000 00000000 00000000  ................
 400056c0 00000000 00000000 00000000 00000000  ................
 400056d0 00000000 00000000 00000000 00000000  ................
 400056e0 00000000 00000000 00000000 00000000  ................
 400056f0 00000000 00000000 00000000 00000000  ................
 40005700 00000000 00000000 00000000 00000000  ................
 40005710 00000000 00000000 00000000 00000000  ................
 40005720 00000000 00000000 00000000 00000000  ................
 40005730 00000000 00000000 00000000 00000000  ................
 40005740 00000000 00000000 00000000 00000000  ................
 40005750 00000000 00000000 00000000 00000000  ................
 40005760 00000000 00000000 00000000 00000000  ................
 40005770 00000000 00000000 00000000 00000000  ................
 40005780 00000000 00000000 00000000 00000000  ................
 40005790 00000000 00000000 00000000 00000000  ................
 400057a0 00000000 00000000 00000000 00000000  ................
 400057b0 00000000 00000000 00000000 00000000  ................
 400057c0 00000000 00000000 00000000 00000000  ................
 400057d0 00000000 00000000 00000000 00000000  ................
 400057e0 00000000 00000000 00000000 00000000  ................
 400057f0 00000000 00000000 00000000 00000000  ................
 40005800 00000000 00000000 00000000 00000000  ................
 40005810 00000000 00000000 00000000 00000000  ................
 40005820 00000000 00000000 00000000 00000000  ................
 40005830 00000000 00000000 00000000 00000000  ................
 40005840 00000000 00000000 00000000 00000000  ................
 40005850 00000000 00000000 00000000 00000000  ................
 40005860 00000000 00000000 00000000 00000000  ................
 40005870 00000000 00000000 00000000 00000000  ................
 40005880 00000000 00000000 00000000 00000000  ................
 40005890 00000000 00000000 00000000 00000000  ................
 400058a0 00000000 00000000 00000000 00000000  ................
 400058b0 00000000 00000000 00000000 00000000  ................
 400058c0 00000000 00000000 00000000 00000000  ................
 400058d0 00000000 00000000 00000000 00000000  ................
 400058e0 00000000 00000000 00000000 00000000  ................
 400058f0 00000000 00000000 00000000 00000000  ................
 40005900 00000000 00000000 00000000 00000000  ................
 40005910 00000000 00000000 00000000 00000000  ................
 40005920 00000000 00000000 00000000 00000000  ................
 40005930 00000000 00000000 00000000 00000000  ................
 40005940 00000000 00000000 00000000 00000000  ................
 40005950 00000000 00000000 00000000 00000000  ................
 40005960 00000000 00000000 00000000 00000000  ................
 40005970 00000000 00000000 00000000 00000000  ................
 40005980 00000000 00000000 00000000 00000000  ................
 40005990 00000000 00000000 00000000 00000000  ................
 400059a0 00000000 00000000 00000000 00000000  ................
 400059b0 00000000 00000000 00000000 00000000  ................
 400059c0 00000000 00000000 00000000 00000000  ................
 400059d0 00000000 00000000 00000000 00000000  ................
 400059e0 00000000 00000000 00000000 00000000  ................
 400059f0 00000000 00000000 00000000 00000000  ................
 40005a00 00000000 00000000 00000000 00000000  ................
 40005a10 00000000 00000000 00000000 00000000  ................
 40005a20 00000000 00000000 00000000 00000000  ................
 40005a30 00000000 00000000 00000000 00000000  ................
 40005a40 00000000 00000000 00000000 00000000  ................
 40005a50 00000000 00000000 00000000 00000000  ................
 40005a60 00000000 00000000 00000000 00000000  ................
 40005a70 00000000 00000000 00000000 00000000  ................
 40005a80 00000000 00000000 00000000 00000000  ................
 40005a90 00000000 00000000 00000000 00000000  ................
 40005aa0 00000000 00000000 00000000 00000000  ................
 40005ab0 00000000 00000000 00000000 00000000  ................
 40005ac0 00000000 00000000 00000000 00000000  ................
 40005ad0 00000000 00000000 00000000 00000000  ................
 40005ae0 00000000 00000000 00000000 00000000  ................
 40005af0 00000000 00000000 00000000 00000000  ................
 40005b00 00000000 00000000 00000000 00000000  ................
 40005b10 00000000 00000000 00000000 00000000  ................
 40005b20 00000000 00000000 00000000 00000000  ................
 40005b30 00000000 00000000 00000000 00000000  ................
 40005b40 00000000 00000000 00000000 00000000  ................
 40005b50 00000000 00000000 00000000 00000000  ................
 40005b60 00000000 00000000 00000000 00000000  ................
 40005b70 00000000 00000000 00000000 00000000  ................
 40005b80 00000000 00000000 00000000 00000000  ................
 40005b90 00000000 00000000 00000000 00000000  ................
 40005ba0 00000000 00000000 00000000 00000000  ................
 40005bb0 00000000 00000000 00000000 00000000  ................
 40005bc0 00000000 00000000 00000000 00000000  ................
 40005bd0 00000000 00000000 00000000 00000000  ................
 40005be0 00000000 00000000 00000000 00000000  ................
 40005bf0 00000000 00000000 00000000 00000000  ................
 40005c00 00000000 00000000 00000000 00000000  ................
 40005c10 00000000 00000000 00000000 00000000  ................
 40005c20 00000000 00000000 00000000 00000000  ................
 40005c30 00000000 00000000 00000000 00000000  ................
 40005c40 00000000 00000000 00000000 00000000  ................
 40005c50 00000000 00000000 00000000 00000000  ................
 40005c60 00000000 00000000 00000000 00000000  ................
 40005c70 00000000 00000000 00000000 00000000  ................
 40005c80 00000000 00000000 00000000 00000000  ................
 40005c90 00000000 00000000 00000000 00000000  ................
 40005ca0 00000000 00000000 00000000 00000000  ................
 40005cb0 00000000 00000000 00000000 00000000  ................
 40005cc0 00000000 00000000 00000000 00000000  ................
 40005cd0 00000000 00000000 00000000 00000000  ................
 40005ce0 00000000 00000000 00000000 00000000  ................
 40005cf0 00000000 00000000 00000000 00000000  ................
 40005d00 00000000 00000000 00000000 00000000  ................
 40005d10 00000000 00000000 00000000 00000000  ................
 40005d20 00000000 00000000 00000000 00000000  ................
 40005d30 00000000 00000000 00000000 00000000  ................
 40005d40 00000000 00000000 00000000 00000000  ................
 40005d50 00000000 00000000 00000000 00000000  ................
 40005d60 00000000 00000000 00000000 00000000  ................
 40005d70 00000000 00000000 00000000 00000000  ................
 40005d80 00000000 00000000 00000000 00000000  ................
 40005d90 00000000 00000000 00000000 00000000  ................
 40005da0 00000000 00000000 00000000 00000000  ................
 40005db0 00000000 00000000 00000000 00000000  ................
 40005dc0 00000000 00000000 00000000 00000000  ................
 40005dd0 00000000 00000000 00000000 00000000  ................
 40005de0 00000000 00000000 00000000 00000000  ................
 40005df0 00000000 00000000 00000000 00000000  ................
 40005e00 00000000 00000000 00000000 00000000  ................
 40005e10 00000000 00000000 00000000 00000000  ................
 40005e20 00000000 00000000 00000000 00000000  ................
 40005e30 00000000 00000000 00000000 00000000  ................
 40005e40 00000000 00000000 00000000 00000000  ................
 40005e50 00000000 00000000 00000000 00000000  ................
 40005e60 00000000 00000000 00000000 00000000  ................
 40005e70 00000000 00000000 00000000 00000000  ................
 40005e80 00000000 00000000 00000000 00000000  ................
 40005e90 00000000 00000000 00000000 00000000  ................
 40005ea0 00000000 00000000 00000000 00000000  ................
 40005eb0 00000000 00000000 00000000 00000000  ................
 40005ec0 00000000 00000000 00000000 00000000  ................
 40005ed0 00000000 00000000 00000000 00000000  ................
 40005ee0 00000000 00000000 00000000 00000000  ................
 40005ef0 00000000 00000000 00000000 00000000  ................
 40005f00 00000000 00000000 00000000 00000000  ................
 40005f10 00000000 00000000 00000000 00000000  ................
 40005f20 00000000 00000000 00000000 00000000  ................
 40005f30 00000000 00000000 00000000 00000000  ................
 40005f40 00000000 00000000 00000000 00000000  ................
 40005f50 00000000 00000000 00000000 00000000  ................
 40005f60 00000000 00000000 00000000 00000000  ................
 40005f70 00000000 00000000 00000000 00000000  ................
 40005f80 00000000 00000000 00000000 00000000  ................
 40005f90 00000000 00000000 00000000 00000000  ................
 40005fa0 00000000 00000000 00000000 00000000  ................
 40005fb0 00000000 00000000 00000000 00000000  ................
 40005fc0 00000000 00000000 00000000 00000000  ................
 40005fd0 00000000 00000000 00000000 00000000  ................
 40005fe0 00000000 00000000 00000000 00000000  ................
 40005ff0 00000000 00000000 00000000 00000000  ................
 40006000 00000000 00000000 00000000 00000000  ................
 40006010 00000000 00000000 00000000 00000000  ................
 40006020 00000000 00000000 00000000 00000000  ................
 40006030 00000000 00000000 00000000 00000000  ................
 40006040 00000000 00000000 00000000 00000000  ................
 40006050 00000000 00000000 00000000 00000000  ................
 40006060 00000000 00000000 00000000 00000000  ................
 40006070 00000000 00000000 00000000 00000000  ................
 40006080 00000000 00000000 00000000 00000000  ................
 40006090 00000000 00000000 00000000 00000000  ................
 400060a0 00000000 00000000 00000000 00000000  ................
 400060b0 00000000 00000000 00000000 00000000  ................
 400060c0 00000000 00000000 00000000 00000000  ................
 400060d0 00000000 00000000 00000000 00000000  ................
 400060e0 00000000 00000000 00000000 00000000  ................
 400060f0 00000000 00000000 00000000 00000000  ................
 40006100 00000000 00000000 00000000 00000000  ................
 40006110 00000000 00000000 00000000 00000000  ................
 40006120 00000000 00000000 00000000 00000000  ................
 40006130 00000000 00000000 00000000 00000000  ................
 40006140 00000000 00000000 00000000 00000000  ................
 40006150 00000000 00000000 00000000 00000000  ................
 40006160 00000000 00000000 00000000 00000000  ................
 40006170 00000000 00000000 00000000 00000000  ................
 40006180 00000000 00000000 00000000 00000000  ................
 40006190 00000000 00000000 00000000 00000000  ................
 400061a0 00000000 00000000 00000000 00000000  ................
 400061b0 00000000 00000000 00000000 00000000  ................
 400061c0 00000000 00000000 00000000 00000000  ................
 400061d0 00000000 00000000 00000000 00000000  ................
 400061e0 00000000 00000000 00000000 00000000  ................
 400061f0 00000000 00000000 00000000 00000000  ................
 40006200 00000000 00000000 00000000 00000000  ................
 40006210 00000000 00000000 00000000 00000000  ................
 40006220 00000000 00000000 00000000 00000000  ................
 40006230 00000000 00000000 00000000 00000000  ................
 40006240 00000000 00000000 00000000 00000000  ................
 40006250 00000000 00000000 00000000 00000000  ................
 40006260 00000000 00000000 00000000 00000000  ................
 40006270 00000000 00000000 00000000 00000000  ................
 40006280 00000000 00000000 00000000 00000000  ................
 40006290 00000000 00000000 00000000 00000000  ................
 400062a0 00000000 00000000 00000000 00000000  ................
 400062b0 00000000 00000000 00000000 00000000  ................
 400062c0 00000000 00000000 00000000 00000000  ................
 400062d0 00000000 00000000 00000000 00000000  ................
 400062e0 00000000 00000000 00000000 00000000  ................
 400062f0 00000000 00000000 00000000 00000000  ................
 40006300 00000000 00000000 00000000 00000000  ................
 40006310 00000000 00000000 00000000 00000000  ................
 40006320 00000000 00000000 00000000 00000000  ................
 40006330 00000000 00000000 00000000 00000000  ................
 40006340 00000000 00000000 00000000 00000000  ................
 40006350 00000000 00000000 00000000 00000000  ................
 40006360 00000000 00000000 00000000 00000000  ................
 40006370 00000000 00000000 00000000 00000000  ................
 40006380 00000000 00000000 00000000 00000000  ................
 40006390 00000000 00000000 00000000 00000000  ................
 400063a0 00000000 00000000 00000000 00000000  ................
 400063b0 00000000 00000000 00000000 00000000  ................
 400063c0 00000000 00000000 00000000 00000000  ................
 400063d0 00000000 00000000 00000000 00000000  ................
 400063e0 00000000 00000000 00000000 00000000  ................
 400063f0 00000000 00000000 00000000 00000000  ................
 40006400 00000000 00000000 00000000 00000000  ................
 40006410 00000000 00000000 00000000 00000000  ................
 40006420 00000000 00000000 00000000 00000000  ................
 40006430 00000000 00000000 00000000 00000000  ................
 40006440 00000000 00000000 00000000 00000000  ................
 40006450 00000000 00000000 00000000 00000000  ................
 40006460 00000000 00000000 00000000 00000000  ................
 40006470 00000000 00000000 00000000 00000000  ................
 40006480 00000000 00000000 00000000 00000000  ................
 40006490 00000000 00000000 00000000 00000000  ................
 400064a0 00000000 00000000 00000000 00000000  ................
 400064b0 00000000 00000000 00000000 00000000  ................
 400064c0 00000000 00000000 00000000 00000000  ................
 400064d0 00000000 00000000 00000000 00000000  ................
 400064e0 00000000 00000000 00000000 00000000  ................
 400064f0 00000000 00000000 00000000 00000000  ................
 40006500 00000000 00000000 00000000 00000000  ................
 40006510 00000000 00000000 00000000 00000000  ................
 40006520 00000000 00000000 00000000 00000000  ................
 40006530 00000000 00000000 00000000 00000000  ................
 40006540 00000000 00000000 00000000 00000000  ................
 40006550 00000000 00000000 00000000 00000000  ................
 40006560 00000000 00000000 00000000 00000000  ................
 40006570 00000000 00000000 00000000 00000000  ................
 40006580 00000000 00000000 00000000 00000000  ................
 40006590 00000000 00000000 00000000 00000000  ................
 400065a0 00000000 00000000 00000000 00000000  ................
 400065b0 00000000 00000000 00000000 00000000  ................
 400065c0 00000000 00000000 00000000 00000000  ................
 400065d0 00000000 00000000 00000000 00000000  ................
 400065e0 00000000 00000000 00000000 00000000  ................
 400065f0 00000000 00000000 00000000 00000000  ................
 40006600 00000000 00000000 00000000 00000000  ................
 40006610 00000000 00000000 00000000 00000000  ................
 40006620 00000000 00000000 00000000 00000000  ................
 40006630 00000000 00000000 00000000 00000000  ................
 40006640 00000000 00000000 00000000 00000000  ................
 40006650 00000000 00000000 00000000 00000000  ................
 40006660 00000000 00000000 00000000 00000000  ................
 40006670 00000000 00000000 00000000 00000000  ................
 40006680 00000000 00000000 00000000 00000000  ................
 40006690 00000000 00000000 00000000 00000000  ................
 400066a0 00000000 00000000 00000000 00000000  ................
 400066b0 00000000 00000000 00000000 00000000  ................
 400066c0 00000000 00000000 00000000 00000000  ................
 400066d0 00000000 00000000 00000000 00000000  ................
 400066e0 00000000 00000000 00000000 00000000  ................
 400066f0 00000000 00000000 00000000 00000000  ................
 40006700 00000000 00000000 00000000 00000000  ................
 40006710 00000000 00000000 00000000 00000000  ................
 40006720 00000000 00000000 00000000 00000000  ................
 40006730 00000000 00000000 00000000 00000000  ................
 40006740 00000000 00000000 00000000 00000000  ................
 40006750 00000000 00000000 00000000 00000000  ................
 40006760 00000000 00000000 00000000 00000000  ................
 40006770 00000000 00000000 00000000 00000000  ................
 40006780 00000000 00000000 00000000 00000000  ................
 40006790 00000000 00000000 00000000 00000000  ................
 400067a0 00000000 00000000 00000000 00000000  ................
 400067b0 00000000 00000000 00000000 00000000  ................
 400067c0 00000000 00000000 00000000 00000000  ................
 400067d0 00000000 00000000 00000000 00000000  ................
 400067e0 00000000 00000000 00000000 00000000  ................
 400067f0 00000000 00000000 00000000 00000000  ................
 40006800 00000000 00000000 00000000 00000000  ................
 40006810 00000000 00000000 00000000 00000000  ................
 40006820 00000000 00000000 00000000 00000000  ................
 40006830 00000000 00000000 00000000 00000000  ................
 40006840 00000000 00000000 00000000 00000000  ................
 40006850 00000000 00000000 00000000 00000000  ................
 40006860 00000000 00000000 00000000 00000000  ................
 40006870 00000000 00000000 00000000 00000000  ................
 40006880 00000000 00000000 00000000 00000000  ................
 40006890 00000000 00000000 00000000 00000000  ................
 400068a0 00000000 00000000 00000000 00000000  ................
 400068b0 00000000 00000000 00000000 00000000  ................
 400068c0 00000000 00000000 00000000 00000000  ................
 400068d0 00000000 00000000 00000000 00000000  ................
 400068e0 00000000 00000000 00000000 00000000  ................
 400068f0 00000000 00000000 00000000 00000000  ................
 40006900 00000000 00000000 00000000 00000000  ................
 40006910 00000000 00000000 00000000 00000000  ................
 40006920 00000000 00000000 00000000 00000000  ................
 40006930 00000000 00000000 00000000 00000000  ................
 40006940 00000000 00000000 00000000 00000000  ................
 40006950 00000000 00000000 00000000 00000000  ................
 40006960 00000000 00000000 00000000 00000000  ................
 40006970 00000000 00000000 00000000 00000000  ................
 40006980 00000000 00000000 00000000 00000000  ................
 40006990 00000000 00000000 00000000 00000000  ................
 400069a0 00000000 00000000 00000000 00000000  ................
 400069b0 00000000 00000000 00000000 00000000  ................
 400069c0 00000000 00000000 00000000 00000000  ................
 400069d0 00000000 00000000 00000000 00000000  ................
 400069e0 00000000 00000000 00000000 00000000  ................
 400069f0 00000000 00000000 00000000 00000000  ................
 40006a00 00000000 00000000 00000000 00000000  ................
 40006a10 00000000 00000000 00000000 00000000  ................
 40006a20 00000000 00000000 00000000 00000000  ................
 40006a30 00000000 00000000 00000000 00000000  ................
 40006a40 00000000 00000000 00000000 00000000  ................
 40006a50 00000000 00000000 00000000 00000000  ................
 40006a60 00000000 00000000 00000000 00000000  ................
 40006a70 00000000 00000000 00000000 00000000  ................
 40006a80 00000000 00000000 00000000 00000000  ................
 40006a90 00000000 00000000 00000000 00000000  ................
 40006aa0 00000000 00000000 00000000 00000000  ................
 40006ab0 00000000 00000000 00000000 00000000  ................
 40006ac0 00000000 00000000 00000000 00000000  ................
 40006ad0 00000000 00000000 00000000 00000000  ................
 40006ae0 00000000 00000000 00000000 00000000  ................
 40006af0 00000000 00000000 00000000 00000000  ................
 40006b00 00000000 00000000 00000000 00000000  ................
 40006b10 00000000 00000000 00000000 00000000  ................
 40006b20 00000000 00000000 00000000 00000000  ................
 40006b30 00000000 00000000 00000000 00000000  ................
 40006b40 00000000 00000000 00000000 00000000  ................
 40006b50 00000000 00000000 00000000 00000000  ................
 40006b60 00000000 00000000 00000000 00000000  ................
 40006b70 00000000 00000000 00000000 00000000  ................
 40006b80 00000000 00000000 00000000 00000000  ................
 40006b90 00000000 00000000 00000000 00000000  ................
 40006ba0 00000000 00000000 00000000 00000000  ................
 40006bb0 00000000 00000000 00000000 00000000  ................
 40006bc0 00000000 00000000 00000000 00000000  ................
 40006bd0 00000000 00000000 00000000 00000000  ................
 40006be0 00000000 00000000 00000000 00000000  ................
 40006bf0 00000000 00000000 00000000 00000000  ................
 40006c00 00000000 00000000 00000000 00000000  ................
 40006c10 00000000 00000000 00000000 00000000  ................
 40006c20 00000000 00000000 00000000 00000000  ................
 40006c30 00000000 00000000 00000000 00000000  ................
 40006c40 00000000 00000000 00000000 00000000  ................
 40006c50 00000000 00000000 00000000 00000000  ................
 40006c60 00000000 00000000 00000000 00000000  ................
 40006c70 00000000 00000000 00000000 00000000  ................
 40006c80 00000000 00000000 00000000 00000000  ................
 40006c90 00000000 00000000 00000000 00000000  ................
 40006ca0 00000000 00000000 00000000 00000000  ................
 40006cb0 00000000 00000000 00000000 00000000  ................
 40006cc0 00000000 00000000 00000000 00000000  ................
 40006cd0 00000000 00000000 00000000 00000000  ................
 40006ce0 00000000 00000000 00000000 00000000  ................
 40006cf0 00000000 00000000 00000000 00000000  ................
 40006d00 00000000 00000000 00000000 00000000  ................
 40006d10 00000000 00000000 00000000 00000000  ................
 40006d20 00000000 00000000 00000000 00000000  ................
 40006d30 00000000 00000000 00000000 00000000  ................
 40006d40 00000000 00000000 00000000 00000000  ................
 40006d50 00000000 00000000 00000000 00000000  ................
 40006d60 00000000 00000000 00000000 00000000  ................
 40006d70 00000000 00000000 00000000 00000000  ................
 40006d80 00000000 00000000 00000000 00000000  ................
 40006d90 00000000 00000000 00000000 00000000  ................
 40006da0 00000000 00000000 00000000 00000000  ................
 40006db0 00000000 00000000 00000000 00000000  ................
 40006dc0 00000000 00000000 00000000 00000000  ................
 40006dd0 00000000 00000000 00000000 00000000  ................
 40006de0 00000000 00000000 00000000 00000000  ................
 40006df0 00000000 00000000 00000000 00000000  ................
 40006e00 00000000 00000000 00000000 00000000  ................
 40006e10 00000000 00000000 00000000 00000000  ................
 40006e20 00000000 00000000 00000000 00000000  ................
 40006e30 00000000 00000000 00000000 00000000  ................
 40006e40 00000000 00000000 00000000 00000000  ................
 40006e50 00000000 00000000 00000000 00000000  ................
 40006e60 00000000 00000000 00000000 00000000  ................
 40006e70 00000000 00000000 00000000 00000000  ................
 40006e80 00000000 00000000 00000000 00000000  ................
 40006e90 00000000 00000000 00000000 00000000  ................
 40006ea0 00000000 00000000 00000000 00000000  ................
 40006eb0 00000000 00000000 00000000 00000000  ................
 40006ec0 00000000 00000000 00000000 00000000  ................
 40006ed0 00000000 00000000 00000000 00000000  ................
 40006ee0 00000000 00000000 00000000 00000000  ................
 40006ef0 00000000 00000000 00000000 00000000  ................
 40006f00 00000000 00000000 00000000 00000000  ................
 40006f10 00000000 00000000 00000000 00000000  ................
 40006f20 00000000 00000000 00000000 00000000  ................
 40006f30 00000000 00000000 00000000 00000000  ................
 40006f40 00000000 00000000 00000000 00000000  ................
 40006f50 00000000 00000000 00000000 00000000  ................
 40006f60 00000000 00000000 00000000 00000000  ................
 40006f70 00000000 00000000 00000000 00000000  ................
 40006f80 00000000 00000000 00000000 00000000  ................
 40006f90 00000000 00000000 00000000 00000000  ................
 40006fa0 00000000 00000000 00000000 00000000  ................
 40006fb0 00000000 00000000 00000000 00000000  ................
 40006fc0 00000000 00000000 00000000 00000000  ................
 40006fd0 00000000 00000000 00000000 00000000  ................
 40006fe0 00000000 00000000 00000000 00000000  ................
 40006ff0 00000000 00000000 00000000 00000000  ................
 40007000 00000000 00000000 00000000 00000000  ................
 40007010 00000000 00000000 00000000 00000000  ................
 40007020 00000000 00000000 00000000 00000000  ................
 40007030 00000000 00000000 00000000 00000000  ................
 40007040 00000000 00000000 00000000 00000000  ................
 40007050 00000000 00000000 00000000 00000000  ................
 40007060 00000000 00000000 00000000 00000000  ................
 40007070 00000000 00000000 00000000 00000000  ................
 40007080 00000000 00000000 00000000 00000000  ................
 40007090 00000000 00000000 00000000 00000000  ................
 400070a0 00000000 00000000 00000000 00000000  ................
 400070b0 00000000 00000000 00000000 00000000  ................
 400070c0 00000000 00000000 00000000 00000000  ................
 400070d0 00000000 00000000 00000000 00000000  ................
 400070e0 00000000 00000000 00000000 00000000  ................
 400070f0 00000000 00000000 00000000 00000000  ................
 40007100 00000000 00000000 00000000 00000000  ................
 40007110 00000000 00000000 00000000 00000000  ................
 40007120 00000000 00000000 00000000 00000000  ................
 40007130 00000000 00000000 00000000 00000000  ................
 40007140 00000000 00000000 00000000 00000000  ................
 40007150 00000000 00000000 00000000 00000000  ................
 40007160 00000000 00000000 00000000 00000000  ................
 40007170 00000000 00000000 00000000 00000000  ................
 40007180 00000000 00000000 00000000 00000000  ................
 40007190 00000000 00000000 00000000 00000000  ................
 400071a0 00000000 00000000 00000000 00000000  ................
 400071b0 00000000 00000000 00000000 00000000  ................
 400071c0 00000000 00000000 00000000 00000000  ................
 400071d0 00000000 00000000 00000000 00000000  ................
 400071e0 00000000 00000000 00000000 00000000  ................
 400071f0 00000000 00000000 00000000 00000000  ................
 40007200 00000000 00000000 00000000 00000000  ................
 40007210 00000000 00000000 00000000 00000000  ................
 40007220 00000000 00000000 00000000 00000000  ................
 40007230 00000000 00000000 00000000 00000000  ................
 40007240 00000000 00000000 00000000 00000000  ................
 40007250 00000000 00000000 00000000 00000000  ................
 40007260 00000000 00000000 00000000 00000000  ................
 40007270 00000000 00000000 00000000 00000000  ................
 40007280 00000000 00000000 00000000 00000000  ................
 40007290 00000000 00000000 00000000 00000000  ................
 400072a0 00000000 00000000 00000000 00000000  ................
 400072b0 00000000 00000000 00000000 00000000  ................
 400072c0 00000000 00000000 00000000 00000000  ................
 400072d0 00000000 00000000 00000000 00000000  ................
 400072e0 00000000 00000000 00000000 00000000  ................
 400072f0 00000000 00000000 00000000 00000000  ................
 40007300 00000000 00000000 00000000 00000000  ................
 40007310 00000000 00000000 00000000 00000000  ................
 40007320 00000000 00000000 00000000 00000000  ................
 40007330 00000000 00000000 00000000 00000000  ................
 40007340 00000000 00000000 00000000 00000000  ................
 40007350 00000000 00000000 00000000 00000000  ................
 40007360 00000000 00000000 00000000 00000000  ................
 40007370 00000000 00000000 00000000 00000000  ................
 40007380 00000000 00000000 00000000 00000000  ................
 40007390 00000000 00000000 00000000 00000000  ................
 400073a0 00000000 00000000 00000000 00000000  ................
 400073b0 00000000 00000000 00000000 00000000  ................
 400073c0 00000000 00000000 00000000 00000000  ................
 400073d0 00000000 00000000 00000000 00000000  ................
 400073e0 00000000 00000000 00000000 00000000  ................
 400073f0 00000000 00000000 00000000 00000000  ................
 40007400 00000000 00000000 00000000 00000000  ................
 40007410 00000000 00000000 00000000 00000000  ................
 40007420 00000000 00000000 00000000 00000000  ................
 40007430 00000000 00000000 00000000 00000000  ................
 40007440 00000000 00000000 00000000 00000000  ................
 40007450 00000000 00000000 00000000 00000000  ................
 40007460 00000000 00000000 00000000 00000000  ................
 40007470 00000000 00000000 00000000 00000000  ................
 40007480 00000000 00000000 00000000 00000000  ................
 40007490 00000000 00000000 00000000 00000000  ................
 400074a0 00000000 00000000 00000000 00000000  ................
 400074b0 00000000 00000000 00000000 00000000  ................
 400074c0 00000000 00000000 00000000 00000000  ................
 400074d0 00000000 00000000 00000000 00000000  ................
 400074e0 00000000 00000000 00000000 00000000  ................
 400074f0 00000000 00000000 00000000 00000000  ................
 40007500 00000000 00000000 00000000 00000000  ................
 40007510 00000000 00000000 00000000 00000000  ................
 40007520 00000000 00000000 00000000 00000000  ................
 40007530 00000000 00000000 00000000 00000000  ................
 40007540 00000000 00000000 00000000 00000000  ................
 40007550 00000000 00000000 00000000 00000000  ................
 40007560 00000000 00000000 00000000 00000000  ................
 40007570 00000000 00000000 00000000 00000000  ................
 40007580 00000000 00000000 00000000 00000000  ................
 40007590 00000000 00000000 00000000 00000000  ................
 400075a0 00000000 00000000 00000000 00000000  ................
 400075b0 00000000 00000000 00000000 00000000  ................
 400075c0 00000000 00000000 00000000 00000000  ................
 400075d0 00000000 00000000 00000000 00000000  ................
 400075e0 00000000 00000000 00000000 00000000  ................
 400075f0 00000000 00000000 00000000 00000000  ................
 40007600 00000000 00000000 00000000 00000000  ................
 40007610 00000000 00000000 00000000 00000000  ................
 40007620 00000000 00000000 00000000 00000000  ................
 40007630 00000000 00000000 00000000 00000000  ................
 40007640 00000000 00000000 00000000 00000000  ................
 40007650 00000000 00000000 00000000 00000000  ................
 40007660 00000000 00000000 00000000 00000000  ................
 40007670 00000000 00000000 00000000 00000000  ................
 40007680 00000000 00000000 00000000 00000000  ................
 40007690 00000000 00000000 00000000 00000000  ................
 400076a0 00000000 00000000 00000000 00000000  ................
 400076b0 00000000 00000000 00000000 00000000  ................
 400076c0 00000000 00000000 00000000 00000000  ................
 400076d0 00000000 00000000 00000000 00000000  ................
 400076e0 00000000 00000000 00000000 00000000  ................
 400076f0 00000000 00000000 00000000 00000000  ................
 40007700 00000000 00000000 00000000 00000000  ................
 40007710 00000000 00000000 00000000 00000000  ................
 40007720 00000000 00000000 00000000 00000000  ................
 40007730 00000000 00000000 00000000 00000000  ................
 40007740 00000000 00000000 00000000 00000000  ................
 40007750 00000000 00000000 00000000 00000000  ................
 40007760 00000000 00000000 00000000 00000000  ................
 40007770 00000000 00000000 00000000 00000000  ................
 40007780 00000000 00000000 00000000 00000000  ................
 40007790 00000000 00000000 00000000 00000000  ................
 400077a0 00000000 00000000 00000000 00000000  ................
 400077b0 00000000 00000000 00000000 00000000  ................
 400077c0 00000000 00000000 00000000 00000000  ................
 400077d0 00000000 00000000 00000000 00000000  ................
 400077e0 00000000 00000000 00000000 00000000  ................
 400077f0 00000000 00000000 00000000 00000000  ................
 40007800 00000000 00000000 00000000 00000000  ................
 40007810 00000000 00000000 00000000 00000000  ................
 40007820 00000000 00000000 00000000 00000000  ................
 40007830 00000000 00000000 00000000 00000000  ................
 40007840 00000000 00000000 00000000 00000000  ................
 40007850 00000000 00000000 00000000 00000000  ................
 40007860 00000000 00000000 00000000 00000000  ................
 40007870 00000000 00000000 00000000 00000000  ................
 40007880 00000000 00000000 00000000 00000000  ................
 40007890 00000000 00000000 00000000 00000000  ................
 400078a0 00000000 00000000 00000000 00000000  ................
 400078b0 00000000 00000000 00000000 00000000  ................
 400078c0 00000000 00000000 00000000 00000000  ................
 400078d0 00000000 00000000 00000000 00000000  ................
 400078e0 00000000 00000000 00000000 00000000  ................
 400078f0 00000000 00000000 00000000 00000000  ................
 40007900 00000000 00000000 00000000 00000000  ................
 40007910 00000000 00000000 00000000 00000000  ................
 40007920 00000000 00000000 00000000 00000000  ................
 40007930 00000000 00000000 00000000 00000000  ................
 40007940 00000000 00000000 00000000 00000000  ................
 40007950 00000000 00000000 00000000 00000000  ................
 40007960 00000000 00000000 00000000 00000000  ................
 40007970 00000000 00000000 00000000 00000000  ................
 40007980 00000000 00000000 00000000 00000000  ................
 40007990 00000000 00000000 00000000 00000000  ................
 400079a0 00000000 00000000 00000000 00000000  ................
 400079b0 00000000 00000000 00000000 00000000  ................
 400079c0 00000000 00000000 00000000 00000000  ................
 400079d0 00000000 00000000 00000000 00000000  ................
 400079e0 00000000 00000000 00000000 00000000  ................
 400079f0 00000000 00000000 00000000 00000000  ................
 40007a00 00000000 00000000 00000000 00000000  ................
 40007a10 00000000 00000000 00000000 00000000  ................
 40007a20 00000000 00000000 00000000 00000000  ................
 40007a30 00000000 00000000 00000000 00000000  ................
 40007a40 00000000 00000000 00000000 00000000  ................
 40007a50 00000000 00000000 00000000 00000000  ................
 40007a60 00000000 00000000 00000000 00000000  ................
 40007a70 00000000 00000000 00000000 00000000  ................
 40007a80 00000000 00000000 00000000 00000000  ................
 40007a90 00000000 00000000 00000000 00000000  ................
 40007aa0 00000000 00000000 00000000 00000000  ................
 40007ab0 00000000 00000000 00000000 00000000  ................
 40007ac0 00000000 00000000 00000000 00000000  ................
 40007ad0 00000000 00000000 00000000 00000000  ................
 40007ae0 00000000 00000000 00000000 00000000  ................
 40007af0 00000000 00000000 00000000 00000000  ................
 40007b00 00000000 00000000 00000000 00000000  ................
 40007b10 00000000 00000000 00000000 00000000  ................
 40007b20 00000000 00000000 00000000 00000000  ................
 40007b30 00000000 00000000 00000000 00000000  ................
 40007b40 00000000 00000000 00000000 00000000  ................
 40007b50 00000000 00000000 00000000 00000000  ................
 40007b60 00000000 00000000 00000000 00000000  ................
 40007b70 00000000 00000000 00000000 00000000  ................
 40007b80 00000000 00000000 00000000 00000000  ................
 40007b90 00000000 00000000 00000000 00000000  ................
 40007ba0 00000000 00000000 00000000 00000000  ................
 40007bb0 00000000 00000000 00000000 00000000  ................
 40007bc0 00000000 00000000 00000000 00000000  ................
 40007bd0 00000000 00000000 00000000 00000000  ................
 40007be0 00000000 00000000 00000000 00000000  ................
 40007bf0 00000000 00000000 00000000 00000000  ................
 40007c00 00000000 00000000 00000000 00000000  ................
 40007c10 00000000 00000000 00000000 00000000  ................
 40007c20 00000000 00000000 00000000 00000000  ................
 40007c30 00000000 00000000 00000000 00000000  ................
 40007c40 00000000 00000000 00000000 00000000  ................
 40007c50 00000000 00000000 00000000 00000000  ................
 40007c60 00000000 00000000 00000000 00000000  ................
 40007c70 00000000 00000000 00000000 00000000  ................
 40007c80 00000000 00000000 00000000 00000000  ................
 40007c90 00000000 00000000 00000000 00000000  ................
 40007ca0 00000000 00000000 00000000 00000000  ................
 40007cb0 00000000 00000000 00000000 00000000  ................
 40007cc0 00000000 00000000 00000000 00000000  ................
 40007cd0 00000000 00000000 00000000 00000000  ................
 40007ce0 00000000 00000000 00000000 00000000  ................
 40007cf0 00000000 00000000 00000000 00000000  ................
 40007d00 00000000 00000000 00000000 00000000  ................
 40007d10 00000000 00000000 00000000 00000000  ................
 40007d20 00000000 00000000 00000000 00000000  ................
 40007d30 00000000 00000000 00000000 00000000  ................
 40007d40 00000000 00000000 00000000 00000000  ................
 40007d50 00000000 00000000 00000000 00000000  ................
 40007d60 00000000 00000000 00000000 00000000  ................
 40007d70 00000000 00000000 00000000 00000000  ................
 40007d80 00000000 00000000 00000000 00000000  ................
 40007d90 00000000 00000000 00000000 00000000  ................
 40007da0 00000000 00000000 00000000 00000000  ................
 40007db0 00000000 00000000 00000000 00000000  ................
 40007dc0 00000000 00000000 00000000 00000000  ................
 40007dd0 00000000 00000000 00000000 00000000  ................
 40007de0 00000000 00000000 00000000 00000000  ................
 40007df0 00000000 00000000 00000000 00000000  ................
 40007e00 00000000 00000000 00000000 00000000  ................
 40007e10 00000000 00000000 00000000 00000000  ................
 40007e20 00000000 00000000 00000000 00000000  ................
 40007e30 00000000 00000000 00000000 00000000  ................
 40007e40 00000000 00000000 00000000 00000000  ................
 40007e50 00000000 00000000 00000000 00000000  ................
 40007e60 00000000 00000000 00000000 00000000  ................
 40007e70 00000000 00000000 00000000 00000000  ................
 40007e80 00000000 00000000 00000000 00000000  ................
 40007e90 00000000 00000000 00000000 00000000  ................
 40007ea0 00000000 00000000 00000000 00000000  ................
 40007eb0 00000000 00000000 00000000 00000000  ................
 40007ec0 00000000 00000000 00000000 00000000  ................
 40007ed0 00000000 00000000 00000000 00000000  ................
 40007ee0 00000000 00000000 00000000 00000000  ................
 40007ef0 00000000 00000000 00000000 00000000  ................
 40007f00 00000000 00000000 00000000 00000000  ................
 40007f10 00000000 00000000 00000000 00000000  ................
 40007f20 00000000 00000000 00000000 00000000  ................
 40007f30 00000000 00000000 00000000 00000000  ................
 40007f40 00000000 00000000 00000000 00000000  ................
 40007f50 00000000 00000000 00000000 00000000  ................
 40007f60 00000000 00000000 00000000 00000000  ................
 40007f70 00000000 00000000 00000000 00000000  ................
 40007f80 00000000 00000000 00000000 00000000  ................
 40007f90 00000000 00000000 00000000 00000000  ................
 40007fa0 00000000 00000000 00000000 00000000  ................
 40007fb0 00000000 00000000 00000000 00000000  ................
 40007fc0 00000000 00000000 00000000 00000000  ................
 40007fd0 00000000 00000000 00000000 00000000  ................
 40007fe0 00000000 00000000 00000000 00000000  ................
 40007ff0 00000000 00000000 00000000 00000000  ................
 40008000 00000000 00000000 00000000 00000000  ................
 40008010 00000000 00000000 00000000 00000000  ................
 40008020 00000000 00000000 00000000 00000000  ................
 40008030 00000000 00000000 00000000 00000000  ................
 40008040 00000000 00000000 00000000 00000000  ................
 40008050 00000000 00000000 00000000 00000000  ................
 40008060 00000000 00000000 00000000 00000000  ................
 40008070 00000000 00000000 00000000 00000000  ................
 40008080 00000000 00000000 00000000 00000000  ................
 40008090 00000000 00000000 00000000 00000000  ................
 400080a0 00000000 00000000 00000000 00000000  ................
 400080b0 00000000 00000000 00000000 00000000  ................
 400080c0 00000000 00000000 00000000 00000000  ................
 400080d0 00000000 00000000 00000000 00000000  ................
 400080e0 00000000 00000000 00000000 00000000  ................
 400080f0 00000000 00000000 00000000 00000000  ................
 40008100 00000000 00000000 00000000 00000000  ................
 40008110 00000000 00000000 00000000 00000000  ................
 40008120 00000000 00000000 00000000 00000000  ................
 40008130 00000000 00000000 00000000 00000000  ................
 40008140 00000000 00000000 00000000 00000000  ................
 40008150 00000000 00000000 00000000 00000000  ................
 40008160 00000000 00000000 00000000 00000000  ................
 40008170 00000000 00000000 00000000 00000000  ................
 40008180 00000000 00000000 00000000 00000000  ................
 40008190 00000000 00000000 00000000 00000000  ................
 400081a0 00000000 00000000 00000000 00000000  ................
 400081b0 00000000 00000000 00000000 00000000  ................
 400081c0 00000000 00000000 00000000 00000000  ................
 400081d0 00000000 00000000 00000000 00000000  ................
 400081e0 00000000 00000000 00000000 00000000  ................
 400081f0 00000000 00000000 00000000 00000000  ................
 40008200 00000000 00000000 00000000 00000000  ................
 40008210 00000000 00000000 00000000 00000000  ................
 40008220 00000000 00000000 00000000 00000000  ................
 40008230 00000000 00000000 00000000 00000000  ................
 40008240 00000000 00000000 00000000 00000000  ................
 40008250 00000000 00000000 00000000 00000000  ................
 40008260 00000000 00000000 00000000 00000000  ................
 40008270 00000000 00000000 00000000 00000000  ................
 40008280 00000000 00000000 00000000 00000000  ................
 40008290 00000000 00000000 00000000 00000000  ................
 400082a0 00000000 00000000 00000000 00000000  ................
 400082b0 00000000 00000000 00000000 00000000  ................
 400082c0 00000000 00000000 00000000 00000000  ................
 400082d0 00000000 00000000 00000000 00000000  ................
 400082e0 00000000 00000000 00000000 00000000  ................
 400082f0 00000000 00000000 00000000 00000000  ................
 40008300 00000000 00000000 00000000 00000000  ................
 40008310 00000000 00000000 00000000 00000000  ................
 40008320 00000000 00000000 00000000 00000000  ................
 40008330 00000000 00000000 00000000 00000000  ................
 40008340 00000000 00000000 00000000 00000000  ................
 40008350 00000000 00000000 00000000 00000000  ................
 40008360 00000000 00000000 00000000 00000000  ................
 40008370 00000000 00000000 00000000 00000000  ................
 40008380 00000000 00000000 00000000 00000000  ................
 40008390 00000000 00000000 00000000 00000000  ................
 400083a0 00000000 00000000 00000000 00000000  ................
 400083b0 00000000 00000000 00000000 00000000  ................
 400083c0 00000000 00000000 00000000 00000000  ................
 400083d0 00000000 00000000 00000000 00000000  ................
 400083e0 00000000 00000000 00000000 00000000  ................
 400083f0 00000000 00000000 00000000 00000000  ................
 40008400 00000000 00000000 00000000 00000000  ................
 40008410 00000000 00000000 00000000 00000000  ................
 40008420 00000000 00000000 00000000 00000000  ................
 40008430 00000000 00000000 00000000 00000000  ................
 40008440 00000000 00000000 00000000 00000000  ................
 40008450 00000000 00000000 00000000 00000000  ................
 40008460 00000000 00000000 00000000 00000000  ................
 40008470 00000000 00000000 00000000 00000000  ................
 40008480 00000000 00000000 00000000 00000000  ................
 40008490 00000000 00000000 00000000 00000000  ................
 400084a0 00000000 00000000 00000000 00000000  ................
 400084b0 00000000 00000000 00000000 00000000  ................
 400084c0 00000000 00000000 00000000 00000000  ................
 400084d0 00000000 00000000 00000000 00000000  ................
 400084e0 00000000 00000000 00000000 00000000  ................
 400084f0 00000000 00000000 00000000 00000000  ................
 40008500 00000000 00000000 00000000 00000000  ................
 40008510 00000000 00000000 00000000 00000000  ................
 40008520 00000000 00000000 00000000 00000000  ................
 40008530 00000000 00000000 00000000 00000000  ................
 40008540 00000000 00000000 00000000 00000000  ................
 40008550 00000000 00000000 00000000 00000000  ................
 40008560 00000000 00000000 00000000 00000000  ................
 40008570 00000000 00000000 00000000 00000000  ................
 40008580 00000000 00000000 00000000 00000000  ................
 40008590 00000000 00000000 00000000 00000000  ................
 400085a0 00000000 00000000 00000000 00000000  ................
 400085b0 00000000 00000000 00000000 00000000  ................
 400085c0 00000000 00000000 00000000 00000000  ................
 400085d0 00000000 00000000 00000000 00000000  ................
 400085e0 00000000 00000000 00000000 00000000  ................
 400085f0 00000000 00000000 00000000 00000000  ................
 40008600 00000000 00000000 00000000 00000000  ................
 40008610 00000000 00000000 00000000 00000000  ................
 40008620 00000000 00000000 00000000 00000000  ................
 40008630 00000000 00000000 00000000 00000000  ................
 40008640 00000000 00000000 00000000 00000000  ................
 40008650 00000000 00000000 00000000 00000000  ................
 40008660 00000000 00000000 00000000 00000000  ................
 40008670 00000000 00000000 00000000 00000000  ................
 40008680 00000000 00000000 00000000 00000000  ................
 40008690 00000000 00000000 00000000 00000000  ................
 400086a0 00000000 00000000 00000000 00000000  ................
 400086b0 00000000 00000000 00000000 00000000  ................
 400086c0 00000000 00000000 00000000 00000000  ................
 400086d0 00000000 00000000 00000000 00000000  ................
 400086e0 00000000 00000000 00000000 00000000  ................
 400086f0 00000000 00000000 00000000 00000000  ................
 40008700 00000000 00000000 00000000 00000000  ................
 40008710 00000000 00000000 00000000 00000000  ................
 40008720 00000000 00000000 00000000 00000000  ................
 40008730 00000000 00000000 00000000 00000000  ................
 40008740 00000000 00000000 00000000 00000000  ................
 40008750 00000000 00000000 00000000 00000000  ................
 40008760 00000000 00000000 00000000 00000000  ................
 40008770 00000000 00000000 00000000 00000000  ................
 40008780 00000000 00000000 00000000 00000000  ................
 40008790 00000000 00000000 00000000 00000000  ................
 400087a0 00000000 00000000 00000000 00000000  ................
 400087b0 00000000 00000000 00000000 00000000  ................
 400087c0 00000000 00000000 00000000 00000000  ................
 400087d0 00000000 00000000 00000000 00000000  ................
 400087e0 00000000 00000000 00000000 00000000  ................
 400087f0 00000000 00000000 00000000 00000000  ................
 40008800 00000000 00000000 00000000 00000000  ................
 40008810 00000000 00000000 00000000 00000000  ................
 40008820 00000000 00000000 00000000 00000000  ................
 40008830 00000000 00000000 00000000 00000000  ................
 40008840 00000000 00000000 00000000 00000000  ................
 40008850 00000000 00000000 00000000 00000000  ................
 40008860 00000000 00000000 00000000 00000000  ................
 40008870 00000000 00000000 00000000 00000000  ................
 40008880 00000000 00000000 00000000 00000000  ................
 40008890 00000000 00000000 00000000 00000000  ................
 400088a0 00000000 00000000 00000000 00000000  ................
 400088b0 00000000 00000000 00000000 00000000  ................
 400088c0 00000000 00000000 00000000 00000000  ................
 400088d0 00000000 00000000 00000000 00000000  ................
 400088e0 00000000 00000000 00000000 00000000  ................
 400088f0 00000000 00000000 00000000 00000000  ................
 40008900 00000000 00000000 00000000 00000000  ................
 40008910 00000000 00000000 00000000 00000000  ................
 40008920 00000000 00000000 00000000 00000000  ................
 40008930 00000000 00000000 00000000 00000000  ................
 40008940 00000000 00000000 00000000 00000000  ................
 40008950 00000000 00000000 00000000 00000000  ................
 40008960 00000000 00000000 00000000 00000000  ................
 40008970 00000000 00000000 00000000 00000000  ................
 40008980 00000000 00000000 00000000 00000000  ................
 40008990 00000000 00000000 00000000 00000000  ................
 400089a0 00000000 00000000 00000000 00000000  ................
 400089b0 00000000 00000000 00000000 00000000  ................
 400089c0 00000000 00000000 00000000 00000000  ................
 400089d0 00000000 00000000 00000000 00000000  ................
 400089e0 00000000 00000000 00000000 00000000  ................
 400089f0 00000000 00000000 00000000 00000000  ................
 40008a00 00000000 00000000 00000000 00000000  ................
 40008a10 00000000 00000000 00000000 00000000  ................
 40008a20 00000000 00000000 00000000 00000000  ................
 40008a30 00000000 00000000 00000000 00000000  ................
 40008a40 00000000 00000000 00000000 00000000  ................
 40008a50 00000000 00000000 00000000 00000000  ................
 40008a60 00000000 00000000 00000000 00000000  ................
 40008a70 00000000 00000000 00000000 00000000  ................
 40008a80 00000000 00000000 00000000 00000000  ................
 40008a90 00000000 00000000 00000000 00000000  ................
 40008aa0 00000000 00000000 00000000 00000000  ................
 40008ab0 00000000 00000000 00000000 00000000  ................
 40008ac0 00000000 00000000 00000000 00000000  ................
 40008ad0 00000000 00000000 00000000 00000000  ................
 40008ae0 00000000 00000000 00000000 00000000  ................
 40008af0 00000000 00000000 00000000 00000000  ................
 40008b00 00000000 00000000 00000000 00000000  ................
 40008b10 00000000 00000000 00000000 00000000  ................
 40008b20 00000000 00000000 00000000 00000000  ................
 40008b30 00000000 00000000 00000000 00000000  ................
 40008b40 00000000 00000000 00000000 00000000  ................
 40008b50 00000000 00000000 00000000 00000000  ................
 40008b60 00000000 00000000 00000000 00000000  ................
 40008b70 00000000 00000000 00000000 00000000  ................
 40008b80 00000000 00000000 00000000 00000000  ................
 40008b90 00000000 00000000 00000000 00000000  ................
 40008ba0 00000000 00000000 00000000 00000000  ................
 40008bb0 00000000 00000000 00000000 00000000  ................
 40008bc0 00000000 00000000 00000000 00000000  ................
 40008bd0 00000000 00000000 00000000 00000000  ................
 40008be0 00000000 00000000 00000000 00000000  ................
 40008bf0 00000000 00000000 00000000 00000000  ................
 40008c00 00000000 00000000 00000000 00000000  ................
 40008c10 00000000 00000000 00000000 00000000  ................
 40008c20 00000000 00000000 00000000 00000000  ................
 40008c30 00000000 00000000 00000000 00000000  ................
 40008c40 00000000 00000000 00000000 00000000  ................
 40008c50 00000000 00000000 00000000 00000000  ................
 40008c60 00000000 00000000 00000000 00000000  ................
 40008c70 00000000 00000000 00000000 00000000  ................
 40008c80 00000000 00000000 00000000 00000000  ................
 40008c90 00000000 00000000 00000000 00000000  ................
 40008ca0 00000000 00000000 00000000 00000000  ................
 40008cb0 00000000 00000000 00000000 00000000  ................
 40008cc0 00000000 00000000 00000000 00000000  ................
 40008cd0 00000000 00000000 00000000 00000000  ................
 40008ce0 00000000 00000000 00000000 00000000  ................
 40008cf0 00000000 00000000 00000000 00000000  ................
 40008d00 00000000 00000000 00000000 00000000  ................
 40008d10 00000000 00000000 00000000 00000000  ................
 40008d20 00000000 00000000 00000000 00000000  ................
 40008d30 00000000 00000000 00000000 00000000  ................
 40008d40 00000000 00000000 00000000 00000000  ................
 40008d50 00000000 00000000 00000000 00000000  ................
 40008d60 00000000 00000000 00000000 00000000  ................
 40008d70 00000000 00000000 00000000 00000000  ................
 40008d80 00000000 00000000 00000000 00000000  ................
 40008d90 00000000 00000000 00000000 00000000  ................
 40008da0 00000000 00000000 00000000 00000000  ................
 40008db0 00000000 00000000 00000000 00000000  ................
 40008dc0 00000000 00000000 00000000 00000000  ................
 40008dd0 00000000 00000000 00000000 00000000  ................
 40008de0 00000000 00000000 00000000 00000000  ................
 40008df0 00000000 00000000 00000000 00000000  ................
 40008e00 00000000 00000000 00000000 00000000  ................
 40008e10 00000000 00000000 00000000 00000000  ................
 40008e20 00000000 00000000 00000000 00000000  ................
 40008e30 00000000 00000000 00000000 00000000  ................
 40008e40 00000000 00000000 00000000 00000000  ................
 40008e50 00000000 00000000 00000000 00000000  ................
 40008e60 00000000 00000000 00000000 00000000  ................
 40008e70 00000000 00000000 00000000 00000000  ................
 40008e80 00000000 00000000 00000000 00000000  ................
 40008e90 00000000 00000000 00000000 00000000  ................
 40008ea0 00000000 00000000 00000000 00000000  ................
 40008eb0 00000000 00000000 00000000 00000000  ................
 40008ec0 00000000 00000000 00000000 00000000  ................
 40008ed0 00000000 00000000 00000000 00000000  ................
 40008ee0 00000000 00000000 00000000 00000000  ................
 40008ef0 00000000 00000000 00000000 00000000  ................
 40008f00 00000000 00000000 00000000 00000000  ................
 40008f10 00000000 00000000 00000000 00000000  ................
 40008f20 00000000 00000000 00000000 00000000  ................
 40008f30 00000000 00000000 00000000 00000000  ................
 40008f40 00000000 00000000 00000000 00000000  ................
 40008f50 00000000 00000000 00000000 00000000  ................
 40008f60 00000000 00000000 00000000 00000000  ................
 40008f70 00000000 00000000 00000000 00000000  ................
 40008f80 00000000 00000000 00000000 00000000  ................
 40008f90 00000000 00000000 00000000 00000000  ................
 40008fa0 00000000 00000000 00000000 00000000  ................
 40008fb0 00000000 00000000 00000000 00000000  ................
 40008fc0 00000000 00000000 00000000 00000000  ................
 40008fd0 00000000 00000000 00000000 00000000  ................
 40008fe0 00000000 00000000 00000000 00000000  ................
 40008ff0 00000000 00000000 00000000 00000000  ................
